__Z10arcToDLineP3Arc
__Z10compChainsP9monoChainS0_
__Z10partitionYP12directedLinePP11sampledLine
__Z11DBG_reverseP12directedLine
__Z11checkMiddleP11vertexArrayiiff
__Z11drawCornersPfS_P11vertexArrayS1_P17gridBoundaryChainS3_iiiiiiiiii
__Z12DBG_isConvexP12directedLine
__Z12TreeNodeFindP8treeNodePvPFiS1_S1_E
__Z12TreeNodeMakePv
__Z12monoPolyPartP12directedLine
__Z13MC_partitionYP12directedLinePP11sampledLine
__Z13TreeNodeDepthP8treeNode
__Z13TreeNodePrintP8treeNodePFvPvE
__Z13findDiagonalsiPP12directedLinePP10sweepRangeRiS1_
__Z13findTopAndBotP12directedLineRS0_S1_
__Z13findUpCornersPfP11vertexArrayiiS1_iifffRiS2_S2_S2_
__Z13sampleCompBotPfP11vertexArrayiS1_iP17gridBoundaryChainS3_iiiiiP10primStream
__Z13sampleCompTopPfP11vertexArrayiS1_iP17gridBoundaryChainS3_iiiiiP10primStream
__Z14TreeNodeInsertP8treeNodeS0_PFiPvS1_E
__Z14bezierSurfEvalffiffiiPfiiffS_
__Z14findGridChainsP12directedLineS0_P8gridWrapRP17gridBoundaryChainS5_
__Z14polygonConvertP12directedLine
__Z14sampleCompLeftPfS_P11vertexArrayiiS1_iiP17gridBoundaryChainiiiiiiP10primStream
__Z14sampleMonoPolyP12directedLineP8gridWrapiiP10primStreamP14rectBlockArray
__Z14stripOfFanLeftP11vertexArrayiiP8gridWrapiiiP10primStreami
__Z14sweepRangeMakeP12directedLineiS0_i
__Z14toVertexArraysP12directedLineS0_R11vertexArrayS2_
__Z15TreeNodeMaximumP8treeNode
__Z15TreeNodeMinimumP8treeNode
__Z15arcToMultDLinesP12directedLineP3Arc
__Z15bezierCurveEvalffiPfiifS_
__Z15findDownCornersPfP11vertexArrayiiS1_iifffRiS2_S2_S2_
__Z15readAllPolygonsPc
__Z15sampleCompRightPfS_P11vertexArrayiiS1_iiP17gridBoundaryChainiiiiiiP10primStream
__Z15sampleLeftStripP11vertexArrayiiP17gridBoundaryChainiiP10primStream
__Z15stripOfFanRightP11vertexArrayiiP8gridWrapiiiP10primStreami
__Z15sweepRangeEqualP10sweepRangeS0_
__Z16DBGfindDiagonalsP12directedLineRi
__Z16MC_findDiagonalsiPP9monoChainPP10sweepRangeRiPP12directedLine
__Z16findBotSeparatorP11vertexArrayiiS0_iiRiS1_
__Z16findTopSeparatorP11vertexArrayiiS0_iiRiS1_
__Z16sweepRangeDeleteP10sweepRange
__Z17DBG_is_U_monotoneP12directedLine
__Z17TreeNodeSuccessorP8treeNode
__Z17bin_to_DLineLoopsR3Bin
__Z17monoTriangulationP12directedLineP10primStream
__Z17numInteriorCuspsXP12directedLine
__Z17sampleMonoPolyRecPfS_P11vertexArrayiS1_iP17gridBoundaryChainS3_iP10primStreamP14rectBlockArray
__Z17triangulateXYMonoiPA2_fiS0_P10primStream
__Z18DBG_edgesIntersectP12directedLineS0_
__Z18DBG_intersectChainP11vertexArrayiiPfS1_
__Z18DBG_is_U_directionP12directedLine
__Z18arcLoopToDLineLoopP3Arc
__Z18bezierCurveEvalDerffiPfiifS_
__Z18findBotLeftSegmentP11vertexArrayiifRiS1_
__Z18findInteriorCuspsXP12directedLineRiPS0_
__Z18findTopLeftSegmentP11vertexArrayiifRiS1_
__Z18monoTriangulation2PfS_P11vertexArrayiiiP10primStream
__Z18sampleLeftStripRecP11vertexArrayiiP17gridBoundaryChainiiP10primStream
__Z19DBG_pointInsidePolyPfP12directedLine
__Z19TreeNodePredecessorP8treeNode
__Z19findBotRightSegmentP11vertexArrayiifRiS1_
__Z19findLeftGridIndicesP12directedLineiiP8gridWrapPiS3_
__Z19findTopRightSegmentP11vertexArrayiifRiS1_
__Z19sampleCompBotSimplePfP11vertexArrayiS1_iP17gridBoundaryChainS3_iiiiiP10primStream
__Z19sampleCompTopSimplePfP11vertexArrayiS1_iP17gridBoundaryChainS3_iiiiiP10primStream
__Z19sampleConnectedCompPfS_P11vertexArrayiiS1_iiP17gridBoundaryChainS3_iiiiiiiiiiP10primStreamP14rectBlockArray
__Z19sampleLeftStripRecFP11vertexArrayiiP17gridBoundaryChainiiP10primStream
__Z19triangulateXYMonoTBiPPfiS0_P10primStream
__Z20DBG_rayIntersectEdgePfffS_S_S_
__Z20DBG_rayIntersectPolyPfffP12directedLine
__Z20bezierSurfEvalDerGeniiffiffiiPfiiffS_
__Z20bezierSurfEvalNormalffiffiiPfiiffS_
__Z20findRightGridIndicesP12directedLineiiP8gridWrapPiS3_
__Z20monoTriangulationFunP12directedLinePFiPfS1_EP10primStream
__Z20monoTriangulationOptP12directedLineP10primStream
__Z20monoTriangulationRecP12directedLineiS0_iS0_iS0_P10primStream
__Z20monoTriangulationRecPfS_P11vertexArrayiS1_iP10primStream
__Z20monoTriangulationRecPfS_P11vertexArrayiS1_iP7Backend
__Z20o_curve_to_DLineLoopP7O_curve
__Z20o_pwlcurve_to_DLinesP12directedLineP10O_pwlcurve
__Z20o_trim_to_DLineLoopsP6O_trim
__Z20sampleRightStripRecFP11vertexArrayiiP17gridBoundaryChainiiP10primStream
__Z21DBG_checkConnectivityP12directedLine
__Z21DBG_edgeIntersectPolyP12directedLineS0_
__Z21DBG_edgesIntersectGenPfS_S_S_
__Z21DBG_enclosingPolygonsP12directedLineS0_
__Z21DBG_polygonsIntersectP12directedLineS0_
__Z21bezierCurveEvalDerGeniffiPfiifS_
__Z21deleteRepeatDiagonalsiPP12directedLineS1_
__Z21monoTriangulationLoopP3ArcR7BackendP10primStream
__Z21sampleLeftOneGridStepP11vertexArrayiiP17gridBoundaryChainiP10primStream
__Z21triangulateConvexPolyP12directedLineiiP10primStream
__Z22DBG_isCounterclockwiseP12directedLine
__Z22sampleRightOneGridStepP11vertexArrayiiP17gridBoundaryChainiP10primStream
__Z23DBG_cutIntersectionPolyP12directedLineRi
__Z23TreeNodeDeleteWholeTreeP8treeNode
__Z23monoTriangulationRecFunPfS_P11vertexArrayiS1_iPFiS_S_EP10primStream
__Z23monoTriangulationRecGenPfS_P11vertexArrayiiS1_iiP10primStream
__Z23monoTriangulationRecOptPfS_P11vertexArrayiS1_iP10primStream
__Z24DBG_polygonListIntersectP12directedLine
__Z24DBG_polygonSelfIntersectP12directedLine
__Z24TreeNodeDeleteSingleNodeP8treeNode
__Z24TreeNodeDeleteSingleNodeP8treeNodeS0_
__Z24findDiagonal_singleCuspXP12directedLine
__Z25sampleBotLeftWithGridLinePfP11vertexArrayiiP8gridWrapiiiP10primStream
__Z25sampleTopLeftWithGridLinePfP11vertexArrayiiP8gridWrapiiiP10primStream
__Z26DBG_cutIntersectionAllPolyP12directedLine
__Z26findIncreaseChainFromBeginP11vertexArrayii
__Z26monoTriangulationRecFunGenPfS_P11vertexArrayiiS1_iiPFiS_S_EP10primStream
__Z26monoTriangulationRecGenInUPfS_P11vertexArrayiiS1_iiP10primStream
__Z26monoTriangulationRecGenOptPfS_P11vertexArrayiiS1_iiP10primStream
__Z26sampleBotRightWithGridLinePfP11vertexArrayiiP8gridWrapiiiP10primStream
__Z26sampleTopRightWithGridLinePfP11vertexArrayiiP8gridWrapiiiP10primStream
__Z26triangulateConvexPolyHorizP12directedLineS0_P10primStream
__Z27DBG_collectSampledLinesPolyP12directedLineRP11sampledLineS3_
__Z27monoTriangulationFunBackendP3ArcPFiPfS1_EP7Backend
__Z28monoTriangulationRecGenTBOptPfS_P11vertexArrayiiS1_iiP10primStream
__Z29sampleBotLeftWithGridLinePostPfP11vertexArrayiiiiP8gridWrapiiiP10primStream
__Z29sampleLeftOneGridStepNoMiddleP11vertexArrayiiP17gridBoundaryChainiP10primStream
__Z29sampleTopLeftWithGridLinePostPfP11vertexArrayiiiiP8gridWrapiiiP10primStream
__Z29triangulateConvexPolyVerticalP12directedLineS0_P10primStream
__Z30DBG_collectSampledLinesAllPolyP12directedLine
__Z30monoTriangulationRecFunBackendPfS_P11vertexArrayiS1_iPFiS_S_EP7Backend
__Z30sampleBotRightWithGridLinePostPfP11vertexArrayiiiiP8gridWrapiiiP10primStream
__Z30sampleLeftSingleTrimEdgeRegionPfS_P17gridBoundaryChainiiP10primStream
__Z30sampleRightOneGridStepNoMiddleP11vertexArrayiiP17gridBoundaryChainiP10primStream
__Z30sampleTopRightWithGridLinePostPfP11vertexArrayiiiiP8gridWrapiiiP10primStream
__Z31directedLineLoopToMonoChainLoopP12directedLine
__Z31sampleRightSingleTrimEdgeRegionPfS_P17gridBoundaryChainiiP10primStream
__Z33sampleLeftSingleTrimEdgeRegionGenPfS_P11vertexArrayiiP17gridBoundaryChainiiS1_iiiiP10primStream
__Z34sampleRightSingleTrimEdgeRegionGenPfS_P11vertexArrayiiP17gridBoundaryChainiiS1_iiiiP10primStream
__Z39directedLineLoopListToMonoChainLoopListP12directedLine
__Z6isCuspP12directedLine
__Z6sweepYiPP12directedLinePP10sweepRange
__Z7isAboveP12directedLineS0_
__Z7isBelowP12directedLineS0_
__Z7isCuspXP12directedLine
__Z8cuspTypeP12directedLine
__Z8findNeckP11vertexArrayiS0_iRiS1_
__Z8isReflexP12directedLine
__Z9DBG_checkP12directedLine
__Z9MC_sweepYiPP9monoChainPP10sweepRange
__Z9compV2InXPfS_
__Z9compV2InYPfS_
__Z9cuspTypeXP12directedLine
__Z9findNeckFP11vertexArrayiS0_iP17gridBoundaryChainS2_iRiS3_
__Z9isReflexXP12directedLine
__Z9quicksortPPviiPFiS_S_E
__ZN10Knotvector4initElllPf
__ZN10Knotvector4showEPc
__ZN10Knotvector8validateEv
__ZN10KnotvectorC1Ev
__ZN10KnotvectorC2Ev
__ZN10KnotvectorD1Ev
__ZN10KnotvectorD2Ev
__ZN10O_pwlcurveC1EllPflP10TrimVertex
__ZN10O_pwlcurveC2EllPflP10TrimVertex
__ZN10Splinespec10setupquiltEP5Quilt
__ZN10Splinespec4copyEPf
__ZN10Splinespec6layoutEl
__ZN10Splinespec6selectEv
__ZN10Splinespec9kspecinitER10Knotvector
__ZN10Splinespec9kspecinitER10KnotvectorS1_
__ZN10Splinespec9transformEv
__ZN10SplinespecC1Ei
__ZN10SplinespecC2Ei
__ZN10SplinespecD1Ev
__ZN10SplinespecD2Ev
__ZN10Subdivider10ccwTurn_slEP3ArcS1_
__ZN10Subdivider10ccwTurn_srEP3ArcS1_
__ZN10Subdivider10ccwTurn_tlEP3ArcS1_
__ZN10Subdivider10ccwTurn_trEP3ArcS1_
__ZN10Subdivider10drawCurvesEv
__ZN10Subdivider10isMonotoneEP3Arc
__ZN10Subdivider10monotonizeEP3ArcR3Bin
__ZN10Subdivider10tessellateEP3Arcf
__ZN10Subdivider10tessellateER3Binffff
__ZN10Subdivider11beginQuiltsEv
__ZN10Subdivider12drawSurfacesEl
__ZN10Subdivider12monosplitInSER3Binii
__ZN10Subdivider12monosplitInTER3Binii
__ZN10Subdivider12subdivideInSER3Bin
__ZN10Subdivider12tessellationER3BinR9Patchlist
__ZN10Subdivider13samplingSplitER3BinR9Patchlistii
__ZN10Subdivider13samplingSplitER9Curvelisti
__ZN10Subdivider13setJumpbufferEP10JumpBuffer
__ZN10Subdivider14findIrregularSER3Bin
__ZN10Subdivider14findIrregularTER3Bin
__ZN10Subdivider14makeBorderTrimEPKfS1_
__ZN10Subdivider16nonSamplingSplitER3BinR9Patchlistii
__ZN10Subdivider17makePatchBoundaryEPKfS1_
__ZN10Subdivider21classify_headonleft_sER3BinS1_S1_f
__ZN10Subdivider21classify_headonleft_tER3BinS1_S1_f
__ZN10Subdivider21classify_tailonleft_sER3BinS1_S1_f
__ZN10Subdivider21classify_tailonleft_tER3BinS1_S1_f
__ZN10Subdivider22classify_headonright_sER3BinS1_S1_f
__ZN10Subdivider22classify_headonright_tER3BinS1_S1_f
__ZN10Subdivider22classify_tailonright_sER3BinS1_S1_f
__ZN10Subdivider22classify_tailonright_tER3BinS1_S1_f
__ZN10Subdivider3ccwEP10TrimVertexS1_S1_
__ZN10Subdivider4bboxEffffff
__ZN10Subdivider5clearEv
__ZN10Subdivider5splitER3BinS1_S1_if
__ZN10Subdivider6addArcEPfP5Quiltl
__ZN10Subdivider6addArcEiP10TrimVertexl
__ZN10Subdivider6join_sER3BinS1_P3ArcS3_
__ZN10Subdivider6join_tER3BinS1_P3ArcS3_
__ZN10Subdivider6renderER3Bin
__ZN10Subdivider7check_sEP3ArcS1_
__ZN10Subdivider7check_tEP3ArcS1_
__ZN10Subdivider7outlineER3Bin
__ZN10Subdivider8addQuiltEP5Quilt
__ZN10Subdivider8splitInSER3Binii
__ZN10Subdivider8splitInTER3Binii
__ZN10Subdivider9arc_splitEP3Arcifi
__ZN10Subdivider9decomposeER3Binf
__ZN10Subdivider9freejarcsER3Bin
__ZN10Subdivider9partitionER3BinS1_S1_S1_S1_if
__ZN10SubdividerC1ER11RenderhintsR7Backend
__ZN10SubdividerC2ER11RenderhintsR7Backend
__ZN10SubdividerD1Ev
__ZN10SubdividerD2Ev
__ZN10TrimRegion13getGridExtentEP10TrimVertexS1_
__ZN10TrimRegion13getGridExtentEv
__ZN10TrimRegion4initElP3Arc
__ZN10TrimRegion5setDuEf
__ZN10TrimRegion6getPtsEP3Arc
__ZN10TrimRegion6getPtsER7Backend
__ZN10TrimRegion7canTileEv
__ZN10TrimRegionC1Ev
__ZN10TrimRegionC2Ev
__ZN10primStream13num_trianglesEv
__ZN10primStream3endEi
__ZN10primStream4drawEv
__ZN10primStream5beginEv
__ZN10primStream5printEv
__ZN10primStream6insertEff
__ZN10primStreamC1Eii
__ZN10primStreamC2Eii
__ZN10primStreamD1Ev
__ZN10primStreamD2Ev
__ZN11DisplayList4playEv
__ZN11DisplayList6appendEM16NurbsTessellatorFvPvES1_S3_
__ZN11DisplayList7endListEv
__ZN11DisplayListC1EP16NurbsTessellator
__ZN11DisplayListC2EP16NurbsTessellator
__ZN11DisplayListD1Ev
__ZN11DisplayListD2Ev
__ZN11FlistSorter5qscmpEPcS0_
__ZN11FlistSorter5qsexcEPcS0_
__ZN11FlistSorter5qsortEPfi
__ZN11FlistSorter6qstexcEPcS0_S0_
__ZN11FlistSorterC1Ev
__ZN11FlistSorterC2Ev
__ZN11Renderhints10isPropertyEl
__ZN11Renderhints11getPropertyEl
__ZN11Renderhints11setPropertyElf
__ZN11Renderhints4initEv
__ZN11RenderhintsC1Ev
__ZN11RenderhintsC2Ev
__ZN11reflexChain16processNewVertexEPfP10primStream
__ZN11reflexChain16processNewVertexEPfP7Backend
__ZN11reflexChain5printEv
__ZN11reflexChain6insertEPf
__ZN11reflexChain6insertEff
__ZN11reflexChain9outputFanEPfP10primStream
__ZN11reflexChain9outputFanEPfP7Backend
__ZN11reflexChainC1Eii
__ZN11reflexChainC2Eii
__ZN11reflexChainD1Ev
__ZN11reflexChainD2Ev
__ZN11sampledLine10deleteListEv
__ZN11sampledLine10tessellateEff
__ZN11sampledLine13tessellateAllEff
__ZN11sampledLine4initEiPA2_f
__ZN11sampledLine5printEv
__ZN11sampledLine6insertEPS_
__ZN11sampledLine8setPointEiPf
__ZN11sampledLineC1EPfS0_
__ZN11sampledLineC1Ei
__ZN11sampledLineC1EiPA2_f
__ZN11sampledLineC1Ev
__ZN11sampledLineC2EPfS0_
__ZN11sampledLineC2Ei
__ZN11sampledLineC2EiPA2_f
__ZN11sampledLineC2Ev
__ZN11sampledLineD1Ev
__ZN11sampledLineD2Ev
__ZN11vertexArray12appendVertexEPf
__ZN11vertexArray14findIndexAboveEf
__ZN11vertexArray17findIndexAboveGenEfii
__ZN11vertexArray17findIndexBelowGenEfii
__ZN11vertexArray21skipEqualityFromStartEfii
__ZN11vertexArray23findIndexStrictBelowGenEfii
__ZN11vertexArray24findDecreaseChainFromEndEii
__ZN11vertexArray27findIndexFirstAboveEqualGenEfii
__ZN11vertexArray5printEv
__ZN11vertexArrayC1EPA2_fi
__ZN11vertexArrayC1Ei
__ZN11vertexArrayC2EPA2_fi
__ZN11vertexArrayC2Ei
__ZN11vertexArrayD1Ev
__ZN11vertexArrayD2Ev
__ZN12CoveAndTiler11coveAndTileEv
__ZN12CoveAndTiler12MAXSTRIPSIZEE
__ZN12CoveAndTiler13coveLowerLeftEv
__ZN12CoveAndTiler13coveUpperLeftEv
__ZN12CoveAndTiler14coveLowerRightEv
__ZN12CoveAndTiler14coveUpperRightEv
__ZN12CoveAndTiler19coveLowerLeftNoGridEP10TrimVertex
__ZN12CoveAndTiler19coveUpperLeftNoGridEP10TrimVertex
__ZN12CoveAndTiler20coveLowerRightNoGridEP10TrimVertex
__ZN12CoveAndTiler20coveUpperRightNoGridEP10TrimVertex
__ZN12CoveAndTiler4tileElll
__ZN12CoveAndTiler6coveLLEv
__ZN12CoveAndTiler6coveLREv
__ZN12CoveAndTiler6coveULEv
__ZN12CoveAndTiler6coveUREv
__ZN12CoveAndTilerC1ER7Backend
__ZN12CoveAndTilerC2ER7Backend
__ZN12CoveAndTilerD1Ev
__ZN12CoveAndTilerD2Ev
__ZN12directedLine11deleteChainEPS_S0_
__ZN12directedLine11isConnectedEv
__ZN12directedLine11numPolygonsEv
__ZN12directedLine11printSingleEv
__ZN12directedLine11samePolygonEPS_S0_
__ZN12directedLine13cutoffPolygonEPS_
__ZN12directedLine13insertPolygonEPS_
__ZN12directedLine15connectDiagonalEPS_S0_PS0_S1_PP11sampledLineS0_
__ZN12directedLine15sortAllPolygonsEv
__ZN12directedLine16deleteSingleLineEPS_
__ZN12directedLine16printAllPolygonsEv
__ZN12directedLine16rootLinkFindRootEv
__ZN12directedLine16writeAllPolygonsEPc
__ZN12directedLine17deletePolygonListEv
__ZN12directedLine18toArrayAllPolygonsERi
__ZN12directedLine19deleteSinglePolygonEv
__ZN12directedLine19numEdgesAllPolygonsEv
__ZN12directedLine20toArraySinglePolygonEPPS_i
__ZN12directedLine21deleteDegenerateLinesEv
__ZN12directedLine22cutIntersectionAllPolyERi
__ZN12directedLine23connectDiagonal_2slinesEPS_S0_PS0_S1_S0_
__ZN12directedLine26deletePolygonListWithSlineEv
__ZN12directedLine28deleteSinglePolygonWithSlineEv
__ZN12directedLine32deleteDegenerateLinesAllPolygonsEv
__ZN12directedLine4headEv
__ZN12directedLine4initEsP11sampledLine
__ZN12directedLine4tailEv
__ZN12directedLine6insertEPS_
__ZN12directedLine7compInXEPS_
__ZN12directedLine7compInYEPS_
__ZN12directedLine8findRootEv
__ZN12directedLine8numEdgesEv
__ZN12directedLine8polyAreaEv
__ZN12directedLine9getVertexEi
__ZN12directedLine9isPolygonEv
__ZN12directedLine9printListEv
__ZN12directedLineC1EsP11sampledLine
__ZN12directedLineC1Ev
__ZN12directedLineC2EsP11sampledLine
__ZN12directedLineC2Ev
__ZN12directedLineD1Ev
__ZN12directedLineD2Ev
__ZN13ArcSdirSorter5qscmpEPcS0_
__ZN13ArcSdirSorterC1ER10Subdivider
__ZN13ArcSdirSorterC2ER10Subdivider
__ZN13ArcTdirSorter5qscmpEPcS0_
__ZN13ArcTdirSorterC1ER10Subdivider
__ZN13ArcTdirSorterC2ER10Subdivider
__ZN14ArcTessellator10pwl_bottomEP3Arcffff
__ZN14ArcTessellator12gl_BernsteinE
__ZN14ArcTessellator16tessellateLinearEP3Arcffi
__ZN14ArcTessellator17trim_power_coeffsEP9BezierArcPfi
__ZN14ArcTessellator19tessellateNonlinearEP3Arcffi
__ZN14ArcTessellator3pwlEP3Arcfffff
__ZN14ArcTessellator6bezierEP3Arcffff
__ZN14ArcTessellator7pwl_topEP3Arcffff
__ZN14ArcTessellator8pwl_leftEP3Arcffff
__ZN14ArcTessellator9pwl_rightEP3Arcffff
__ZN14ArcTessellatorC1ER14TrimVertexPoolR4Pool
__ZN14ArcTessellatorC2ER14TrimVertexPoolR4Pool
__ZN14ArcTessellatorD1Ev
__ZN14ArcTessellatorD2Ev
__ZN14TrimVertexPool3getEi
__ZN14TrimVertexPool5clearEv
__ZN14TrimVertexPoolC1Ev
__ZN14TrimVertexPoolC2Ev
__ZN14TrimVertexPoolD1Ev
__ZN14TrimVertexPoolD2Ev
__ZN14rectBlockArray4drawEPfS0_
__ZN14rectBlockArray5printEv
__ZN14rectBlockArray6insertEP9rectBlock
__ZN14rectBlockArray9num_quadsEv
__ZN14rectBlockArrayC1Ei
__ZN14rectBlockArrayC2Ei
__ZN14rectBlockArrayD1Ev
__ZN14rectBlockArrayD2Ev
__ZN16CachingEvaluator11beginOutputENS_11ServiceModeEi
__ZN16CachingEvaluator12createHandleEi
__ZN16CachingEvaluator13playRecordingEi
__ZN16CachingEvaluator16canPlayAndRecordEv
__ZN16CachingEvaluator16discardRecordingEi
__ZN16CachingEvaluator9canRecordEv
__ZN16CachingEvaluator9endOutputEv
__ZN16NurbsTessellator10bgnsurfaceEl
__ZN16NurbsTessellator10do_bgntrimEP6O_trim
__ZN16NurbsTessellator10do_endtrimEv
__ZN16NurbsTessellator10do_freeallEv
__ZN16NurbsTessellator10endsurfaceEv
__ZN16NurbsTessellator10nurbscurveElPflS0_ll
__ZN16NurbsTessellator11do_bgncurveEP7O_curve
__ZN16NurbsTessellator11do_endcurveEv
__ZN16NurbsTessellator11do_pwlcurveEP10O_pwlcurve
__ZN16NurbsTessellator12endRecordingEv
__ZN16NurbsTessellator12errorHandlerEi
__ZN16NurbsTessellator12nurbssurfaceElPflS0_llS0_lll
__ZN16NurbsTessellator12redefineMapsEv
__ZN16NurbsTessellator12resetObjectsEv
__ZN16NurbsTessellator13do_bgnsurfaceEP9O_surface
__ZN16NurbsTessellator13do_endsurfaceEv
__ZN16NurbsTessellator13do_nurbscurveEP12O_nurbscurve
__ZN16NurbsTessellator13do_nurbserrorEi
__ZN16NurbsTessellator13playRecordingEPv
__ZN16NurbsTessellator14beginRecordingEv
__ZN16NurbsTessellator14do_check_knotsEP10KnotvectorPc
__ZN16NurbsTessellator14do_freebgntrimEP6O_trim
__ZN16NurbsTessellator15do_freebgncurveEP7O_curve
__ZN16NurbsTessellator15do_freecurveallEP7O_curve
__ZN16NurbsTessellator15do_freepwlcurveEP10O_pwlcurve
__ZN16NurbsTessellator15do_nurbssurfaceEP14O_nurbssurface
__ZN16NurbsTessellator16discardRecordingEPv
__ZN16NurbsTessellator16getnurbspropertyElPf
__ZN16NurbsTessellator16getnurbspropertyEllPf
__ZN16NurbsTessellator16setnurbspropertyElf
__ZN16NurbsTessellator16setnurbspropertyEllPf
__ZN16NurbsTessellator16setnurbspropertyEllPfll
__ZN16NurbsTessellator16setnurbspropertyEllf
__ZN16NurbsTessellator17do_freebgnsurfaceEP9O_surface
__ZN16NurbsTessellator17do_freenurbscurveEP12O_nurbscurve
__ZN16NurbsTessellator19do_freenurbssurfaceEP14O_nurbssurface
__ZN16NurbsTessellator19do_setnurbspropertyEP8Property
__ZN16NurbsTessellator20do_freenurbspropertyEP8Property
__ZN16NurbsTessellator20do_setnurbsproperty2EP8Property
__ZN16NurbsTessellator26set_domain_distance_u_rateEf
__ZN16NurbsTessellator26set_domain_distance_v_rateEf
__ZN16NurbsTessellator31set_is_domain_distance_samplingEi
__ZN16NurbsTessellator7bgntrimEv
__ZN16NurbsTessellator7endtrimEv
__ZN16NurbsTessellator7makeobjEi
__ZN16NurbsTessellator8bgncurveEl
__ZN16NurbsTessellator8closeobjEv
__ZN16NurbsTessellator8endcurveEv
__ZN16NurbsTessellator8pwlcurveElPfll
__ZN16NurbsTessellator9bgnrenderEv
__ZN16NurbsTessellator9defineMapElll
__ZN16NurbsTessellator9endrenderEv
__ZN16NurbsTessellatorC1ER19BasicCurveEvaluatorR21BasicSurfaceEvaluator
__ZN16NurbsTessellatorC2ER19BasicCurveEvaluatorR21BasicSurfaceEvaluator
__ZN16NurbsTessellatorD0Ev
__ZN16NurbsTessellatorD1Ev
__ZN16NurbsTessellatorD2Ev
__ZN17gridBoundaryChain10leftEndFanEiP10primStream
__ZN17gridBoundaryChain11rightEndFanEiP10primStream
__ZN17gridBoundaryChain4drawEv
__ZN17gridBoundaryChain7lookforEfii
__ZN17gridBoundaryChain9drawInnerEv
__ZN17gridBoundaryChainC1EP8gridWrapiiPiS2_
__ZN17gridBoundaryChainC2EP8gridWrapiiPiS2_
__ZN19BasicCurveEvaluator11evalcoord1fElf
__ZN19BasicCurveEvaluator5map1fElffllPf
__ZN19BasicCurveEvaluator6enableEl
__ZN19BasicCurveEvaluator7bgnlineEv
__ZN19BasicCurveEvaluator7disableEl
__ZN19BasicCurveEvaluator7endlineEv
__ZN19BasicCurveEvaluator7range1fElPfS0_
__ZN19BasicCurveEvaluator8bgnmap1fEl
__ZN19BasicCurveEvaluator8domain1fEff
__ZN19BasicCurveEvaluator8endmap1fEv
__ZN19BasicCurveEvaluator9mapgrid1fElff
__ZN19BasicCurveEvaluator9mapmesh1fElll
__ZN20OpenGLCurveEvaluator11endCallBackEPv
__ZN20OpenGLCurveEvaluator11evalcoord1fElf
__ZN20OpenGLCurveEvaluator11evalpoint1iEl
__ZN20OpenGLCurveEvaluator11inDoDomain1EP16curveEvalMachinefPf
__ZN20OpenGLCurveEvaluator11inMapMesh1fEii
__ZN20OpenGLCurveEvaluator11putCallBackEjPFvvE
__ZN20OpenGLCurveEvaluator13beginCallBackEjPv
__ZN20OpenGLCurveEvaluator13colorCallBackEPKfPv
__ZN20OpenGLCurveEvaluator13inPreEvaluateEifPf
__ZN20OpenGLCurveEvaluator14inDoEvalCoord1Ef
__ZN20OpenGLCurveEvaluator14normalCallBackEPKfPv
__ZN20OpenGLCurveEvaluator14vertexCallBackEPKfPv
__ZN20OpenGLCurveEvaluator16texcoordCallBackEPKfPv
__ZN20OpenGLCurveEvaluator5map1fElffllPf
__ZN20OpenGLCurveEvaluator6addMapEP8CurveMap
__ZN20OpenGLCurveEvaluator6enableEl
__ZN20OpenGLCurveEvaluator7bgnlineEv
__ZN20OpenGLCurveEvaluator7disableEl
__ZN20OpenGLCurveEvaluator7endlineEv
__ZN20OpenGLCurveEvaluator7inMap1fEiiffiiPf
__ZN20OpenGLCurveEvaluator7range1fElPfS0_
__ZN20OpenGLCurveEvaluator8bgnmap1fEl
__ZN20OpenGLCurveEvaluator8domain1fEff
__ZN20OpenGLCurveEvaluator8endmap1fEv
__ZN20OpenGLCurveEvaluator9mapgrid1fElff
__ZN20OpenGLCurveEvaluator9mapmesh1fElll
__ZN20OpenGLCurveEvaluatorC1Ev
__ZN20OpenGLCurveEvaluatorC2Ev
__ZN20OpenGLCurveEvaluatorD0Ev
__ZN20OpenGLCurveEvaluatorD1Ev
__ZN20OpenGLCurveEvaluatorD2Ev
__ZN21BasicSurfaceEvaluator11evalcoord2fElff
__ZN21BasicSurfaceEvaluator11evalpoint2iEll
__ZN21BasicSurfaceEvaluator13bgnclosedlineEv
__ZN21BasicSurfaceEvaluator13endclosedlineEv
__ZN21BasicSurfaceEvaluator5map2fElffllffllPf
__ZN21BasicSurfaceEvaluator6enableEl
__ZN21BasicSurfaceEvaluator7bgnlineEv
__ZN21BasicSurfaceEvaluator7bgntfanEv
__ZN21BasicSurfaceEvaluator7disableEl
__ZN21BasicSurfaceEvaluator7endlineEv
__ZN21BasicSurfaceEvaluator7endtfanEv
__ZN21BasicSurfaceEvaluator7range2fElPfS0_
__ZN21BasicSurfaceEvaluator8bgnmap2fEl
__ZN21BasicSurfaceEvaluator8bgntmeshEv
__ZN21BasicSurfaceEvaluator8domain2fEffff
__ZN21BasicSurfaceEvaluator8endmap2fEv
__ZN21BasicSurfaceEvaluator8endtmeshEv
__ZN21BasicSurfaceEvaluator8polymodeEl
__ZN21BasicSurfaceEvaluator9bgnqstripEv
__ZN21BasicSurfaceEvaluator9endqstripEv
__ZN21BasicSurfaceEvaluator9mapgrid2fElfflff
__ZN21BasicSurfaceEvaluator9mapmesh2fElllll
__ZN21BasicSurfaceEvaluator9swaptmeshEv
__ZN22OpenGLSurfaceEvaluator10evalUStripEifPfifS0_
__ZN22OpenGLSurfaceEvaluator10evalVStripEifPfifS0_
__ZN22OpenGLSurfaceEvaluator11endCallBackEPv
__ZN22OpenGLSurfaceEvaluator11evalcoord2fElff
__ZN22OpenGLSurfaceEvaluator11evalpoint2iEll
__ZN22OpenGLSurfaceEvaluator11inBPMEvalEMEP15bezierPatchMesh
__ZN22OpenGLSurfaceEvaluator11inEvalMesh2Eiiii
__ZN22OpenGLSurfaceEvaluator11inEvalULineEifPfiPA3_fS2_
__ZN22OpenGLSurfaceEvaluator11inEvalVLineEifPfiPA3_fS2_
__ZN22OpenGLSurfaceEvaluator11inMapGrid2fEiffiff
__ZN22OpenGLSurfaceEvaluator11putCallBackEjPFvvE
__ZN22OpenGLSurfaceEvaluator12inEvalPoint2Eii
__ZN22OpenGLSurfaceEvaluator12inEvalUStripEifPfifS0_
__ZN22OpenGLSurfaceEvaluator12inEvalVStripEifPfifS0_
__ZN22OpenGLSurfaceEvaluator12newtmeshvertEff
__ZN22OpenGLSurfaceEvaluator12newtmeshvertEll
__ZN22OpenGLSurfaceEvaluator13LOD_eval_listEi
__ZN22OpenGLSurfaceEvaluator13beginCallBackEjPv
__ZN22OpenGLSurfaceEvaluator13bgnclosedlineEv
__ZN22OpenGLSurfaceEvaluator13colorCallBackEPKfPv
__ZN22OpenGLSurfaceEvaluator13endclosedlineEv
__ZN22OpenGLSurfaceEvaluator13inBPMListEvalEP15bezierPatchMesh
__ZN22OpenGLSurfaceEvaluator13inDoDomain2EMEP15surfEvalMachineffPf
__ZN22OpenGLSurfaceEvaluator13inEvalCoord2fEff
__ZN22OpenGLSurfaceEvaluator13inPreEvaluateEifPf
__ZN22OpenGLSurfaceEvaluator14inDoEvalCoord2EffPfS0_
__ZN22OpenGLSurfaceEvaluator14normalCallBackEPKfPv
__ZN22OpenGLSurfaceEvaluator14vertexCallBackEPKfPv
__ZN22OpenGLSurfaceEvaluator15inBPMListEvalEMEP15bezierPatchMesh
__ZN22OpenGLSurfaceEvaluator15inPreEvaluateBUEiiifPf
__ZN22OpenGLSurfaceEvaluator15inPreEvaluateBVEiiifPf
__ZN22OpenGLSurfaceEvaluator16inComputeNormal2EPfS0_S0_
__ZN22OpenGLSurfaceEvaluator16inDoEvalCoord2EMEff
__ZN22OpenGLSurfaceEvaluator16texcoordCallBackEPKfPv
__ZN22OpenGLSurfaceEvaluator18inDoEvalCoord2NOGEEffPfS0_
__ZN22OpenGLSurfaceEvaluator21inDoDomain2WithDerivsEiffffiffiPfS0_S0_S0_
__ZN22OpenGLSurfaceEvaluator21inDoEvalCoord2NOGE_BUEffPfS0_
__ZN22OpenGLSurfaceEvaluator21inDoEvalCoord2NOGE_BVEffPfS0_
__ZN22OpenGLSurfaceEvaluator22inComputeFirstPartialsEPfS0_S0_
__ZN22OpenGLSurfaceEvaluator22inPreEvaluateWithDerivEifPfS0_
__ZN22OpenGLSurfaceEvaluator23inDoDomain2WithDerivsBUEiffffiffiPfS0_S0_S0_
__ZN22OpenGLSurfaceEvaluator23inDoDomain2WithDerivsBVEiffffiffiPfS0_S0_S0_
__ZN22OpenGLSurfaceEvaluator23inDoDomain2WithDerivsEMEP15surfEvalMachineffPfS2_S2_
__ZN22OpenGLSurfaceEvaluator5map2fElffllffllPf
__ZN22OpenGLSurfaceEvaluator6enableEl
__ZN22OpenGLSurfaceEvaluator7bgnlineEv
__ZN22OpenGLSurfaceEvaluator7bgntfanEv
__ZN22OpenGLSurfaceEvaluator7coord2fEff
__ZN22OpenGLSurfaceEvaluator7disableEl
__ZN22OpenGLSurfaceEvaluator7endlineEv
__ZN22OpenGLSurfaceEvaluator7endtfanEv
__ZN22OpenGLSurfaceEvaluator7inMap2fEiffiiffiiPf
__ZN22OpenGLSurfaceEvaluator7point2iEll
__ZN22OpenGLSurfaceEvaluator7range2fElPfS0_
__ZN22OpenGLSurfaceEvaluator8bgnmap2fEl
__ZN22OpenGLSurfaceEvaluator8bgntmeshEv
__ZN22OpenGLSurfaceEvaluator8domain2fEffff
__ZN22OpenGLSurfaceEvaluator8endmap2fEv
__ZN22OpenGLSurfaceEvaluator8endtmeshEv
__ZN22OpenGLSurfaceEvaluator8polymodeEl
__ZN22OpenGLSurfaceEvaluator9bgnqstripEv
__ZN22OpenGLSurfaceEvaluator9endqstripEv
__ZN22OpenGLSurfaceEvaluator9inBPMEvalEP15bezierPatchMesh
__ZN22OpenGLSurfaceEvaluator9inMap2fEMEiiffiiffiiPf
__ZN22OpenGLSurfaceEvaluator9mapgrid2fElfflff
__ZN22OpenGLSurfaceEvaluator9mapmesh2fElllll
__ZN22OpenGLSurfaceEvaluator9swaptmeshEv
__ZN22OpenGLSurfaceEvaluatorC1Ev
__ZN22OpenGLSurfaceEvaluatorC2Ev
__ZN22OpenGLSurfaceEvaluatorD0Ev
__ZN22OpenGLSurfaceEvaluatorD1Ev
__ZN22OpenGLSurfaceEvaluatorD2Ev
__ZN3Arc10bezier_tagE
__ZN3Arc10getextremaEPPS_
__ZN3Arc14isDisconnectedEv
__ZN3Arc4showEv
__ZN3Arc5checkEv
__ZN3Arc5printEv
__ZN3Arc6appendEPS_
__ZN3Arc6numptsEv
__ZN3Arc7arc_tagE
__ZN3Arc8makeSideEP6PwlArc8arc_side
__ZN3Arc8tail_tagE
__ZN3Arc9markvertsEv
__ZN3Bin10listBezierEv
__ZN3Bin15remove_this_arcEP3Arc
__ZN3Bin4showEPc
__ZN3Bin5adoptEv
__ZN3Bin7markallEv
__ZN3Bin7numarcsEv
__ZN3BinC1Ev
__ZN3BinC2Ev
__ZN3BinD1Ev
__ZN3BinD2Ev
__ZN4Hull4initEv
__ZN4Hull9nextlowerEP14GridTrimVertex
__ZN4Hull9nextupperEP14GridTrimVertex
__ZN4HullC1Ev
__ZN4HullC2Ev
__ZN4HullD1Ev
__ZN4HullD2Ev
__ZN4Pool4growEv
__ZN4Pool5clearEv
__ZN4PoolC1EiiPc
__ZN4PoolC2EiiPc
__ZN4PoolD1Ev
__ZN4PoolD2Ev
__ZN5Curve11getstepsizeEv
__ZN5Curve11setstepsizeEf
__ZN5Curve24needsSamplingSubdivisionEv
__ZN5Curve5clampEv
__ZN5Curve9cullCheckEv
__ZN5CurveC1EP5QuiltffPS_
__ZN5CurveC1ERS_fPS_
__ZN5CurveC2EP5QuiltffPS_
__ZN5CurveC2ERS_fPS_
__ZN5Flist3addEf
__ZN5Flist4growEi
__ZN5Flist5taperEff
__ZN5Flist6filterEv
__ZN5FlistC1Ev
__ZN5FlistC2Ev
__ZN5FlistD1Ev
__ZN5FlistD2Ev
__ZN5Patch11getstepsizeEv
__ZN5Patch16needsSubdivisionEi
__ZN5Patch19checkBboxConstraintEv
__ZN5Patch24needsSamplingSubdivisionEv
__ZN5Patch27needsNonSamplingSubdivisionEv
__ZN5Patch4bboxEv
__ZN5Patch5clampEv
__ZN5Patch9cullCheckEv
__ZN5PatchC1EP5QuiltPfS2_PS_
__ZN5PatchC1ERS_ifPS_
__ZN5PatchC2EP5QuiltPfS2_PS_
__ZN5PatchC2ERS_ifPS_
__ZN5Quilt11downloadAllEPfS0_R7Backend
__ZN5Quilt15findSampleRatesER5FlistS1_
__ZN5Quilt4showEv
__ZN5Quilt6selectEPfS0_
__ZN5Quilt8deleteMeER4Pool
__ZN5Quilt8downloadER7Backend
__ZN5Quilt8getRangeEPfS0_R5Flist
__ZN5Quilt8getRangeEPfS0_R5FlistS2_
__ZN5Quilt8getRangeEPfS0_iR5Flist
__ZN5Quilt8isCulledEv
__ZN5Quilt8toBezierER10KnotvectorPfl
__ZN5Quilt8toBezierER10KnotvectorS1_Pfl
__ZN5Quilt9findRatesER5FlistS1_Pf
__ZN5QuiltC1EP7Mapdesc
__ZN5QuiltC2EP7Mapdesc
__ZN6Mesher11finishLowerEP14GridTrimVertex
__ZN6Mesher11finishUpperEP14GridTrimVertex
__ZN6Mesher4ZEROE
__ZN6Mesher4initEj
__ZN6Mesher4meshEv
__ZN6Mesher7addLastEv
__ZN6Mesher8addLowerEv
__ZN6Mesher8addUpperEv
__ZN6MesherC1ER7Backend
__ZN6MesherC2ER7Backend
__ZN6MesherD1Ev
__ZN6MesherD2Ev
__ZN6Slicer10evalStreamEP10primStream
__ZN6Slicer11evalRBArrayEP14rectBlockArrayP8gridWrap
__ZN6Slicer11setisolinesEi
__ZN6Slicer20setstriptessellationEff
__ZN6Slicer5sliceEP3Arc
__ZN6Slicer7outlineEP3Arc
__ZN6Slicer7outlineEv
__ZN6Slicer9slice_newEP3Arc
__ZN6Slicer9slice_oldEP3Arc
__ZN6SlicerC1ER7Backend
__ZN6SlicerC2ER7Backend
__ZN6SlicerD1Ev
__ZN6SlicerD2Ev
__ZN6Sorter3qs1EPcS0_
__ZN6Sorter5qscmpEPcS0_
__ZN6Sorter5qsexcEPcS0_
__ZN6Sorter5qsortEPvi
__ZN6Sorter6qstexcEPcS0_S0_
__ZN6SorterC1Ei
__ZN6SorterC2Ei
__ZN6Uarray4initEfP3ArcS1_
__ZN6UarrayC1Ev
__ZN6UarrayC2Ev
__ZN6UarrayD1Ev
__ZN6UarrayD2Ev
__ZN6Varray4growEl
__ZN6Varray4initEfP3ArcS1_
__ZN6VarrayC1Ev
__ZN6VarrayC2Ev
__ZN6VarrayD1Ev
__ZN6VarrayD2Ev
__ZN7Backend10bgnoutlineEv
__ZN7Backend10endoutlineEv
__ZN7Backend10evalUStripEifPfifS0_
__ZN7Backend10evalVStripEifPfifS0_
__ZN7Backend13preEvaluateBUEf
__ZN7Backend13preEvaluateBVEf
__ZN7Backend13tmeshvertNOGEEP10TrimVertex
__ZN7Backend16tmeshvertNOGE_BUEP10TrimVertex
__ZN7Backend16tmeshvertNOGE_BVEP10TrimVertex
__ZN7Backend5patchEffff
__ZN7Backend6curvptEf
__ZN7Backend7bgncurvEv
__ZN7Backend7bgnlineEv
__ZN7Backend7bgnsurfEiil
__ZN7Backend7bgntfanEv
__ZN7Backend7curvptsElPfliff
__ZN7Backend7endcurvEv
__ZN7Backend7endlineEv
__ZN7Backend7endsurfEv
__ZN7Backend7endtfanEv
__ZN7Backend7segmentEff
__ZN7Backend7surfptsElPflliiffff
__ZN7Backend8bgntmeshEPc
__ZN7Backend8curvgridEffl
__ZN7Backend8curvmeshEll
__ZN7Backend8endtmeshEv
__ZN7Backend8linevertEP10GridVertex
__ZN7Backend8linevertEP10TrimVertex
__ZN7Backend8surfbboxElPfS0_
__ZN7Backend8surfgridEfflffl
__ZN7Backend8surfmeshEllll
__ZN7Backend8triangleEP10TrimVertexS1_S1_
__ZN7Backend9bgnqstripEv
__ZN7Backend9endqstripEv
__ZN7Backend9swaptmeshEv
__ZN7Backend9tmeshvertEP10GridVertex
__ZN7Backend9tmeshvertEP10TrimVertex
__ZN7Backend9tmeshvertEP14GridTrimVertex
__ZN7Backend9tmeshvertEff
__ZN7Mapdesc10bboxTooBigEPfiiiiPA5_f
__ZN7Mapdesc10isPropertyEl
__ZN7Mapdesc11getPropertyEl
__ZN7Mapdesc11setBboxsizeEPf
__ZN7Mapdesc11setPropertyElf
__ZN7Mapdesc12xformCullingEPfiiS0_i
__ZN7Mapdesc12xformCullingEPfiiiiS0_ii
__ZN7Mapdesc13xformBoundingEPfiiS0_i
__ZN7Mapdesc13xformBoundingEPfiiiiS0_ii
__ZN7Mapdesc13xformRationalEPA5_fPfS2_
__ZN7Mapdesc13xformSamplingEPfiiS0_i
__ZN7Mapdesc13xformSamplingEPfiiiiS0_ii
__ZN7Mapdesc16xformNonrationalEPA5_fPfS2_
__ZN7Mapdesc17xformAndCullCheckEPfiiii
__ZN7Mapdesc19calcPartialVelocityEPfS0_iiiiiiffi
__ZN7Mapdesc19calcPartialVelocityEPfiiif
__ZN7Mapdesc20calcVelocityRationalEPfii
__ZN7Mapdesc23calcVelocityNonrationalEPfii
__ZN7Mapdesc4bboxEPA5_fPfiiii
__ZN7Mapdesc4copyEPA5_flPfll
__ZN7Mapdesc5sumPtEPfS0_S0_ff
__ZN7Mapdesc6copyPtEPfS0_
__ZN7Mapdesc7projectEPfiS0_ii
__ZN7Mapdesc7projectEPfiiS0_iiii
__ZN7Mapdesc8clipbitsEPf
__ZN7Mapdesc8identifyEPA5_f
__ZN7Mapdesc8surfbboxEPA5_f
__ZN7Mapdesc8xformMatEPA5_fPfiiS2_i
__ZN7Mapdesc8xformMatEPA5_fPfiiiiS2_ii
__ZN7Mapdesc9cullCheckEPfii
__ZN7Mapdesc9cullCheckEPfiiii
__ZN7Mapdesc9subdivideEPfS0_fii
__ZN7Mapdesc9subdivideEPfS0_fiiii
__ZN7MapdescC1EliiR7Backend
__ZN7MapdescC2EliiR7Backend
__ZN7Maplist10initializeEv
__ZN7Maplist3addElii
__ZN7Maplist4findEl
__ZN7Maplist6defineElii
__ZN7Maplist6locateEl
__ZN7Maplist6removeEP7Mapdesc
__ZN7Maplist8freeMapsEv
__ZN7MaplistC1ER7Backend
__ZN7MaplistC2ER7Backend
__ZN8GLUnurbs11transform4dEPfS0_PA4_f
__ZN8GLUnurbs12errorHandlerEi
__ZN8GLUnurbs12grabGLMatrixEPA4_f
__ZN8GLUnurbs12multmatrix4dEPA4_fPA4_KfS4_
__ZN8GLUnurbs13useGLMatricesEPKfS1_PKi
__ZN8GLUnurbs14loadGLMatricesEv
__ZN8GLUnurbs17loadCullingMatrixEPA4_f
__ZN8GLUnurbs18loadSamplingMatrixEPA4_KfPKi
__ZN8GLUnurbs25setSamplingMatrixIdentityEv
__ZN8GLUnurbs9bgnrenderEv
__ZN8GLUnurbs9endrenderEv
__ZN8GLUnurbsC1Ev
__ZN8GLUnurbsC2Ev
__ZN8Knotspec10pt_io_copyEPfS0_
__ZN8Knotspec10pt_oo_copyEPfS0_
__ZN8Knotspec11breakpointsEv
__ZN8Knotspec4copyEPfS0_
__ZN8Knotspec5knotsEv
__ZN8Knotspec6insertEPf
__ZN8Knotspec6selectEv
__ZN8Knotspec7factorsEv
__ZN8Knotspec7showptsEPf
__ZN8Knotspec9preselectEv
__ZN8Knotspec9pt_oo_sumEPfS0_S0_ff
__ZN8Knotspec9transformEPf
__ZN8KnotspecC1Ev
__ZN8KnotspecC2Ev
__ZN8KnotspecD1Ev
__ZN8KnotspecD2Ev
__ZN8Trimline10getNextPtsEP3Arc
__ZN8Trimline10getNextPtsEfR7Backend
__ZN8Trimline10getPrevPtsEP3Arc
__ZN8Trimline10getPrevPtsEfR7Backend
__ZN8Trimline10interpvertEP10TrimVertexS1_S1_f
__ZN8Trimline4initEP10TrimVertex
__ZN8Trimline4initElP3Arcl
__ZN8Trimline9getNextPtEv
__ZN8Trimline9getPrevPtEv
__ZN8TrimlineC1Ev
__ZN8TrimlineC2Ev
__ZN8TrimlineD1Ev
__ZN8TrimlineD2Ev
__ZN8gridWrap18outputFanWithPointEiiiPfP10primStream
__ZN8gridWrap4drawEv
__ZN8gridWrap5printEv
__ZN8gridWrapC1EiPfiS0_
__ZN8gridWrapC1Eiiffff
__ZN8gridWrapC2EiPfiS0_
__ZN8gridWrapC2Eiiffff
__ZN8gridWrapD1Ev
__ZN8gridWrapD2Ev
__ZN9ArcSorter5qscmpEPcS0_
__ZN9ArcSorter5qsexcEPcS0_
__ZN9ArcSorter5qsortEPP3Arci
__ZN9ArcSorter6qstexcEPcS0_S0_
__ZN9ArcSorterC1ER10Subdivider
__ZN9ArcSorterC2ER10Subdivider
__ZN9Curvelist11getstepsizeEv
__ZN9Curvelist24needsSamplingSubdivisionEv
__ZN9Curvelist9cullCheckEv
__ZN9CurvelistC1EP5Quiltff
__ZN9CurvelistC1ERS_f
__ZN9CurvelistC2EP5Quiltff
__ZN9CurvelistC2ERS_f
__ZN9CurvelistD1Ev
__ZN9CurvelistD2Ev
__ZN9Patchlist11getstepsizeEv
__ZN9Patchlist16needsSubdivisionEi
__ZN9Patchlist24needsSamplingSubdivisionEv
__ZN9Patchlist27needsNonSamplingSubdivisionEv
__ZN9Patchlist4bboxEv
__ZN9Patchlist9cullCheckEv
__ZN9Patchlist9getRangesEPf
__ZN9PatchlistC1EP5QuiltPfS2_
__ZN9PatchlistC1ERS_if
__ZN9PatchlistC2EP5QuiltPfS2_
__ZN9PatchlistC2ERS_if
__ZN9PatchlistD1Ev
__ZN9PatchlistD2Ev
__ZN9Patchspec10singleStepEv
__ZN9Patchspec11getstepsizeEf
__ZN9Patchspec5clampEf
__ZN9monoChain10deleteLoopEv
__ZN9monoChain13printAllLoopsEv
__ZN9monoChain13printOneChainEv
__ZN9monoChain14deleteLoopListEv
__ZN9monoChain14printChainLoopEv
__ZN9monoChain15toArrayAllLoopsERi
__ZN9monoChain17numChainsAllLoopsEv
__ZN9monoChain17toArraySingleLoopEPPS_i
__ZN9monoChain19chainIntersectHorizEf
__ZN9monoChain19numChainsSingleLoopEv
__ZN9monoChain4findEf
__ZN9monoChain6insertEPS_
__ZN9monoChainC1EP12directedLineS1_
__ZN9monoChainC2EP12directedLineS1_
__ZN9rectBlock4drawEPfS0_
__ZN9rectBlock5printEv
__ZN9rectBlock9num_quadsEv
__ZN9rectBlockC1EP17gridBoundaryChainS1_ii
__ZN9rectBlockC2EP17gridBoundaryChainS1_ii
__ZN9rectBlockD1Ev
__ZN9rectBlockD2Ev
__ZTI11FlistSorter
__ZTI13ArcSdirSorter
__ZTI13ArcTdirSorter
__ZTI16CachingEvaluator
__ZTI16NurbsTessellator
__ZTI19BasicCurveEvaluator
__ZTI20OpenGLCurveEvaluator
__ZTI21BasicSurfaceEvaluator
__ZTI22OpenGLSurfaceEvaluator
__ZTI6Sorter
__ZTI8GLUnurbs
__ZTI9ArcSorter
__ZTS11FlistSorter
__ZTS13ArcSdirSorter
__ZTS13ArcTdirSorter
__ZTS16CachingEvaluator
__ZTS16NurbsTessellator
__ZTS19BasicCurveEvaluator
__ZTS20OpenGLCurveEvaluator
__ZTS21BasicSurfaceEvaluator
__ZTS22OpenGLSurfaceEvaluator
__ZTS6Sorter
__ZTS8GLUnurbs
__ZTS9ArcSorter
__ZTV11FlistSorter
__ZTV13ArcSdirSorter
__ZTV13ArcTdirSorter
__ZTV16CachingEvaluator
__ZTV16NurbsTessellator
__ZTV19BasicCurveEvaluator
__ZTV20OpenGLCurveEvaluator
__ZTV21BasicSurfaceEvaluator
__ZTV22OpenGLSurfaceEvaluator
__ZTV6Sorter
__ZTV8GLUnurbs
__ZTV9ArcSorter
___gl_computeInterior
___gl_dictListDelete
___gl_dictListDeleteDict
___gl_dictListInsertBefore
___gl_dictListNewDict
___gl_dictListSearch
___gl_edgeEval
___gl_edgeIntersect
___gl_edgeSign
___gl_memInit
___gl_meshAddEdgeVertex
___gl_meshConnect
___gl_meshDelete
___gl_meshDeleteMesh
___gl_meshDiscardExterior
___gl_meshMakeEdge
___gl_meshNewMesh
___gl_meshSetWindingNumber
___gl_meshSplice
___gl_meshSplitEdge
___gl_meshTessellateInterior
___gl_meshTessellateMonoRegion
___gl_meshUnion
___gl_meshZapFace
___gl_noBeginData
___gl_noCombineData
___gl_noEdgeFlagData
___gl_noEndData
___gl_noErrorData
___gl_noVertexData
___gl_pqHeapDelete
___gl_pqHeapDeletePriorityQ
___gl_pqHeapExtractMin
___gl_pqHeapInit
___gl_pqHeapInsert
___gl_pqHeapNewPriorityQ
___gl_pqSortDelete
___gl_pqSortDeletePriorityQ
___gl_pqSortExtractMin
___gl_pqSortInit
___gl_pqSortInsert
___gl_pqSortIsEmpty
___gl_pqSortMinimum
___gl_pqSortNewPriorityQ
___gl_projectPolygon
___gl_renderBoundary
___gl_renderCache
___gl_renderMesh
___gl_transEval
___gl_transSign
___gl_vertCCW
___gl_vertLeq
___gluNURBSErrorString
___gluTessErrorString
_area
_bezierPatchDelete
_bezierPatchDeleteList
_bezierPatchDraw
_bezierPatchEval
_bezierPatchEvalNormal
_bezierPatchInsert
_bezierPatchListDraw
_bezierPatchMake
_bezierPatchMake2
_bezierPatchMeshBeginStrip
_bezierPatchMeshDelDeg
_bezierPatchMeshDelete
_bezierPatchMeshDraw
_bezierPatchMeshEndStrip
_bezierPatchMeshEval
_bezierPatchMeshInsertUV
_bezierPatchMeshListCollect
_bezierPatchMeshListDelDeg
_bezierPatchMeshListDelete
_bezierPatchMeshListDraw
_bezierPatchMeshListEval
_bezierPatchMeshListInsert
_bezierPatchMeshListNumTriangles
_bezierPatchMeshListPrint
_bezierPatchMeshListReverse
_bezierPatchMeshListTotalStrips
_bezierPatchMeshListTotalVert
_bezierPatchMeshMake
_bezierPatchMeshMake2
_bezierPatchMeshNumTriangles
_bezierPatchMeshPrint
_bezierPatchMeshPutPatch
_bezierPatchPrint
_bezierPatchPrintList
_drawStrips
_gluBeginCurve
_gluBeginPolygon
_gluBeginSurface
_gluBeginTrim
_gluBuild1DMipmapLevels
_gluBuild1DMipmaps
_gluBuild2DMipmapLevels
_gluBuild2DMipmaps
_gluBuild3DMipmapLevels
_gluBuild3DMipmaps
_gluCheckExtension
_gluCylinder
_gluDeleteNurbsRenderer
_gluDeleteNurbsTessellatorEXT
_gluDeleteQuadric
_gluDeleteTess
_gluDisk
_gluEndCurve
_gluEndPolygon
_gluEndSurface
_gluEndTrim
_gluErrorString
_gluGetNurbsProperty
_gluGetString
_gluGetTessProperty
_gluLoadSamplingMatrices
_gluLookAt
_gluNewNurbsRenderer
_gluNewQuadric
_gluNewTess
_gluNextContour
_gluNurbsCallback
_gluNurbsCallbackData
_gluNurbsCallbackDataEXT
_gluNurbsCurve
_gluNurbsProperty
_gluNurbsSurface
_gluOrtho2D
_gluPartialDisk
_gluPerspective
_gluPickMatrix
_gluProject
_gluPwlCurve
_gluQuadricCallback
_gluQuadricDrawStyle
_gluQuadricNormals
_gluQuadricOrientation
_gluQuadricTexture
_gluScaleImage
_gluSphere
_gluTessBeginContour
_gluTessBeginPolygon
_gluTessCallback
_gluTessEndContour
_gluTessEndPolygon
_gluTessNormal
_gluTessProperty
_gluTessVertex
_gluUnProject
_gluUnProject4
_glu_LOD_eval_list
_pointLeft2Lines
_pointLeftLine
