Certificate:
    Data:
        Version: 3 (0x2)
        Serial Number: 9 (0x9)
    Signature Algorithm: sha256WithRSAEncryption
        Issuer: CN=hx509 Test Root CA, C=SE
        Validity
            Not Before: Sep  5 18:04:16 2019 GMT
            Not After : Sep  2 18:04:16 2029 GMT
        Subject: C=SE, CN=kdc
        Subject Public Key Info:
            Public Key Algorithm: rsaEncryption
                Public-Key: (1024 bit)
                Modulus:
                    00:d9:53:63:74:5d:6a:14:ae:d0:55:e7:55:d4:08:
                    9c:fa:e6:02:18:a2:6b:5f:7d:2e:02:97:a7:6e:f4:
                    9f:f9:83:58:37:97:4d:2a:34:f6:ed:6d:44:1c:4b:
                    7a:50:96:eb:dc:98:2a:6f:aa:4e:38:17:44:54:95:
                    a6:9a:7f:11:a7:6b:c6:4a:f6:43:3b:e6:53:ab:db:
                    73:11:69:cf:97:ae:52:77:81:16:50:e9:05:d8:c1:
                    a2:63:78:e2:1b:b2:79:bc:17:99:3f:52:6f:03:70:
                    7b:11:c1:03:bd:2e:9d:26:ce:f4:49:6d:9f:b9:4b:
                    f6:3d:f3:54:60:1a:62:9e:dd
                Exponent: 65537 (0x10001)
        X509v3 extensions:
            X509v3 Basic Constraints: 
                CA:FALSE
            X509v3 Key Usage: 
                Digital Signature, Non Repudiation, Key Encipherment
            X509v3 Extended Key Usage: 
                pkkdcekuoid
            X509v3 Subject Key Identifier: 
                0D:55:8A:0A:BA:94:B0:62:75:21:A5:91:E2:D3:B1:A1:B7:90:4C:47
            X509v3 Subject Alternative Name: 
                othername:<unsupported>
    Signature Algorithm: sha256WithRSAEncryption
         06:4e:03:73:59:35:9b:49:bb:3e:e9:b0:55:b4:ab:9a:14:1c:
         74:c6:d1:60:2a:2c:15:4f:82:bd:f8:13:14:9f:d9:a3:33:f2:
         8d:9c:d2:6b:85:89:ee:70:4a:07:35:91:79:78:04:1d:84:e6:
         ae:db:a9:b1:b1:d5:33:bf:36:70:01:4e:b7:62:ce:ff:74:bf:
         2d:03:51:20:ed:95:98:d3:29:65:9b:75:25:db:17:43:d6:92:
         95:e6:82:fc:e4:99:5f:18:88:ad:9c:f7:a4:39:1a:f9:64:10:
         15:31:80:a2:53:2d:a3:44:8a:e6:dd:4a:93:3c:b6:cd:7a:82:
         bc:9b
-----BEGIN CERTIFICATE-----
MIICVDCCAb2gAwIBAgIBCTANBgkqhkiG9w0BAQsFADAqMRswGQYDVQQDDBJoeDUw
OSBUZXN0IFJvb3QgQ0ExCzAJBgNVBAYTAlNFMB4XDTE5MDkwNTE4MDQxNloXDTI5
MDkwMjE4MDQxNlowGzELMAkGA1UEBhMCU0UxDDAKBgNVBAMMA2tkYzCBnzANBgkq
hkiG9w0BAQEFAAOBjQAwgYkCgYEA2VNjdF1qFK7QVedV1Aic+uYCGKJrX30uApen
bvSf+YNYN5dNKjT27W1EHEt6UJbr3Jgqb6pOOBdEVJWmmn8Rp2vGSvZDO+ZTq9tz
EWnPl65Sd4EWUOkF2MGiY3jiG7J5vBeZP1JvA3B7EcEDvS6dJs70SW2fuUv2PfNU
YBpint0CAwEAAaOBmDCBlTAJBgNVHRMEAjAAMAsGA1UdDwQEAwIF4DASBgNVHSUE
CzAJBgcrBgEFAgMFMB0GA1UdDgQWBBQNVYoKupSwYnUhpZHi07Ght5BMRzBIBgNV
HREEQTA/oD0GBisGAQUCAqAzMDGgDRsLVEVTVC5INUwuU0WhIDAeoAMCAQGhFzAV
GwZrcmJ0Z3QbC1RFU1QuSDVMLlNFMA0GCSqGSIb3DQEBCwUAA4GBAAZOA3NZNZtJ
uz7psFW0q5oUHHTG0WAqLBVPgr34ExSf2aMz8o2c0muFie5wSgc1kXl4BB2E5q7b
qbGx1TO/NnABTrdizv90vy0DUSDtlZjTKWWbdSXbF0PWkpXmgvzkmV8YiK2c96Q5
GvlkEBUxgKJTLaNEiubdSpM8ts16gryb
-----END CERTIFICATE-----
