Certificate:
    Data:
        Version: 3 (0x2)
        Serial Number: 1 (0x1)
    Signature Algorithm: sha256WithRSAEncryption
        Issuer: CN=hx509 Test Root CA, C=SE
        Validity
            Not Before: Sep  5 18:04:15 2019 GMT
            Not After : Sep  2 18:04:15 2029 GMT
        Subject: C=SE, CN=OCSP responder
        Subject Public Key Info:
            Public Key Algorithm: rsaEncryption
                Public-Key: (1024 bit)
                Modulus:
                    00:c2:2b:75:29:b3:6b:6f:53:2b:e9:02:1d:86:0d:
                    88:b1:90:42:ab:e2:c8:a5:4c:2a:85:d7:b9:6b:1a:
                    a8:ae:34:9a:f7:3a:55:fa:6a:74:a1:8d:f2:07:46:
                    da:89:a2:70:37:17:ab:04:32:ca:f0:eb:13:14:ed:
                    27:c1:03:b5:42:b6:f9:c4:07:56:f6:56:7d:3f:3b:
                    c0:8f:25:e0:74:62:6e:16:f4:07:0d:30:bc:62:be:
                    85:11:04:80:d4:da:b2:22:c5:e6:97:09:20:01:d0:
                    07:dc:41:38:99:ed:c7:18:03:be:bb:69:9b:a7:d1:
                    cc:f1:1b:5e:00:b0:a0:91:0f
                Exponent: 65537 (0x10001)
        X509v3 extensions:
            X509v3 Basic Constraints: 
                CA:FALSE
            X509v3 Key Usage: 
                Digital Signature, Non Repudiation, Key Encipherment
            X509v3 Extended Key Usage: 
                OCSP No Check, OCSP Signing
            X509v3 Subject Key Identifier: 
                91:2C:7F:2B:A8:D8:90:E0:B1:55:F8:5A:C4:11:09:49:59:EF:D4:1A
    Signature Algorithm: sha256WithRSAEncryption
         7b:19:8b:8b:9e:5d:c4:39:a6:2e:87:44:57:6a:46:db:66:36:
         bc:82:29:75:47:3d:83:62:09:a3:c1:0a:f2:29:8e:22:77:0f:
         e6:f2:36:c7:8a:21:64:f5:c0:57:c6:5e:c8:b4:58:3a:2d:ec:
         a6:b6:2c:89:6a:6e:c6:5d:74:d4:8a:6e:30:81:22:05:87:e8:
         52:3a:17:80:96:07:4c:5a:4f:a6:a2:88:0a:ba:e7:c1:50:7a:
         a2:34:2f:5e:5d:e2:c6:61:d4:fd:45:62:51:1e:13:02:10:a1:
         68:f4:cb:cc:38:18:6c:a8:fb:0f:ac:3c:8e:92:e9:e9:e6:6f:
         a9:80
-----BEGIN CERTIFICATE-----
MIICHzCCAYigAwIBAgIBATANBgkqhkiG9w0BAQsFADAqMRswGQYDVQQDDBJoeDUw
OSBUZXN0IFJvb3QgQ0ExCzAJBgNVBAYTAlNFMB4XDTE5MDkwNTE4MDQxNVoXDTI5
MDkwMjE4MDQxNVowJjELMAkGA1UEBhMCU0UxFzAVBgNVBAMMDk9DU1AgcmVzcG9u
ZGVyMIGfMA0GCSqGSIb3DQEBAQUAA4GNADCBiQKBgQDCK3Ups2tvUyvpAh2GDYix
kEKr4silTCqF17lrGqiuNJr3OlX6anShjfIHRtqJonA3F6sEMsrw6xMU7SfBA7VC
tvnEB1b2Vn0/O8CPJeB0Ym4W9AcNMLxivoURBIDU2rIixeaXCSAB0AfcQTiZ7ccY
A767aZun0czxG14AsKCRDwIDAQABo1kwVzAJBgNVHRMEAjAAMAsGA1UdDwQEAwIF
4DAeBgNVHSUEFzAVBgkrBgEFBQcwAQUGCCsGAQUFBwMJMB0GA1UdDgQWBBSRLH8r
qNiQ4LFV+FrEEQlJWe/UGjANBgkqhkiG9w0BAQsFAAOBgQB7GYuLnl3EOaYuh0RX
akbbZja8gil1Rz2DYgmjwQryKY4idw/m8jbHiiFk9cBXxl7ItFg6LeymtiyJam7G
XXTUim4wgSIFh+hSOheAlgdMWk+moogKuufBUHqiNC9eXeLGYdT9RWJRHhMCEKFo
9MvMOBhsqPsPrDyOkunp5m+pgA==
-----END CERTIFICATE-----
