Certificate:
    Data:
        Version: 3 (0x2)
        Serial Number: 7 (0x7)
    Signature Algorithm: sha256WithRSAEncryption
        Issuer: CN=hx509 Test Root CA, C=SE
        Validity
            Not Before: Sep  5 18:04:16 2019 GMT
            Not After : Sep  2 18:04:16 2029 GMT
        Subject: C=SE, CN=pkinit
        Subject Public Key Info:
            Public Key Algorithm: rsaEncryption
                Public-Key: (1024 bit)
                Modulus:
                    00:b4:79:fc:04:36:fe:61:4c:a1:0b:50:19:d5:a6:
                    a0:4d:72:5d:e7:9b:ae:ba:57:d4:24:ba:14:a8:e4:
                    1f:8d:41:92:7c:b8:12:a1:94:dd:2f:32:db:fa:27:
                    e9:45:5c:22:94:dc:d6:6a:6c:59:82:e8:92:6b:e5:
                    ba:61:19:8c:29:9b:fc:fd:cc:01:ae:9c:f8:71:96:
                    83:6a:2c:f2:41:a6:b3:01:49:ad:e8:56:b1:2d:4c:
                    aa:55:aa:82:d5:2c:50:6e:51:55:32:1d:30:81:9c:
                    76:78:e2:51:7a:f6:71:7d:a6:2c:d6:f9:22:71:1d:
                    d0:af:4b:fe:ee:56:7f:7d:75
                Exponent: 65537 (0x10001)
        X509v3 extensions:
            X509v3 Basic Constraints: 
                CA:FALSE
            X509v3 Key Usage: 
                Digital Signature, Non Repudiation, Key Encipherment
            X509v3 Subject Key Identifier: 
                FE:41:D6:96:48:C2:E6:6D:F4:A0:B1:62:ED:F2:29:78:61:89:F2:A1
            X509v3 Subject Alternative Name: 
                othername:<unsupported>
    Signature Algorithm: sha256WithRSAEncryption
         12:c2:0f:f1:99:cb:cd:99:89:d3:13:5f:39:b5:d1:f8:1b:8d:
         87:e4:29:87:57:a7:d3:5b:dd:42:c3:f7:97:40:b9:02:38:28:
         29:0c:30:49:53:ce:20:8f:68:22:00:ba:9b:d0:53:78:d9:8d:
         41:13:35:44:35:29:0a:68:b1:4a:5b:90:81:e5:60:b3:06:9a:
         61:67:48:ea:72:e7:4d:48:0b:34:eb:66:7d:e1:a3:7d:c0:27:
         9c:30:94:ec:84:a8:d2:d9:1e:3d:d7:2b:0b:03:43:89:4b:7d:
         b2:0b:5d:6c:f1:4e:98:26:10:6c:37:54:0e:9f:eb:70:8c:18:
         b6:a4
-----BEGIN CERTIFICATE-----
MIICMTCCAZqgAwIBAgIBBzANBgkqhkiG9w0BAQsFADAqMRswGQYDVQQDDBJoeDUw
OSBUZXN0IFJvb3QgQ0ExCzAJBgNVBAYTAlNFMB4XDTE5MDkwNTE4MDQxNloXDTI5
MDkwMjE4MDQxNlowHjELMAkGA1UEBhMCU0UxDzANBgNVBAMMBnBraW5pdDCBnzAN
BgkqhkiG9w0BAQEFAAOBjQAwgYkCgYEAtHn8BDb+YUyhC1AZ1aagTXJd55uuulfU
JLoUqOQfjUGSfLgSoZTdLzLb+ifpRVwilNzWamxZguiSa+W6YRmMKZv8/cwBrpz4
cZaDaizyQaazAUmt6FaxLUyqVaqC1SxQblFVMh0wgZx2eOJRevZxfaYs1vkicR3Q
r0v+7lZ/fXUCAwEAAaNzMHEwCQYDVR0TBAIwADALBgNVHQ8EBAMCBeAwHQYDVR0O
BBYEFP5B1pZIwuZt9KCxYu3yKXhhifKhMDgGA1UdEQQxMC+gLQYGKwYBBQICoCMw
IaANGwtURVNULkg1TC5TRaEQMA6gAwIBAaEHMAUbA2JhcjANBgkqhkiG9w0BAQsF
AAOBgQASwg/xmcvNmYnTE185tdH4G42H5CmHV6fTW91Cw/eXQLkCOCgpDDBJU84g
j2giALqb0FN42Y1BEzVENSkKaLFKW5CB5WCzBpphZ0jqcudNSAs062Z94aN9wCec
MJTshKjS2R491ysLA0OJS32yC11s8U6YJhBsN1QOn+twjBi2pA==
-----END CERTIFICATE-----
