Certificate:
    Data:
        Version: 3 (0x2)
        Serial Number: 8 (0x8)
    Signature Algorithm: sha256WithRSAEncryption
        Issuer: CN=hx509 Test Root CA, C=SE
        Validity
            Not Before: Sep  5 18:04:16 2019 GMT
            Not After : Sep  2 18:04:16 2029 GMT
        Subject: C=SE, CN=pkinit-ec
        Subject Public Key Info:
            Public Key Algorithm: id-ecPublicKey
                Public-Key: (256 bit)
                pub: 
                    04:36:52:b3:a0:b8:d6:45:94:01:17:f5:9c:ce:27:
                    a3:f4:00:d9:3c:4f:c8:da:64:76:dc:2d:f6:c4:f7:
                    38:54:cf:55:b9:37:9b:e6:37:74:94:e3:59:20:ca:
                    7c:6b:ad:d3:50:70:57:f6:64:22:9d:f9:8b:dc:8b:
                    5a:7d:d1:e0:a8
                ASN1 OID: prime256v1
                NIST CURVE: P-256
        X509v3 extensions:
            X509v3 Basic Constraints: 
                CA:FALSE
            X509v3 Key Usage: 
                Digital Signature, Non Repudiation, Key Encipherment
            X509v3 Subject Key Identifier: 
                CC:D9:76:F5:DE:1F:CA:BF:9C:27:70:C2:97:29:7B:2F:FD:BE:24:C4
            X509v3 Subject Alternative Name: 
                othername:<unsupported>
    Signature Algorithm: sha256WithRSAEncryption
         4f:68:f5:07:22:28:48:01:fe:d2:b5:68:98:a0:22:dc:24:1a:
         2a:c0:68:ad:78:60:e1:9c:1e:b0:0d:37:49:3d:49:32:45:91:
         bf:4c:09:b6:b0:8f:1c:3b:25:f3:ff:a3:cb:51:ac:63:5f:7d:
         b0:2d:fa:96:b6:74:90:90:13:51:06:0f:cb:e0:26:3e:8d:5c:
         05:a3:23:42:04:f1:92:5a:8a:d7:35:70:95:3f:af:af:b4:c1:
         34:6d:60:d6:1b:ee:da:fc:0b:60:92:5c:e3:d5:aa:dd:2c:3c:
         a9:b3:ee:8f:83:42:f7:c3:c2:16:66:04:6f:9e:24:9a:a9:bf:
         39:2a
-----BEGIN CERTIFICATE-----
MIIB7TCCAVagAwIBAgIBCDANBgkqhkiG9w0BAQsFADAqMRswGQYDVQQDDBJoeDUw
OSBUZXN0IFJvb3QgQ0ExCzAJBgNVBAYTAlNFMB4XDTE5MDkwNTE4MDQxNloXDTI5
MDkwMjE4MDQxNlowITELMAkGA1UEBhMCU0UxEjAQBgNVBAMMCXBraW5pdC1lYzBZ
MBMGByqGSM49AgEGCCqGSM49AwEHA0IABDZSs6C41kWUARf1nM4no/QA2TxPyNpk
dtwt9sT3OFTPVbk3m+Y3dJTjWSDKfGut01BwV/ZkIp35i9yLWn3R4KijczBxMAkG
A1UdEwQCMAAwCwYDVR0PBAQDAgXgMB0GA1UdDgQWBBTM2Xb13h/Kv5wncMKXKXsv
/b4kxDA4BgNVHREEMTAvoC0GBisGAQUCAqAjMCGgDRsLVEVTVC5INUwuU0WhEDAO
oAMCAQGhBzAFGwNiYXIwDQYJKoZIhvcNAQELBQADgYEAT2j1ByIoSAH+0rVomKAi
3CQaKsBorXhg4ZwesA03ST1JMkWRv0wJtrCPHDsl8/+jy1GsY199sC36lrZ0kJAT
UQYPy+AmPo1cBaMjQgTxklqK1zVwlT+vr7TBNG1g1hvu2vwLYJJc49Wq3Sw8qbPu
j4NC98PCFmYEb54kmqm/OSo=
-----END CERTIFICATE-----
