Certificate:
    Data:
        Version: 3 (0x2)
        Serial Number: 4 (0x4)
    Signature Algorithm: sha256WithRSAEncryption
        Issuer: CN=hx509 Test Root CA, C=SE
        Validity
            Not Before: Sep  5 18:04:16 2019 GMT
            Not After : Sep  2 18:04:16 2029 GMT
        Subject: C=SE, CN=Revoke cert
        Subject Public Key Info:
            Public Key Algorithm: rsaEncryption
                Public-Key: (1024 bit)
                Modulus:
                    00:99:08:e8:23:81:b5:2a:a7:5a:26:f5:5e:09:00:
                    b4:28:08:5c:07:d3:df:8b:4d:c7:c9:a5:cd:cd:29:
                    a4:27:44:70:52:e8:f0:3d:f0:b3:d7:4c:1a:a0:fd:
                    b7:5e:bf:35:a9:df:f1:db:30:40:3b:ee:9f:ab:f6:
                    cd:1e:01:4b:bc:cd:f1:b1:32:58:64:00:06:26:0d:
                    6a:b1:bf:c0:65:53:1f:56:68:f4:cd:72:a4:04:02:
                    12:4a:12:35:f0:c9:e3:eb:78:e7:97:bf:59:e4:dc:
                    17:c9:63:82:7c:17:7e:5d:ac:5c:2e:d9:77:28:d2:
                    d2:35:a2:c5:e6:8c:ea:b0:e7
                Exponent: 65537 (0x10001)
        X509v3 extensions:
            X509v3 Basic Constraints: 
                CA:FALSE
            X509v3 Key Usage: 
                Digital Signature, Non Repudiation, Key Encipherment
            X509v3 Subject Key Identifier: 
                9F:99:BF:D6:34:AC:6D:7B:2F:B7:EB:D7:21:55:19:FD:F3:E1:5F:56
    Signature Algorithm: sha256WithRSAEncryption
         5b:50:1a:ed:5c:b6:34:c7:dd:04:00:16:77:b3:f2:00:4b:b7:
         4a:8f:0e:33:82:7f:67:f0:16:1a:ac:d6:da:45:4e:e6:6f:38:
         fc:b6:bd:71:6e:97:5b:00:ff:50:50:e7:39:7d:86:06:8d:2f:
         39:e8:0f:36:c8:d4:7f:6b:35:3c:0d:b5:5d:18:20:36:45:50:
         4c:6e:55:3d:d0:b1:c2:78:89:d4:ac:fb:63:1a:d2:09:0b:b5:
         b7:21:14:2f:e5:cd:5e:01:85:1a:9e:ca:0a:d5:5f:42:41:c3:
         49:c1:67:cf:ce:d3:bf:d3:80:5d:af:b6:ad:03:da:0a:4e:f7:
         f1:1c
-----BEGIN CERTIFICATE-----
MIIB/DCCAWWgAwIBAgIBBDANBgkqhkiG9w0BAQsFADAqMRswGQYDVQQDDBJoeDUw
OSBUZXN0IFJvb3QgQ0ExCzAJBgNVBAYTAlNFMB4XDTE5MDkwNTE4MDQxNloXDTI5
MDkwMjE4MDQxNlowIzELMAkGA1UEBhMCU0UxFDASBgNVBAMMC1Jldm9rZSBjZXJ0
MIGfMA0GCSqGSIb3DQEBAQUAA4GNADCBiQKBgQCZCOgjgbUqp1om9V4JALQoCFwH
09+LTcfJpc3NKaQnRHBS6PA98LPXTBqg/bdevzWp3/HbMEA77p+r9s0eAUu8zfGx
MlhkAAYmDWqxv8BlUx9WaPTNcqQEAhJKEjXwyePreOeXv1nk3BfJY4J8F35drFwu
2Xco0tI1osXmjOqw5wIDAQABozkwNzAJBgNVHRMEAjAAMAsGA1UdDwQEAwIF4DAd
BgNVHQ4EFgQUn5m/1jSsbXsvt+vXIVUZ/fPhX1YwDQYJKoZIhvcNAQELBQADgYEA
W1Aa7Vy2NMfdBAAWd7PyAEu3So8OM4J/Z/AWGqzW2kVO5m84/La9cW6XWwD/UFDn
OX2GBo0vOegPNsjUf2s1PA21XRggNkVQTG5VPdCxwniJ1Kz7YxrSCQu1tyEUL+XN
XgGFGp7KCtVfQkHDScFnz87Tv9OAXa+2rQPaCk738Rw=
-----END CERTIFICATE-----
