Certificate:
    Data:
        Version: 3 (0x2)
        Serial Number: 11 (0xb)
    Signature Algorithm: sha256WithRSAEncryption
        Issuer: CN=hx509 Test Root CA, C=SE
        Validity
            Not Before: Sep  5 18:04:16 2019 GMT
            Not After : Sep  2 18:04:16 2029 GMT
        Subject: C=SE, CN=Sub CA
        Subject Public Key Info:
            Public Key Algorithm: rsaEncryption
                Public-Key: (1024 bit)
                Modulus:
                    00:ba:14:c6:e8:5d:05:c1:3e:e2:a3:23:35:46:05:
                    c8:56:0c:77:4c:35:f7:38:99:44:ef:d7:fb:b0:a9:
                    99:15:5d:84:95:59:fc:9f:e5:b4:83:78:55:24:11:
                    b2:4e:3c:06:cd:17:b0:f0:73:a7:f1:12:e6:44:92:
                    23:f1:16:05:ab:c8:f1:27:da:cc:95:16:21:2d:87:
                    9e:5b:62:b8:35:0d:7e:54:52:eb:b4:85:15:81:6f:
                    ff:4b:9f:ca:2a:22:dc:29:c0:14:d0:af:d9:58:3e:
                    94:2c:2b:86:88:58:87:a0:99:4a:86:51:1f:47:9a:
                    cf:c2:f7:44:2f:11:64:af:ed
                Exponent: 65537 (0x10001)
        X509v3 extensions:
            X509v3 Subject Key Identifier: 
                5D:CD:91:5A:14:A3:68:95:72:45:2B:11:4B:8C:1A:0E:C1:D4:7B:B0
            X509v3 Authority Key Identifier: 
                keyid:80:7A:0A:04:06:11:6F:C6:DC:57:1B:05:36:02:3F:65:B0:CE:E3:EE
                DirName:/CN=hx509 Test Root CA/C=SE
                serial:8E:17:FE:6D:99:20:AC:B6

            X509v3 Basic Constraints: 
                CA:TRUE
            X509v3 Key Usage: 
                Digital Signature, Non Repudiation, Key Encipherment, Certificate Sign, CRL Sign
    Signature Algorithm: sha256WithRSAEncryption
         34:12:1e:47:25:41:28:19:59:f5:a5:a6:88:99:57:38:e4:e3:
         72:53:93:d9:44:5b:47:40:24:d0:c9:fd:21:43:12:91:3e:0b:
         52:1c:e6:86:cf:1a:15:3f:18:c0:66:c2:32:6b:f9:fd:6e:64:
         79:d2:e9:0a:66:2b:95:c4:39:60:c7:c7:23:84:a9:71:74:5c:
         da:ef:c0:95:62:18:5c:47:ef:98:1c:a1:8f:05:d5:75:db:35:
         ce:f9:79:74:dd:d0:f4:23:9c:5e:69:a0:46:47:f9:ab:db:50:
         fb:e0:ab:17:7c:76:bd:ad:b6:64:1c:54:78:b6:de:e4:f7:77:
         41:a6
-----BEGIN CERTIFICATE-----
MIICWDCCAcGgAwIBAgIBCzANBgkqhkiG9w0BAQsFADAqMRswGQYDVQQDDBJoeDUw
OSBUZXN0IFJvb3QgQ0ExCzAJBgNVBAYTAlNFMB4XDTE5MDkwNTE4MDQxNloXDTI5
MDkwMjE4MDQxNlowHjELMAkGA1UEBhMCU0UxDzANBgNVBAMMBlN1YiBDQTCBnzAN
BgkqhkiG9w0BAQEFAAOBjQAwgYkCgYEAuhTG6F0FwT7ioyM1RgXIVgx3TDX3OJlE
79f7sKmZFV2ElVn8n+W0g3hVJBGyTjwGzRew8HOn8RLmRJIj8RYFq8jxJ9rMlRYh
LYeeW2K4NQ1+VFLrtIUVgW//S5/KKiLcKcAU0K/ZWD6ULCuGiFiHoJlKhlEfR5rP
wvdELxFkr+0CAwEAAaOBmTCBljAdBgNVHQ4EFgQUXc2RWhSjaJVyRSsRS4waDsHU
e7AwWgYDVR0jBFMwUYAUgHoKBAYRb8bcVxsFNgI/ZbDO4+6hLqQsMCoxGzAZBgNV
BAMMEmh4NTA5IFRlc3QgUm9vdCBDQTELMAkGA1UEBhMCU0WCCQCOF/5tmSCstjAM
BgNVHRMEBTADAQH/MAsGA1UdDwQEAwIB5jANBgkqhkiG9w0BAQsFAAOBgQA0Eh5H
JUEoGVn1paaImVc45ONyU5PZRFtHQCTQyf0hQxKRPgtSHOaGzxoVPxjAZsIya/n9
bmR50ukKZiuVxDlgx8cjhKlxdFza78CVYhhcR++YHKGPBdV12zXO+Xl03dD0I5xe
aaBGR/mr21D74KsXfHa9rbZkHFR4tt7k93dBpg==
-----END CERTIFICATE-----
