Certificate:
    Data:
        Version: 3 (0x2)
        Serial Number: 12 (0xc)
    Signature Algorithm: sha256WithRSAEncryption
        Issuer: C=SE, CN=Sub CA
        Validity
            Not Before: Sep  5 18:04:16 2019 GMT
            Not After : Sep  2 18:04:16 2029 GMT
        Subject: C=SE, CN=Test sub cert
        Subject Public Key Info:
            Public Key Algorithm: rsaEncryption
                Public-Key: (1024 bit)
                Modulus:
                    00:ec:0b:be:bc:c4:a6:29:b8:86:ef:26:88:02:69:
                    67:cc:21:2f:3b:c0:d7:db:0b:19:f2:77:5a:87:71:
                    a5:60:21:57:0f:9e:6d:ea:0a:a8:7e:5f:a5:3e:d6:
                    9f:01:f6:0c:00:a7:90:5a:7a:74:9f:81:1e:5c:0e:
                    bf:32:53:c4:83:90:fe:76:8d:17:6e:36:43:14:a9:
                    58:e1:7e:3a:b9:9c:63:b7:9d:42:63:b8:b0:07:cb:
                    b6:3e:9e:cf:fd:03:9a:81:ca:53:fd:f0:f6:c9:b4:
                    a8:14:a5:eb:7a:bd:46:c6:ca:47:16:f0:e1:b0:4b:
                    8a:0d:45:0a:f0:b9:0c:9b:1b
                Exponent: 65537 (0x10001)
        X509v3 extensions:
            X509v3 Basic Constraints: 
                CA:FALSE
            X509v3 Key Usage: 
                Digital Signature, Non Repudiation, Key Encipherment
            X509v3 Subject Key Identifier: 
                46:C5:58:87:E4:E4:BC:F2:3F:7D:1C:2A:9A:44:D0:08:6E:E3:13:FC
    Signature Algorithm: sha256WithRSAEncryption
         8f:61:84:fa:94:b9:02:ff:88:a8:cd:2d:2e:b8:f7:62:bb:56:
         e8:58:8f:a3:22:e2:34:0e:d4:a0:f9:4f:d9:f7:31:96:81:d8:
         de:54:e4:2b:6b:b0:c9:97:41:d7:b6:a3:65:3f:3f:60:f6:2c:
         5b:65:19:81:ad:e7:8e:60:19:45:17:3d:30:b9:31:fc:99:ee:
         5e:40:db:ac:9d:f0:a2:02:28:7c:a2:aa:fd:4d:de:cc:16:c5:
         31:1c:c6:5d:57:ad:6b:ff:f0:46:ce:a1:d0:68:eb:db:f4:80:
         77:73:d1:24:de:d5:48:82:68:19:af:44:dc:6f:45:27:97:71:
         df:6b
-----BEGIN CERTIFICATE-----
MIIB8jCCAVugAwIBAgIBDDANBgkqhkiG9w0BAQsFADAeMQswCQYDVQQGEwJTRTEP
MA0GA1UEAwwGU3ViIENBMB4XDTE5MDkwNTE4MDQxNloXDTI5MDkwMjE4MDQxNlow
JTELMAkGA1UEBhMCU0UxFjAUBgNVBAMMDVRlc3Qgc3ViIGNlcnQwgZ8wDQYJKoZI
hvcNAQEBBQADgY0AMIGJAoGBAOwLvrzEpim4hu8miAJpZ8whLzvA19sLGfJ3Wodx
pWAhVw+ebeoKqH5fpT7WnwH2DACnkFp6dJ+BHlwOvzJTxIOQ/naNF242QxSpWOF+
OrmcY7edQmO4sAfLtj6ez/0DmoHKU/3w9sm0qBSl63q9RsbKRxbw4bBLig1FCvC5
DJsbAgMBAAGjOTA3MAkGA1UdEwQCMAAwCwYDVR0PBAQDAgXgMB0GA1UdDgQWBBRG
xViH5OS88j99HCqaRNAIbuMT/DANBgkqhkiG9w0BAQsFAAOBgQCPYYT6lLkC/4io
zS0uuPdiu1boWI+jIuI0DtSg+U/Z9zGWgdjeVOQra7DJl0HXtqNlPz9g9ixbZRmB
reeOYBlFFz0wuTH8me5eQNusnfCiAih8oqr9Td7MFsUxHMZdV61r//BGzqHQaOvb
9IB3c9Ek3tVIgmgZr0Tcb0Unl3Hfaw==
-----END CERTIFICATE-----
