Certificate:
    Data:
        Version: 3 (0x2)
        Serial Number: 5 (0x5)
    Signature Algorithm: sha256WithRSAEncryption
        Issuer: CN=hx509 Test Root CA, C=SE
        Validity
            Not Before: Sep  5 18:04:16 2019 GMT
            Not After : Sep  2 18:04:16 2029 GMT
        Subject: C=SE, CN=Test cert KeyEncipherment
        Subject Public Key Info:
            Public Key Algorithm: rsaEncryption
                Public-Key: (1024 bit)
                Modulus:
                    00:a7:8a:4a:29:3a:f5:f8:b3:e3:b9:0d:07:29:55:
                    fd:4f:65:0c:13:29:81:f7:e9:89:01:56:fc:bb:77:
                    95:a7:08:d8:c3:e0:46:03:f0:88:6c:77:93:31:5f:
                    d3:88:86:70:ff:c9:c7:6f:41:be:4d:38:ee:96:f6:
                    d2:70:0d:f8:6c:cc:2e:a4:4d:7c:74:72:ba:ee:46:
                    3d:17:89:fb:8d:88:92:5d:b3:9f:56:4c:bd:c8:ca:
                    cd:27:2e:0a:1f:e5:d3:ef:45:ee:32:68:ca:fb:16:
                    e3:eb:d4:98:95:fd:63:89:ff:18:56:44:ca:07:b4:
                    09:32:e9:88:8b:40:2c:04:d7
                Exponent: 65537 (0x10001)
        X509v3 extensions:
            X509v3 Basic Constraints: 
                CA:FALSE
            X509v3 Key Usage: 
                Non Repudiation, Key Encipherment
            X509v3 Subject Key Identifier: 
                52:3B:F5:42:9D:76:9E:99:98:82:B5:6F:C8:AC:0C:F1:BB:4D:64:4D
    Signature Algorithm: sha256WithRSAEncryption
         56:61:e8:d0:9a:35:53:c0:c8:d7:b1:54:b6:dc:a9:c3:3b:d1:
         1a:e4:c9:07:30:56:ed:8f:79:fa:45:d2:dc:ee:91:9d:90:2c:
         7f:b8:e0:67:eb:58:82:97:c6:74:fe:60:a7:e9:b7:c5:51:58:
         ef:e2:11:38:cb:1c:a9:4a:49:4a:7e:eb:29:17:ff:96:37:2e:
         13:1a:eb:4a:02:65:b8:2b:24:8a:9a:d4:43:5f:15:69:70:06:
         94:83:32:2c:65:c3:79:4b:a6:a9:f8:a7:70:07:be:16:6d:3e:
         85:5b:66:34:94:ab:1d:9b:e0:7f:d7:df:7b:fb:82:22:68:6d:
         a8:db
-----BEGIN CERTIFICATE-----
MIICCjCCAXOgAwIBAgIBBTANBgkqhkiG9w0BAQsFADAqMRswGQYDVQQDDBJoeDUw
OSBUZXN0IFJvb3QgQ0ExCzAJBgNVBAYTAlNFMB4XDTE5MDkwNTE4MDQxNloXDTI5
MDkwMjE4MDQxNlowMTELMAkGA1UEBhMCU0UxIjAgBgNVBAMMGVRlc3QgY2VydCBL
ZXlFbmNpcGhlcm1lbnQwgZ8wDQYJKoZIhvcNAQEBBQADgY0AMIGJAoGBAKeKSik6
9fiz47kNBylV/U9lDBMpgffpiQFW/Lt3lacI2MPgRgPwiGx3kzFf04iGcP/Jx29B
vk047pb20nAN+GzMLqRNfHRyuu5GPReJ+42Ikl2zn1ZMvcjKzScuCh/l0+9F7jJo
yvsW4+vUmJX9Y4n/GFZEyge0CTLpiItALATXAgMBAAGjOTA3MAkGA1UdEwQCMAAw
CwYDVR0PBAQDAgVgMB0GA1UdDgQWBBRSO/VCnXaemZiCtW/IrAzxu01kTTANBgkq
hkiG9w0BAQsFAAOBgQBWYejQmjVTwMjXsVS23KnDO9Ea5MkHMFbtj3n6RdLc7pGd
kCx/uOBn61iCl8Z0/mCn6bfFUVjv4hE4yxypSklKfuspF/+WNy4TGutKAmW4KySK
mtRDXxVpcAaUgzIsZcN5S6ap+KdwB74WbT6FW2Y0lKsdm+B/1997+4IiaG2o2w==
-----END CERTIFICATE-----
