__ZN33IOSCSIParallelInterfaceController10gMetaClassE
__ZN33IOSCSIParallelInterfaceController10handleOpenEP9IOServicejPv
__ZN33IOSCSIParallelInterfaceController10superClassE
__ZN33IOSCSIParallelInterfaceController11GetProviderEv
__ZN33IOSCSIParallelInterfaceController11handleCloseEP9IOServicej
__ZN33IOSCSIParallelInterfaceController12didTerminateEP9IOServicejPb
__ZN33IOSCSIParallelInterfaceController13GetDMACommandEP8OSObject
__ZN33IOSCSIParallelInterfaceController13GetDataBufferEP8OSObject
__ZN33IOSCSIParallelInterfaceController13HandleTimeoutEP8OSObject
__ZN33IOSCSIParallelInterfaceController13willTerminateEP9IOServicej
__ZN33IOSCSIParallelInterfaceController14CreateWorkLoopEP9IOService
__ZN33IOSCSIParallelInterfaceController14GetCommandGateEv
__ZN33IOSCSIParallelInterfaceController14GetHBADataSizeEP8OSObject
__ZN33IOSCSIParallelInterfaceController14GetTargetForIDEy
__ZN33IOSCSIParallelInterfaceController14ResumeServicesEv
__ZN33IOSCSIParallelInterfaceController14SetHBAPropertyEPKcP8OSObject
__ZN33IOSCSIParallelInterfaceController15EnableInterruptEv
__ZN33IOSCSIParallelInterfaceController15FilterInterruptEP8OSObjectP28IOFilterInterruptEventSource
__ZN33IOSCSIParallelInterfaceController15ReleaseWorkLoopEv
__ZN33IOSCSIParallelInterfaceController15SignalInterruptEv
__ZN33IOSCSIParallelInterfaceController15SuspendServicesEv
__ZN33IOSCSIParallelInterfaceController15TimeoutOccurredEP8OSObjectP18IOTimerEventSource
__ZN33IOSCSIParallelInterfaceController16CompleteClearACAEyy19SCSIServiceResponse
__ZN33IOSCSIParallelInterfaceController16DisableInterruptEv
__ZN33IOSCSIParallelInterfaceController16GetAutoSenseDataEP8OSObjectP15SCSI_Sense_Datah
__ZN33IOSCSIParallelInterfaceController16GetTaskAttributeEP8OSObject
__ZN33IOSCSIParallelInterfaceController16ServiceInterruptEP8OSObjectP22IOInterruptEventSourcei
__ZN33IOSCSIParallelInterfaceController16SetAutoSenseDataEP8OSObjectP15SCSI_Sense_Datah
__ZN33IOSCSIParallelInterfaceController17CompleteAbortTaskEyyy19SCSIServiceResponse
__ZN33IOSCSIParallelInterfaceController17CreateTargetForIDEy
__ZN33IOSCSIParallelInterfaceController17CreateTargetForIDEyP12OSDictionary
__ZN33IOSCSIParallelInterfaceController17GetHBADataPointerEP8OSObject
__ZN33IOSCSIParallelInterfaceController17RemoveHBAPropertyEPKc
__ZN33IOSCSIParallelInterfaceController17SetTargetPropertyEyPKcP8OSObject
__ZN33IOSCSIParallelInterfaceController17SetTimeoutForTaskEP8OSObjectj
__ZN33IOSCSIParallelInterfaceController18DestroyTargetForIDEy
__ZN33IOSCSIParallelInterfaceController18FindTaskForAddressEyyy
__ZN33IOSCSIParallelInterfaceController18GetTimeoutDurationEP8OSObject
__ZN33IOSCSIParallelInterfaceController19CompleteTargetResetEy19SCSIServiceResponse
__ZN33IOSCSIParallelInterfaceController19ExecuteParallelTaskEP8OSObject
__ZN33IOSCSIParallelInterfaceController19GetDataBufferOffsetEP8OSObject
__ZN33IOSCSIParallelInterfaceController19GetLogicalUnitBytesEP8OSObjectPA8_h
__ZN33IOSCSIParallelInterfaceController19GetSCSIParallelTaskEb
__ZN33IOSCSIParallelInterfaceController19GetTargetIdentifierEP8OSObject
__ZN33IOSCSIParallelInterfaceController20CompleteAbortTaskSetEyy19SCSIServiceResponse
__ZN33IOSCSIParallelInterfaceController20CompleteClearTaskSetEyy19SCSIServiceResponse
__ZN33IOSCSIParallelInterfaceController20CompleteParallelTaskEP8OSObject14SCSITaskStatus19SCSIServiceResponse
__ZN33IOSCSIParallelInterfaceController20FreeSCSIParallelTaskEP8OSObject
__ZN33IOSCSIParallelInterfaceController20GetAutoSenseDataSizeEP8OSObject
__ZN33IOSCSIParallelInterfaceController20GetHBADataDescriptorEP8OSObject
__ZN33IOSCSIParallelInterfaceController20GetHBATargetDataSizeEy
__ZN33IOSCSIParallelInterfaceController20GetLogicalUnitNumberEP8OSObject
__ZN33IOSCSIParallelInterfaceController20InitializeDeviceListEv
__ZN33IOSCSIParallelInterfaceController20RemoveTargetPropertyEyPKc
__ZN33IOSCSIParallelInterfaceController20ReportHBAConstraintsEP12OSDictionary
__ZN33IOSCSIParallelInterfaceController21AddDeviceToTargetListEP29IOSCSIParallelInterfaceDevice
__ZN33IOSCSIParallelInterfaceController21CreateDeviceInterruptEPFvP8OSObjectP22IOInterruptEventSourceiEPFbS1_P28IOFilterInterruptEventSourceEP9IOService
__ZN33IOSCSIParallelInterfaceController21GetSCSITaskIdentifierEP8OSObject
__ZN33IOSCSIParallelInterfaceController22FilterInterruptRequestEv
__ZN33IOSCSIParallelInterfaceController23DoesHBAPerformAutoSenseEv
__ZN33IOSCSIParallelInterfaceController23GetHBATargetDataPointerEy
__ZN33IOSCSIParallelInterfaceController23GetSCSIDomainIdentifierEv
__ZN33IOSCSIParallelInterfaceController23GetTaggedTaskIdentifierEP8OSObject
__ZN33IOSCSIParallelInterfaceController23NotifyClientsOfBusResetEv
__ZN33IOSCSIParallelInterfaceController24CompleteLogicalUnitResetEyy19SCSIServiceResponse
__ZN33IOSCSIParallelInterfaceController24GetDataTransferDirectionEP8OSObject
__ZN33IOSCSIParallelInterfaceController24fSCSIParallelDomainCountE
__ZN33IOSCSIParallelInterfaceController25AllocateSCSIParallelTasksEv
__ZN33IOSCSIParallelInterfaceController25GetCommandDescriptorBlockEP8OSObjectPA16_h
__ZN33IOSCSIParallelInterfaceController26DoesHBASupportMultiPathingEv
__ZN33IOSCSIParallelInterfaceController26InitializeDMASpecificationEP12IODMACommand
__ZN33IOSCSIParallelInterfaceController26RemoveDeviceFromTargetListEP29IOSCSIParallelInterfaceDevice
__ZN33IOSCSIParallelInterfaceController27DeallocateSCSIParallelTasksEv
__ZN33IOSCSIParallelInterfaceController27GetControllerTaskIdentifierEP8OSObject
__ZN33IOSCSIParallelInterfaceController27SetControllerTaskIdentifierEP8OSObjecty
__ZN33IOSCSIParallelInterfaceController28GetRealizedDataTransferCountEP8OSObject
__ZN33IOSCSIParallelInterfaceController28SetRealizedDataTransferCountEP8OSObjecty
__ZN33IOSCSIParallelInterfaceController29GetCommandDescriptorBlockSizeEP8OSObject
__ZN33IOSCSIParallelInterfaceController29GetRequestedDataTransferCountEP8OSObject
__ZN33IOSCSIParallelInterfaceController31FindTaskForControllerIdentifierEyy
__ZN33IOSCSIParallelInterfaceController31NotifyClientsOfPortStatusChangeEj
__ZN33IOSCSIParallelInterfaceController33CompleteOutstandingTasksForTargetEP29IOSCSIParallelInterfaceDevice
__ZN33IOSCSIParallelInterfaceController33GetSCSIParallelFeatureNegotiationEP8OSObject19SCSIParallelFeature
__ZN33IOSCSIParallelInterfaceController34IncrementRealizedDataTransferCountEP8OSObjecty
__ZN33IOSCSIParallelInterfaceController35CompleteOutstandingTasksForTargetIDEy
__ZN33IOSCSIParallelInterfaceController38GetSCSIParallelFeatureNegotiationCountEP8OSObject
__ZN33IOSCSIParallelInterfaceController39GetSCSIParallelFeatureNegotiationResultEP8OSObject19SCSIParallelFeature
__ZN33IOSCSIParallelInterfaceController39SetSCSIParallelFeatureNegotiationResultEP8OSObject19SCSIParallelFeature25SCSIParallelFeatureResult
__ZN33IOSCSIParallelInterfaceController43_RESERVEDIOSCSIParallelInterfaceController4Ev
__ZN33IOSCSIParallelInterfaceController43_RESERVEDIOSCSIParallelInterfaceController5Ev
__ZN33IOSCSIParallelInterfaceController43_RESERVEDIOSCSIParallelInterfaceController6Ev
__ZN33IOSCSIParallelInterfaceController43_RESERVEDIOSCSIParallelInterfaceController7Ev
__ZN33IOSCSIParallelInterfaceController43_RESERVEDIOSCSIParallelInterfaceController8Ev
__ZN33IOSCSIParallelInterfaceController44GetSCSIParallelFeatureNegotiationResultCountEP8OSObject
__ZN33IOSCSIParallelInterfaceController44_RESERVEDIOSCSIParallelInterfaceController13Ev
__ZN33IOSCSIParallelInterfaceController44_RESERVEDIOSCSIParallelInterfaceController14Ev
__ZN33IOSCSIParallelInterfaceController44_RESERVEDIOSCSIParallelInterfaceController15Ev
__ZN33IOSCSIParallelInterfaceController44_RESERVEDIOSCSIParallelInterfaceController16Ev
__ZN33IOSCSIParallelInterfaceController4freeEv
__ZN33IOSCSIParallelInterfaceController4stopEP9IOService
__ZN33IOSCSIParallelInterfaceController5startEP9IOService
__ZN33IOSCSIParallelInterfaceController9MetaClassC1Ev
__ZN33IOSCSIParallelInterfaceController9MetaClassC2Ev
__ZN33IOSCSIParallelInterfaceController9metaClassE
__ZN33IOSCSIParallelInterfaceControllerC2EPK11OSMetaClass
__ZN33IOSCSIParallelInterfaceControllerD0Ev
__ZN33IOSCSIParallelInterfaceControllerD1Ev
__ZN33IOSCSIParallelInterfaceControllerD2Ev
__ZN33IOSCSIParallelInterfaceControllerdlEPvm
__ZN33IOSCSIParallelInterfaceControllernwEm
__ZNK33IOSCSIParallelInterfaceController11GetWorkLoopEv
__ZNK33IOSCSIParallelInterfaceController11getWorkLoopEv
__ZNK33IOSCSIParallelInterfaceController12getMetaClassEv
__ZNK33IOSCSIParallelInterfaceController12handleIsOpenEPK9IOService
__ZNK33IOSCSIParallelInterfaceController9MetaClass5allocEv
__ZTV33IOSCSIParallelInterfaceController
__ZTVN33IOSCSIParallelInterfaceController9MetaClassE
