_uloc_getLanguage
_uprv_asciitolower
_u_terminateChars
_uloc_getScript
_uloc_getCountry
_uprv_toupper
_uloc_getVariant
_uloc_openKeywords
_uenum_next
_uenum_close
_uloc_getDisplayLanguage
_ures_open
_uloc_getBaseName
_uprv_malloc
_umtx_lock
_umtx_init
_umtx_unlock
_uhash_open
_uloc_getDefault
__ZN3icu6Locale10getDefaultEv
_uprv_getDefaultLocaleID
_uloc_canonicalize
_uprv_min
__ZN3icu7UMemorynwEm
__ZN3icu6LocaleC1ENS0_11ELocaleTypeE
__ZN3icu6LocaleC2ENS0_11ELocaleTypeE
__ZN3icu6Locale10setToBogusEv
__ZN3icu6Locale4initEPKca
_uloc_getName
_uhash_get
_uhash_hashChars
_udata_openChoice
_u_getDataDirectory
_u_setDataDirectory
_uhash_setValueDeleter
_uhash_put
_udata_getMemory
_ures_initStackObject
_ures_getByKeyWithFallback
_ures_close
_ures_getStringByKeyWithFallback
_ures_getString
_uprv_free
_u_memcpy
_u_terminateUChars
_unum_open
__ZN3icu6LocaleC1EPKcS2_S2_S2_
__ZN3icu6LocaleC2EPKcS2_S2_S2_
__ZN3icu12NumberFormat14createInstanceERKNS_6LocaleER10UErrorCode
__ZN3icu12NumberFormat14createInstanceERKNS_6LocaleENS0_7EStylesER10UErrorCode
__ZN3icu12NumberFormat12makeInstanceERKNS_6LocaleENS0_7EStylesER10UErrorCode
__ZN3icu13UnicodeStringC1Ev
__ZN3icu13UnicodeStringC2Ev
_ures_getByKey
_ures_getSize
__ZN3icu20DecimalFormatSymbolsC1ERKNS_6LocaleER10UErrorCode
__ZN3icu20DecimalFormatSymbolsC2ERKNS_6LocaleER10UErrorCode
__ZN3icu6LocaleC1ERKS0_
__ZN3icu6LocaleC2ERKS0_
__ZN3icu6LocaleaSERKS0_
__ZN3icu20DecimalFormatSymbols10initializeERKNS_6LocaleER10UErrorCodea
_uhash_compareChars
_ures_getStringByIndex
__ZN3icu20DecimalFormatSymbols10initializeEPPKtPii
__ZN3icu13UnicodeString5setToEaPKti
__ZN3icu13UnicodeString12releaseArrayEv
__ZN3icu13UnicodeString9doReplaceEiiPKtii
__ZN3icu13UnicodeStringC1EPKt
__ZN3icu13UnicodeStringC2EPKt
_u_strlen
__ZN3icu13UnicodeStringaSERKS0_
__ZN3icu13UnicodeString8copyFromERKS0_a
__ZN3icu13UnicodeStringD1Ev
__ZN3icu13UnicodeStringD2Ev
__ZN3icu11ReplaceableD2Ev
__ZN3icu7UObjectD2Ev
__ZN3icu13UnicodeString8allocateEi
_ucurr_forLocale
_uloc_getKeywordValue
_ures_openDirect
_ures_getByIndex
_T_CString_integerToString
_ures_getStringByKey
_u_strcpy
_ucurr_getName
_u_UCharsToChars
_ures_getLocaleByType
__ZN3icu11LocaleBased12setLocaleIDsEPKcS2_
__ZN3icu13DecimalFormatC1ERKNS_13UnicodeStringEPNS_20DecimalFormatSymbolsER10UErrorCode
__ZN3icu13DecimalFormatC2ERKNS_13UnicodeStringEPNS_20DecimalFormatSymbolsER10UErrorCode
__ZN3icu12NumberFormatC2Ev
__ZN3icu6FormatC2Ev
__ZN3icu13DecimalFormat9constructER10UErrorCodeR11UParseErrorPKNS_13UnicodeStringEPNS_20DecimalFormatSymbolsE
__ZNK3icu13UnicodeString9doIndexOfEtii
_u_memchr
__ZN3icu13DecimalFormat11setCurrencyEPKtR10UErrorCode
__ZN3icu12NumberFormat11setCurrencyEPKtR10UErrorCode
__ZN3icu13DecimalFormat12applyPatternERKNS_13UnicodeStringEaR11UParseErrorR10UErrorCode
__ZN3icu13UnicodeStringC1Et
__ZN3icu13UnicodeStringC2Et
__ZNK3icu13UnicodeString9doCompareEiiPKtii
__ZN3icu13UnicodeStringC1ERKS0_
__ZN3icu13UnicodeStringC2ERKS0_
__ZN3icu13DecimalFormat23setMinimumIntegerDigitsEi
__ZN3icu12NumberFormat23setMinimumIntegerDigitsEi
_uprv_max
__ZN3icu13DecimalFormat23setMaximumIntegerDigitsEi
__ZN3icu12NumberFormat23setMaximumIntegerDigitsEi
__ZN3icu13DecimalFormat24setMaximumFractionDigitsEi
__ZN3icu12NumberFormat24setMaximumFractionDigitsEi
__ZN3icu13DecimalFormat24setMinimumFractionDigitsEi
__ZN3icu12NumberFormat24setMinimumFractionDigitsEi
__ZN3icu12NumberFormat15setGroupingUsedEa
__ZN3icu13DecimalFormat30setDecimalSeparatorAlwaysShownEa
__ZN3icu13DecimalFormat20setRoundingIncrementEd
__ZN3icu13UnicodeString9doReplaceEiiRKS0_ii
__ZN3icu13DecimalFormat13expandAffixesEv
__ZNK3icu13DecimalFormat11expandAffixERKNS_13UnicodeStringERS1_da
__ZN3icu6Format12setLocaleIDsEPKcS2_
__ZN3icu6LocaleD1Ev
__ZN3icu6LocaleD2Ev
_unum_toPattern
__ZN3icu13UnicodeString5setToEPtii
__ZNK3icu13DecimalFormat17getDynamicClassIDEv
__ZN3icu13DecimalFormat16getStaticClassIDEv
__ZNK3icu13DecimalFormat9toPatternERNS_13UnicodeStringE
__ZNK3icu13DecimalFormat9toPatternERNS_13UnicodeStringEa
__ZNK3icu13DecimalFormat18appendAffixPatternERNS_13UnicodeStringEPKS1_RS3_a
__ZNK3icu12NumberFormat14isGroupingUsedEv
__ZNK3icu12NumberFormat23getMinimumIntegerDigitsEv
__ZNK3icu12NumberFormat23getMaximumIntegerDigitsEv
__ZNK3icu13DecimalFormat18isGroupingPositionEi
__ZNK3icu12NumberFormat24getMaximumFractionDigitsEv
__ZNK3icu12NumberFormat24getMinimumFractionDigitsEv
__ZNK3icu13UnicodeString7extractEPtiR10UErrorCode
_unum_getAttribute
__ZNK3icu13DecimalFormat13getMultiplierEv
_unum_getSymbol
__ZNK3icu13DecimalFormat23getDecimalFormatSymbolsEv
_unum_close
__ZN3icu13DecimalFormatD0Ev
__ZN3icu13UnicodeStringD0Ev
__ZN3icu7UMemorydlEPv
__ZN3icu20DecimalFormatSymbolsD0Ev
__ZN3icu12NumberFormatD2Ev
__ZN3icu6FormatD2Ev
_u_foldCase
_ucase_fold
_u_charDirection
_ubidi_getClass
_u_getVersion
_u_versionFromString
_ucol_open
_u_init
_u_getUnicodeVersion
_unorm_getFCDTrie
_ucln_registerCleanup
_utrie_unserialize
_ucol_openElements
_uprv_init_collIterate
_ucol_setText
_ucol_next
_ucol_getNextCE
_ucol_closeElements
_uprv_uca_initImplicitConstants
_uprv_strdup
_uprv_pathIsAbsolute
_ures_getBinary
_ures_getLocale
_ucol_setAttribute
_ucol_setStrength
_ucol_getSortKey
__ZN3icu13UnicodeStringC1EPKti
__ZN3icu13UnicodeStringC2EPKti
__ZN3icu13DecimalFormatC1ERKNS_13UnicodeStringEPNS_20DecimalFormatSymbolsER11UParseErrorR10UErrorCode
__ZN3icu13DecimalFormatC2ERKNS_13UnicodeStringEPNS_20DecimalFormatSymbolsER11UParseErrorR10UErrorCode
_unum_applyPattern
__ZN3icu13UnicodeStringC1EPtii
__ZN3icu13UnicodeStringC2EPtii
__ZN3icu13DecimalFormat12applyPatternERKNS_13UnicodeStringER11UParseErrorR10UErrorCode
_unum_setAttribute
__ZN3icu13DecimalFormat15setGroupingSizeEi
_unum_setSymbol
__ZN3icu20DecimalFormatSymbolsC1ERKS0_
__ZN3icu20DecimalFormatSymbolsC2ERKS0_
__ZN3icu6LocaleC1Ev
__ZN3icu6LocaleC2Ev
__ZN3icu20DecimalFormatSymbolsaSERKS0_
__ZN3icu13UnicodeString12fastCopyFromERKS0_
__ZN3icu13DecimalFormat23setDecimalFormatSymbolsERKNS_20DecimalFormatSymbolsE
__ZN3icu13DecimalFormat25adoptDecimalFormatSymbolsEPNS_20DecimalFormatSymbolsE
__ZN3icu20DecimalFormatSymbolsD1Ev
__ZN3icu20DecimalFormatSymbolsD2Ev
_unum_formatInt64
__ZNK3icu13DecimalFormat6formatExRNS_13UnicodeStringERNS_13FieldPositionE
__ZNK3icu13DecimalFormat9precisionEa
__ZNK3icu13DecimalFormat9subformatERNS_13UnicodeStringERNS_13FieldPositionERNS_9DigitListEa
__ZNK3icu13DecimalFormat11appendAffixERNS_13UnicodeStringEdaa
__ZNK3icu13DecimalFormat10addPaddingERNS_13UnicodeStringERNS_13FieldPositionEii
__ZN3icu13FieldPositionD1Ev
__ZN3icu13FieldPositionD2Ev
_ubrk_open
__ZN3icu13BreakIterator23createCharacterInstanceERKNS_6LocaleER10UErrorCode
__ZN3icu13BreakIterator14createInstanceERKNS_6LocaleEiR10UErrorCode
__ZN3icu13BreakIterator12makeInstanceERKNS_6LocaleEiR10UErrorCode
__ZN3icu13BreakIterator13buildInstanceERKNS_6LocaleEPKciR10UErrorCode
_u_strchr
_udata_open
__ZN3icu22RuleBasedBreakIteratorC1EP11UDataMemoryR10UErrorCode
__ZN3icu22RuleBasedBreakIteratorC2EP11UDataMemoryR10UErrorCode
__ZN3icu13BreakIteratorC2Ev
__ZN3icu22RuleBasedBreakIterator4initEv
_utext_openUChars
_utext_setup
__ZN3icu22RuleBasedBreakIterator12setBreakTypeEi
__ZN3icu22RuleBasedBreakIterator5resetEv
_ubrk_setText
__ZN3icu22RuleBasedBreakIterator7setTextEP5UTextR10UErrorCode
_utext_clone
__ZN3icu22UCharCharacterIteratorC1EPKti
__ZN3icu22UCharCharacterIteratorC2EPKti
__ZN3icu17CharacterIteratorC2Ei
__ZN3icu22RuleBasedBreakIterator5firstEv
_utext_setNativeIndex
_ubrk_isBoundary
__ZN3icu22RuleBasedBreakIterator10isBoundaryEi
_utext_nativeLength
_utext_previous32From
__ZN3icu22RuleBasedBreakIterator9followingEi
__ZN3icu22RuleBasedBreakIterator8previousEv
__ZNK3icu22RuleBasedBreakIterator7currentEv
__ZN3icu22RuleBasedBreakIterator14handlePreviousEPKNS_14RBBIStateTableE
_utext_previous32
__ZN3icu22RuleBasedBreakIterator4nextEv
__ZN3icu22RuleBasedBreakIterator10handleNextEPKNS_14RBBIStateTableE
_utext_getNativeIndex
_udat_open
__ZN3icu10DateFormat22createDateTimeInstanceENS0_6EStyleES1_RKNS_6LocaleE
__ZN3icu10DateFormat6createENS0_6EStyleES1_RKNS_6LocaleE
__ZN3icu16SimpleDateFormatC1ENS_10DateFormat6EStyleES2_RKNS_6LocaleER10UErrorCode
__ZN3icu16SimpleDateFormatC2ENS_10DateFormat6EStyleES2_RKNS_6LocaleER10UErrorCode
__ZN3icu10DateFormatC2Ev
__ZN3icu16SimpleDateFormat9constructENS_10DateFormat6EStyleES2_RKNS_6LocaleER10UErrorCode
__ZN3icu16SimpleDateFormat18initializeCalendarEPNS_8TimeZoneERKNS_6LocaleER10UErrorCode
__ZN3icu8TimeZone13createDefaultEv
__ZN3icu8TimeZone11initDefaultEv
_uprv_tzset
_uprv_tzname
_uprv_timezone
__ZN3icu13UnicodeStringC1EPKciNS0_10EInvariantE
__ZN3icu13UnicodeStringC2EPKciNS0_10EInvariantE
__ZN3icu13UnicodeString18cloneArrayIfNeededEiiaPPia
_u_charsToUChars
__ZN3icu8TimeZone20createSystemTimeZoneERKNS_13UnicodeStringE
_ures_getInt
__ZN3icu13BasicTimeZoneC2Ev
__ZN3icu8TimeZoneC2Ev
_ures_getIntVector
__ZN3icu13UnicodeStringC1EaPKti
__ZN3icu13UnicodeStringC2EaPKti
__ZN3icu8TimeZone8loadRuleEPK15UResourceBundleRKNS_13UnicodeStringEPS1_R10UErrorCode
__ZNK3icu13UnicodeString7extractEiiPciNS0_10EInvariantE
__ZN3icu14SimpleTimeZoneC1EiRKNS_13UnicodeStringEaaaiNS0_8TimeModeEaaaiS4_iR10UErrorCode
__ZN3icu14SimpleTimeZoneC2EiRKNS_13UnicodeStringEaaaiNS0_8TimeModeEaaaiS4_iR10UErrorCode
__ZN3icu13BasicTimeZoneC2ERKNS_13UnicodeStringE
__ZN3icu8TimeZoneC2ERKNS_13UnicodeStringE
__ZN3icu14SimpleTimeZone20clearTransitionRulesEv
__ZN3icu14SimpleTimeZone9constructEiaaaiNS0_8TimeModeEaaaiS1_iR10UErrorCode
__ZN3icu14SimpleTimeZone11decodeRulesER10UErrorCode
__ZN3icu14SimpleTimeZone15decodeStartRuleER10UErrorCode
__ZN3icu14SimpleTimeZone13decodeEndRuleER10UErrorCode
_uprv_getUTCtime
__ZNK3icu8TimeZone9getOffsetEdaRiS1_R10UErrorCode
__ZNK3icu14SimpleTimeZone12getRawOffsetEv
_uprv_floor
_uprv_fmod
__ZNK3icu14SimpleTimeZone9getOffsetEhiiihiiR10UErrorCode
__ZNK3icu14SimpleTimeZone9getOffsetEhiiihiiiR10UErrorCode
__ZN3icu14SimpleTimeZone13compareToRuleEaaaaaiiNS0_5EModeEaaai
__ZN3icu13BasicTimeZoneC2ERKS0_
__ZN3icu8TimeZoneC2ERKS0_
__ZNK3icu14SimpleTimeZone5cloneEv
__ZN3icu14SimpleTimeZoneC1ERKS0_
__ZN3icu14SimpleTimeZoneC2ERKS0_
__ZN3icu14SimpleTimeZoneaSERKS0_
__ZN3icu8TimeZoneaSERKS0_
__ZN3icu8Calendar14createInstanceEPNS_8TimeZoneERKNS_6LocaleER10UErrorCode
__ZNK3icu6Locale15getKeywordValueEPKcPciR10UErrorCode
_ures_getFunctionalEquivalent
_uloc_getParent
__ZN3icu17GregorianCalendarC1ERKNS_6LocaleER10UErrorCode
__ZN3icu17GregorianCalendarC2ERKNS_6LocaleER10UErrorCode
__ZN3icu8CalendarC2EPNS_8TimeZoneERKNS_6LocaleER10UErrorCode
__ZN3icu8Calendar5clearEv
__ZN3icu8Calendar16setWeekCountDataERKNS_6LocaleEPKcR10UErrorCode
__ZNK3icu6Locale11getBaseNameEv
__ZN3icu8Calendar6getNowEv
__ZN3icu8Calendar15setTimeInMillisEdR10UErrorCode
__ZN3icu8Calendar13adoptTimeZoneEPNS_8TimeZoneE
__ZN3icu14SimpleTimeZoneD0Ev
__ZN3icu14SimpleTimeZone21deleteTransitionRulesEv
__ZN3icu13BasicTimeZoneD2Ev
__ZN3icu8TimeZoneD2Ev
__ZNK3icu17GregorianCalendar7getTypeEv
__ZN3icu16SimpleDateFormat17initializeSymbolsERKNS_6LocaleEPNS_8CalendarER10UErrorCode
__ZN3icu17DateFormatSymbolsC1ERKNS_6LocaleEPKcR10UErrorCode
__ZN3icu17DateFormatSymbolsC2ERKNS_6LocaleEPKcR10UErrorCode
__ZN3icu17DateFormatSymbols14initializeDataERKNS_6LocaleEPKcR10UErrorCodea
__ZN3icu7UMemorynaEm
__ZN3icuplERKNS_13UnicodeStringES2_
__ZN3icu13UnicodeStringC1Eiii
__ZN3icu13UnicodeStringC2Eiii
__ZN3icu16SimpleDateFormat10initializeERKNS_6LocaleER10UErrorCode
__ZN3icu16SimpleDateFormatD0Ev
__ZN3icu17DateFormatSymbolsD0Ev
__ZN3icu17DateFormatSymbols7disposeEv
__ZN3icu7UMemorydaEPv
__ZN3icu17DateFormatSymbols18disposeZoneStringsEv
__ZN3icu10DateFormatD2Ev
__ZN3icu17GregorianCalendarD0Ev
__ZN3icu8CalendarD2Ev
__ZN3icu16SimpleDateFormatC1ERKNS_6LocaleER10UErrorCode
__ZN3icu16SimpleDateFormatC2ERKNS_6LocaleER10UErrorCode
__ZN3icu12NumberFormat19setParseIntegerOnlyEa
__ZN3icu16SimpleDateFormat24initializeDefaultCenturyEv
__ZNK3icu17GregorianCalendar18haveDefaultCenturyEv
__ZNK3icu17GregorianCalendar19defaultCenturyStartEv
__ZNK3icu17GregorianCalendar30internalGetDefaultCenturyStartEv
__ZN3icu17GregorianCalendar30initializeSystemDefaultCenturyEv
__ZN3icu17GregorianCalendarC1ER10UErrorCode
__ZN3icu17GregorianCalendarC2ER10UErrorCode
__ZN3icu8Calendar3addE19UCalendarDateFieldsiR10UErrorCode
__ZNK3icu8Calendar3getE19UCalendarDateFieldsR10UErrorCode
__ZN3icu8Calendar8completeER10UErrorCode
__ZN3icu8Calendar13computeFieldsER10UErrorCode
__ZN3icu8Calendar28computeGregorianAndDOWFieldsEiR10UErrorCode
__ZN3icu8Calendar22computeGregorianFieldsEiR10UErrorCode
__ZN3icu8Calendar20julianDayToDayOfWeekEd
__ZN3icu17GregorianCalendar19handleComputeFieldsEiR10UErrorCode
__ZN3icu8Calendar17computeWeekFieldsER10UErrorCode
__ZNK3icu17GregorianCalendar19handleGetYearLengthEi
__ZNK3icu17GregorianCalendar10isLeapYearEi
__ZN3icu8Calendar10weekNumberEiii
__ZN3icu8Calendar3setE19UCalendarDateFieldsi
__ZN3icu8Calendar8pinFieldE19UCalendarDateFieldsR10UErrorCode
__ZNK3icu17GregorianCalendar16getActualMaximumE19UCalendarDateFieldsR10UErrorCode
__ZNK3icu8Calendar16getActualMaximumE19UCalendarDateFieldsR10UErrorCode
__ZNK3icu17GregorianCalendar5cloneEv
__ZN3icu17GregorianCalendarC1ERKS0_
__ZN3icu17GregorianCalendarC2ERKS0_
__ZN3icu8CalendarC2ERKS0_
__ZN3icu8CalendaraSERKS0_
__ZN3icu8Calendar16prepareGetActualE19UCalendarDateFieldsaR10UErrorCode
__ZNK3icu8Calendar18getGreatestMinimumE19UCalendarDateFields
__ZNK3icu8Calendar8getLimitE19UCalendarDateFieldsNS0_10ELimitTypeE
__ZNK3icu17GregorianCalendar14handleGetLimitE19UCalendarDateFieldsNS_8Calendar10ELimitTypeE
__ZN3icu8Calendar10updateTimeER10UErrorCode
__ZN3icu8Calendar11computeTimeER10UErrorCode
__ZN3icu8Calendar16computeJulianDayEv
__ZNK3icu8Calendar23getFieldResolutionTableEv
__ZN3icu8Calendar13resolveFieldsEPA12_A8_Ki
__ZN3icu17GregorianCalendar22handleComputeJulianDayE19UCalendarDateFields
__ZN3icu8Calendar22handleComputeJulianDayE19UCalendarDateFields
__ZN3icu17GregorianCalendar21handleGetExtendedYearEv
__ZNK3icu8Calendar5isSetE19UCalendarDateFields
__ZNK3icu17GregorianCalendar23handleComputeMonthStartEiia
__ZNK3icu8Calendar11newestStampE19UCalendarDateFieldsS1_i
__ZN3icu8Calendar17computeZoneOffsetEdiR10UErrorCode
__ZNK3icu17GregorianCalendar20handleGetMonthLengthEii
__ZNK3icu17GregorianCalendar16getActualMinimumE19UCalendarDateFieldsR10UErrorCode
__ZNK3icu8Calendar10getMinimumE19UCalendarDateFields
__ZNK3icu8Calendar15getTimeInMillisER10UErrorCode
__ZN3icu8Calendar18computeMillisInDayEv
__ZNK3icu17GregorianCalendar23defaultCenturyStartYearEv
__ZNK3icu17GregorianCalendar34internalGetDefaultCenturyStartYearEv
__ZN3icu8TimeZone14createTimeZoneERKNS_13UnicodeStringE
__ZN3icu10DateFormat13adoptTimeZoneEPNS_8TimeZoneE
_udat_setLenient
__ZN3icu10DateFormat10setLenientEa
__ZN3icu8Calendar10setLenientEa
_udat_applyPattern
__ZNK3icu16SimpleDateFormat17getDynamicClassIDEv
__ZN3icu16SimpleDateFormat16getStaticClassIDEv
__ZN3icu16SimpleDateFormat12applyPatternERKNS_13UnicodeStringE
__ZN3icu13UnicodeString9removeRefEv
_umtx_atomic_dec
_udat_set2DigitYearStart
__ZN3icu16SimpleDateFormat18set2DigitYearStartEdR10UErrorCode
__ZN3icu16SimpleDateFormat26parseAmbiguousDatesAsAfterEdR10UErrorCode
_udat_toPattern
__ZNK3icu16SimpleDateFormat9toPatternERNS_13UnicodeStringE
_udat_format
__ZNK3icu10DateFormat6formatEdRNS_13UnicodeStringERNS_13FieldPositionE
__ZNK3icu16SimpleDateFormat6formatERNS_8CalendarERNS_13UnicodeStringERNS_13FieldPositionE
_uloc_setKeywordValue
_ucal_open
_uprv_sortArray
_ucal_getAttribute
__ZNK3icu8Calendar17getFirstDayOfWeekEv
__ZNK3icu16SimpleDateFormat9subFormatERNS_13UnicodeStringEtiRNS_13FieldPositionERNS_8CalendarER10UErrorCode
__ZN3icu17DateFormatSymbols16getPatternUCharsEv
__ZNK3icu16SimpleDateFormat17zeroPaddingNumberERNS_13UnicodeStringEiii
__ZNK3icu13DecimalFormat6formatEiRNS_13UnicodeStringERNS_13FieldPositionE
_ubidi_openSized
_ubidi_setPara
_ubidi_getCustomizedClass
_ubidi_getParaLevel
_ubidi_close
_udat_close
_udat_countSymbols
__ZNK3icu16SimpleDateFormat20getDateFormatSymbolsEv
__ZNK3icu17DateFormatSymbols14getAmPmStringsERi
_udat_getSymbols
__ZN3icu11FormattableC1Ev
__ZN3icu11FormattableC2Ev
__ZN3icu13UnicodeString10setToBogusEv
__ZN3icu11Formattable11adoptStringEPNS_13UnicodeStringE
__ZN3icu11Formattable7disposeEv
__ZN3icu13MessageFormat6formatERKNS_13UnicodeStringEPKNS_11FormattableEiRS1_R10UErrorCode
__ZN3icu13MessageFormatC1ERKNS_13UnicodeStringER10UErrorCode
__ZN3icu13MessageFormatC2ERKNS_13UnicodeStringER10UErrorCode
__ZN3icu13MessageFormat18allocateSubformatsEi
__ZN3icu13MessageFormat16allocateArgTypesEi
__ZN3icu13MessageFormat12applyPatternERKNS_13UnicodeStringER10UErrorCode
__ZN3icu13MessageFormat12applyPatternERKNS_13UnicodeStringER11UParseErrorR10UErrorCode
__ZN3icu13MessageFormat10makeFormatEiPNS_13UnicodeStringER11UParseErrorR10UErrorCode
_uprv_isRuleWhiteSpace
_u_digit
_u_charDigitValue
__ZN3icu13MessageFormat11findKeywordERKNS_13UnicodeStringEPKPKt
__ZNK3icu13MessageFormat6formatEPKNS_11FormattableEiRNS_13UnicodeStringERNS_13FieldPositionER10UErrorCode
__ZNK3icu13MessageFormat6formatEPKNS_11FormattableEiRNS_13UnicodeStringERNS_13FieldPositionEiR10UErrorCode
__ZNK3icu13MessageFormat6formatEPKNS_11FormattableEPKNS_13UnicodeStringEiRS4_RNS_13FieldPositionEiR10UErrorCode
__ZNK3icu11Formattable7getTypeEv
__ZNK3icu13UnicodeString8refCountEv
__ZN3icu13MessageFormatD2Ev
__ZN3icu11FormattableD1Ev
__ZN3icu11FormattableD2Ev
__ZN3icu13UnicodeString6addRefEv
_umtx_atomic_inc
__ZNK3icu8Calendar15getLeastMaximumE19UCalendarDateFields
_udat_getCalendar
__ZNK3icu10DateFormat11getCalendarEv
_ucal_setTimeZone
__ZNK3icu17DateFormatSymbols11getWeekdaysERiNS0_13DtContextTypeENS0_11DtWidthTypeE
_ucol_strcoll
_usearch_openFromCollator
_ucol_getAttribute
_ucol_getStrength
_ucol_getVariableTop
_ucol_getLocale
_ucol_getLocaleByType
_ucol_getOffset
_ucol_getMaxExpansion
_u_getIntPropertyValue
_ucal_clear
_ucal_setMillis
_ucal_get
_ucal_close
_u_memcasecmp
_ucase_getSingleton
_u_charType
__ZN3icu13BreakIterator18createWordInstanceERKNS_6LocaleER10UErrorCode
_ubrk_setUText
_ubrk_first
_ubrk_next
_ubrk_getRuleStatus
__ZNK3icu22RuleBasedBreakIterator13getRuleStatusEv
__ZN3icu22RuleBasedBreakIterator19makeRuleStatusValidEv
_utext_next32
_utext_close
_ucol_getVersion
_ucol_openBinary
_ucol_getUCAVersion
_uloc_getCharacterOrientation
_u_strFromUTF8
_u_strFromUTF8WithSub
_u_isspace
_u_isdigit
_u_ispunct
_uscript_getScript
_uset_open
__ZN3icu10UnicodeSetC1Eii
__ZN3icu10UnicodeSetC2Eii
__ZN3icu10UnicodeSet15allocateStringsER10UErrorCode
__ZN3icu7UVectorC1EPFvPvEPFa8UHashTokS4_EiR10UErrorCode
__ZN3icu7UVectorC2EPFvPvEPFa8UHashTokS4_EiR10UErrorCode
__ZN3icu7UVector5_initEiR10UErrorCode
__ZN3icu10UnicodeSet10complementEii
__ZN3icu10UnicodeSet11exclusiveOrEPKiia
__ZN3icu10UnicodeSet20ensureBufferCapacityEiR10UErrorCode
_uprv_realloc
__ZN3icu10UnicodeSet11swapBuffersEv
__ZN3icu10UnicodeSet14releasePatternEv
_uset_clear
__ZN3icu10UnicodeSet5clearEv
__ZN3icu7UVector17removeAllElementsEv
_uset_contains
__ZNK3icu10UnicodeSet8containsEi
__ZNK3icu10UnicodeSet13findCodePointEi
_uset_add
__ZN3icu10UnicodeSet3addEi
__ZN3icu10UnicodeSet14ensureCapacityEiR10UErrorCode
_ubrk_preceding
__ZN3icu22RuleBasedBreakIterator9precedingEi
_ubrk_following
_u_istitle
_u_totitle
_ucase_totitle
_u_isupper
_urbtok_openBinaryRulesNoCopy
__ZN3icu18RuleBasedTokenizerC1EPKhNS0_10EDontAdoptER10UErrorCode
__ZN3icu18RuleBasedTokenizerC2EPKhNS0_10EDontAdoptER10UErrorCode
__ZN3icu22RuleBasedBreakIteratorC2EPKNS_14RBBIDataHeaderENS0_10EDontAdoptER10UErrorCode
__ZN3icu18RuleBasedTokenizer4initEv
_urbtok_tokenize
__ZN3icu18RuleBasedTokenizer8tokenizeEiP19RuleBasedTokenRangePm
_ubrk_close
__ZN3icu18RuleBasedTokenizerD0Ev
__ZN3icu22RuleBasedBreakIteratorD2Ev
__ZN3icu22UCharCharacterIteratorD0Ev
__ZN3icu24ForwardCharacterIteratorD2Ev
__ZN3icu13BreakIteratorD2Ev
_ucnv_open
_ucnv_setFallback
_ucnv_toUnicode
_unorm_quickCheck
_ucnv_getName
__ZN3icu13BreakIterator18createLineInstanceERKNS_6LocaleER10UErrorCode
__ZN3icu12NumberFormat21createPercentInstanceERKNS_6LocaleER10UErrorCode
__ZN3icu13DecimalFormat13setMultiplierEi
_unum_formatDouble
__ZNK3icu13DecimalFormat6formatEdRNS_13UnicodeStringERNS_13FieldPositionE
_uprv_isNaN
_uprv_isInfinite
_ulocdata_getMeasurementSystem