_Mk4tcl_Init.eh
_Mk4tcl_SafeInit.eh
_Mk_Init.eh
_Mk_SafeInit.eh
__Z10Mk_EvalObjP10Tcl_InterpP7Tcl_Obj.eh
__Z14f4_ClearFormatc.eh
__Z16f4_CompareFormatcRK8c4_BytesS1_.eh
__Z6AsPathP7Tcl_Obj.eh
__Z7AsIndexP7Tcl_Obj.eh
__ZN10c4_FormatB13ItemLenOffColEiRlRP9c4_Column.eh
__ZN10c4_FormatB3GetEiRi.eh
__ZN10c4_FormatB3SetEiRK8c4_Bytes.eh
__ZN10c4_FormatB8ItemSizeEi.eh
__ZN10c4_FormatB9DoCompareERK8c4_BytesS2_.eh
__ZN10c4_FormatD9DoCompareERK8c4_BytesS2_.eh
__ZN10c4_FormatF9DoCompareERK8c4_BytesS2_.eh
__ZN10c4_FormatL9DoCompareERK8c4_BytesS2_.eh
__ZN10c4_FormatS8ItemSizeEi.eh
__ZN10c4_FormatX3GetEiRi.eh
__ZN10c4_FormatX3SetEiRK8c4_Bytes.eh
__ZN10c4_FormatX6InsertEiRK8c4_Bytesi.eh
__ZN10c4_FormatX6RemoveEii.eh
__ZN10c4_FormatX8ItemSizeEi.eh
__ZN10c4_FormatX8UnmappedEv.eh
__ZN10c4_FormatX9DoCompareERK8c4_BytesS2_.eh
__ZN10c4_FormatX9FlipBytesEv.eh
__ZN10c4_Handler6CommitER14c4_SaveContext.eh
__ZN10c4_Handler9OldDefineEcR10c4_Persist.eh
__ZN10c4_Persist10ApplyAsideEiR9c4_Column.eh
__ZN10c4_Persist10AutoCommitEb.eh
__ZN10c4_Persist11LookupAsideEi.eh
__ZN10c4_Persist11OccupySpaceEll.eh
__ZN10c4_Persist12DoAutoCommitEv.eh
__ZN10c4_Persist7SetRootEP13c4_HandlerSeq.eh
__ZN10c4_SortSeq9PreChangeER11c4_Notifier.eh
__ZN10c4_SortSeqD1Ev.eh
__ZN10c4_SortSeqD2Ev.eh
__ZN10c4_StorageD1Ev.eh
__ZN10c4_StorageD2Ev.eh
__ZN11MkWorkspace6DefCmdEP5MkTcl.eh
__ZN11c4_FileMarkC1Elbb.eh
__ZN11c4_FileMarkC1Eli.eh
__ZN11c4_FileMarkC1Ev.eh
__ZN11c4_FileMarkC2Elbb.eh
__ZN11c4_FileMarkC2Eli.eh
__ZN11c4_FileMarkC2Ev.eh
__ZN11c4_Notifier10StartSetAtEiR9c4_Cursor.eh
__ZN11c4_Notifier13StartInsertAtEiR9c4_Cursori.eh
__ZN11c4_Notifier13StartRemoveAtEii.eh
__ZN11c4_Notifier8StartSetEiiRK8c4_Bytes.eh
__ZN11c4_Notifier9StartMoveEii.eh
__ZN11c4_PropertyC1ERKS_.eh
__ZN11c4_PropertyC2ERKS_.eh
__ZN11c4_PropertyD1Ev.eh
__ZN11c4_PropertyD2Ev.eh
__ZN11c4_PropertyaSERKS_.eh
__ZN11c4_PtrArray3AddEPv.eh
__ZN11c4_PtrArray8InsertAtEiPvi.eh
__ZN11c4_PtrArray8RemoveAtEii.eh
__ZN11c4_Sequence10ClearCacheEv.eh
__ZN11c4_Sequence10PostChangeER11c4_Notifier.eh
__ZN11c4_Sequence11DescriptionEv.eh
__ZN11c4_Sequence14RestrictSearchE9c4_CursorRiS1_.eh
__ZN11c4_Sequence6DecRefEv.eh
__ZN11c4_Sequence6IncRefEv.eh
__ZN11c4_Sequence9PreChangeER11c4_Notifier.eh
__ZN11c4_SequenceC1Ev.eh
__ZN11c4_SequenceC2Ev.eh
__ZN11c4_SequenceD0Ev.eh
__ZN11c4_SequenceD1Ev.eh
__ZN11c4_SequenceD2Ev.eh
__ZN11c4_Strategy10DataCommitEl.eh
__ZN11c4_Strategy15FreshGenerationEv.eh
__ZN11c4_Strategy16ResetFileMappingEv.eh
__ZN11c4_Strategy7SetBaseEl.eh
__ZN11c4_Strategy8DataReadElPvi.eh
__ZN11c4_Strategy8FileSizeEv.eh
__ZN11c4_Strategy9DataWriteElPKvi.eh
__ZN11c4_StrategyC1Ev.eh
__ZN11c4_StrategyC2Ev.eh
__ZN11c4_StrategyD0Ev.eh
__ZN11c4_StrategyD1Ev.eh
__ZN11c4_StrategyD2Ev.eh
__ZN12c4_Allocator4DumpEPKc.eh
__ZN12c4_Allocator6OccupyEll.eh
__ZN12c4_BaseArray4GrowEi.eh
__ZN12c4_BaseArray8InsertAtEii.eh
__ZN12c4_BaseArray8RemoveAtEii.eh
__ZN12c4_BaseArray9SetLengthEi.eh
__ZN12c4_BaseArrayC1Ev.eh
__ZN12c4_BaseArrayC2Ev.eh
__ZN12c4_BaseArrayD1Ev.eh
__ZN12c4_BaseArrayD2Ev.eh
__ZN12c4_ColOfInts11SetRowCountEi.eh
__ZN12c4_ColOfInts15CalcAccessWidthEil.eh
__ZN12c4_ColOfInts6Get_0bEi.eh
__ZN12c4_ColOfInts6RemoveEii.eh
__ZN12c4_ColOfInts6Set_0bEiPKh.eh
__ZN12c4_ColOfInts7FixSizeEb.eh
__ZN12c4_ColOfInts8ItemSizeEi.eh
__ZN12c4_ColOfInts9DoCompareERK8c4_BytesS2_.eh
__ZN12c4_ColOfInts9ForceFlipEv.eh
__ZN12c4_CustomSeq4MoveEii.eh
__ZN12c4_CustomSeq5DoSetEiiRK8c4_Bytes.eh
__ZN12c4_CustomSeq8InsertAtEi9c4_Cursori.eh
__ZN12c4_CustomSeq8RemoveAtEii.eh
__ZN12c4_FilterSeq3GetEiiR8c4_Bytes.eh
__ZN12c4_FilterSeq3SetEiRK11c4_PropertyRK8c4_Bytes.eh
__ZN12c4_FilterSeq7SetSizeEi.eh
__ZN12c4_FilterSeq8InsertAtEi9c4_Cursori.eh
__ZN12c4_FilterSeq8RemoveAtEii.eh
__ZN12c4_TclStream4ReadEPvi.eh
__ZN12c4_TclStreamC1EP12Tcl_Channel_.eh
__ZN12c4_TclStreamC2EP12Tcl_Channel_.eh
__ZN12c4_TclStreamD1Ev.eh
__ZN12c4_TclStreamD2Ev.eh
__ZN13c4_DWordArray3AddEl.eh
__ZN13c4_DWordArray8InsertAtEili.eh
__ZN13c4_DWordArray8RemoveAtEii.eh
__ZN13c4_DerivedSeq10AddHandlerEP10c4_Handler.eh
__ZN13c4_DerivedSeq10SetNumRowsEi.eh
__ZN13c4_DerivedSeq13CreateHandlerERK11c4_Property.eh
__ZN13c4_FileStream4ReadEPvi.eh
__ZN13c4_FileStreamC1EP7__sFILEb.eh
__ZN13c4_FileStreamC2EP7__sFILEb.eh
__ZN13c4_HandlerSeq10AddHandlerEP10c4_Handler.eh
__ZN13c4_HandlerSeq10SetNumRowsEi.eh
__ZN13c4_HandlerSeq13CreateHandlerERK11c4_Property.eh
__ZN13c4_HashViewer7GetItemEiiR8c4_Bytes.eh
__ZN13c4_HashViewer7GetSizeEv.eh
__ZN13c4_JoinViewer7GetSizeEv.eh
__ZN13c4_PairViewer7GetSizeEv.eh
__ZN14c4_SaveContext9AllocDumpEPKcb.eh
__ZN15c4_CustomViewer10InsertRowsEi9c4_Cursori.eh
__ZN15c4_CustomViewer10RemoveRowsEii.eh
__ZN15c4_CustomViewer7SetItemEiiRK8c4_Bytes.eh
__ZN15c4_CustomViewerD0Ev.eh
__ZN15c4_CustomViewerD1Ev.eh
__ZN15c4_CustomViewerD2Ev.eh
__ZN15c4_Dependencies3AddEP11c4_Sequence.eh
__ZN15c4_DependenciesD1Ev.eh
__ZN15c4_DependenciesD2Ev.eh
__ZN15c4_FileStrategy15FreshGenerationEv.eh
__ZN15c4_FileStrategy8DataReadElPvi.eh
__ZN15c4_RenameViewer7GetItemEiiR8c4_Bytes.eh
__ZN15c4_RenameViewer7GetSizeEv.eh
__ZN16c4_BlockedViewer4SlotERi.eh
__ZN16c4_BlockedViewer7GetSizeEv.eh
__ZN16c4_CustomHandler6InsertEiRK8c4_Bytesi.eh
__ZN16c4_CustomHandler6RemoveEii.eh
__ZN16c4_CustomHandlerD1Ev.eh
__ZN16c4_CustomHandlerD2Ev.eh
__ZN16c4_FormatHandlerD1Ev.eh
__ZN16c4_FormatHandlerD2Ev.eh
__ZN16c4_GroupByViewer7GetSizeEv.eh
__ZN16c4_IndexedViewer7GetItemEiiR8c4_Bytes.eh
__ZN16c4_IndexedViewer7GetSizeEv.eh
__ZN16c4_OrderedViewer7GetItemEiiR8c4_Bytes.eh
__ZN16c4_OrderedViewer7GetSizeEv.eh
__ZN17c4_JoinPropViewer7GetSizeEv.eh
__ZN17c4_StreamStrategy8FileSizeEv.eh
__ZN17c4_StreamStrategyD1Ev.eh
__ZN17c4_StreamStrategyD2Ev.eh
__ZN18c4_RemapWithViewer7GetSizeEv.eh
__ZN3Tcl16tcl_GetObjResultEv.eh
__ZN3Tcl16tcl_NewStringObjEPKci.eh
__ZN3TclC1EP10Tcl_Interp.eh
__ZN3TclC2EP10Tcl_Interp.eh
__ZN5MkTclD1Ev.eh
__ZN5MkTclD2Ev.eh
__ZN6c4_Row7ReleaseE9c4_Cursor.eh
__ZN6c4_RowD1Ev.eh
__ZN6c4_RowD2Ev.eh
__ZN6c4_RowaSERKS_.eh
__ZN7c4_View11AddPropertyERK11c4_Property.eh
__ZN7c4_ViewC1ERKS_.eh
__ZN7c4_ViewC2ERKS_.eh
__ZN8c4_Bytes4SwapERS_.eh
__ZN8c4_BytesC1EPKvib.eh
__ZN8c4_BytesC1ERKS_.eh
__ZN8c4_BytesC2EPKvib.eh
__ZN8c4_BytesC2ERKS_.eh
__ZN9c4_Column10RemoveDataEll.eh
__ZN9c4_Column9PullValueERPKh.eh
__ZN9c4_Column9PushValueERPhl.eh
__ZN9c4_StreamD0Ev.eh
__ZN9c4_StreamD1Ev.eh
__ZN9c4_StreamD2Ev.eh
__ZN9c4_StringC1EPKc.eh
__ZN9c4_StringC1ERKS_.eh
__ZN9c4_StringC2EPKc.eh
__ZN9c4_StringC2ERKS_.eh
__ZN9c4_StringD1Ev.eh
__ZN9c4_StringD2Ev.eh
__ZNK10c4_Persist4RootEv.eh
__ZNK10c4_Persist8GetAsideEv.eh
__ZNK10c4_Persist8StrategyEv.eh
__ZNK11MkWorkspace3NthEi.eh
__ZNK11MkWorkspace8NumItemsEv.eh
__ZNK11c4_FileMark11IsOldHeaderEv.eh
__ZNK11c4_FileMark6OffsetEv.eh
__ZNK11c4_FileMark8IsHeaderEv.eh
__ZNK11c4_FileMark9IsFlippedEv.eh
__ZNK11c4_FileMark9OldOffsetEv.eh
__ZNK11c4_Property4NameEv.eh
__ZNK11c4_Property4RefsEi.eh
__ZNK11c4_Sequence10RemapIndexEiPKS_.eh
__ZNK11c4_Sequence7NumRefsEv.eh
__ZNK11c4_Sequence7PersistEv.eh
__ZNK12c4_Allocator15AllocationLimitEv.eh
__ZNK12c4_Allocator6LocateEl.eh
__ZNK12c4_ColOfInts8RowCountEv.eh
__ZNK12c4_CustomSeq5DoGetEiiR8c4_Bytes.eh
__ZNK12c4_CustomSeq7NumRowsEv.eh
__ZNK12c4_FilterSeq10RemapIndexEiPK11c4_Sequence.eh
__ZNK12c4_FilterSeq7CompareEi9c4_Cursor.eh
__ZNK12c4_FilterSeq7NumRowsEv.eh
__ZNK13c4_DerivedSeq10NthHandlerEi.eh
__ZNK13c4_DerivedSeq10RemapIndexEiPK11c4_Sequence.eh
__ZNK13c4_DerivedSeq11NumHandlersEv.eh
__ZNK13c4_DerivedSeq14HandlerContextEi.eh
__ZNK13c4_DerivedSeq7NumRowsEv.eh
__ZNK13c4_HandlerSeq10DefinitionEv.eh
__ZNK13c4_HandlerSeq5FieldEi.eh
__ZNK13c4_HandlerSeq7PersistEv.eh
__ZNK13c4_HandlerSeq9NumFieldsEv.eh
__ZNK13c4_ProjectSeq10NthHandlerEi.eh
__ZNK13c4_ProjectSeq14HandlerContextEi.eh
__ZNK14c4_SaveContext11SerializingEv.eh
__ZNK14c4_SaveContext9IsFlippedEv.eh
__ZNK15c4_FileStrategy7IsValidEv.eh
__ZNK17c4_StreamStrategy7IsValidEv.eh
__ZNK7c4_View10GetIndexOfERK9c4_RowRef.eh
__ZNK9c4_Column7AvailAtEl.eh
__ZNK9c4_Column8StrategyEv.eh
__ZNK9c4_String10FullLengthEv.eh
__ZNK9c4_String11ReverseFindEc.eh
__ZNK9c4_String13CompareNoCaseEPKc.eh
__ZNK9c4_String4FindEPKc.eh
__ZNK9c4_String4FindEc.eh
__ZNK9c4_String7CompareEPKc.eh
__ZNK9c4_String9FindOneOfEPKc.eh
__ZeqRK8c4_BytesS1_.eh
__ZeqRK9c4_StringS1_.eh
__Z10Mk_EvalObjP10Tcl_InterpP7Tcl_Obj
__ZN12c4_TclStreamC1EP12Tcl_Channel_
__ZN12c4_TclStreamD2Ev
__ZN12c4_TclStreamD1Ev
__ZN12c4_TclStreamD0Ev
__ZN12c4_TclStream4ReadEPvi
__ZN12c4_TclStream5WriteEPKvi
__ZNK11MkWorkspace3NthEi
__ZN11MkWorkspace6DefCmdEP5MkTcl
__Z6AsPathP7Tcl_Obj
__Z7AsIndexP7Tcl_Obj
__ZN3TclC2EP10Tcl_Interp
__ZN3TclC1EP10Tcl_Interp
__ZN3Tcl4FailEPKci
__ZN3Tcl16tcl_GetObjResultEv
__ZN3Tcl16tcl_SetObjResultEP7Tcl_Obj
__ZN3Tcl17tcl_ListObjLengthEP7Tcl_Obj
__ZN3Tcl21tcl_GetBooleanFromObjEP7Tcl_Obj
__ZN3Tcl17tcl_GetIntFromObjEP7Tcl_Obj
__ZN3Tcl18tcl_GetLongFromObjEP7Tcl_Obj
__ZN3Tcl20tcl_GetDoubleFromObjEP7Tcl_Obj
__ZN3Tcl19tcl_GetIndexFromObjEP7Tcl_ObjPPKcPc
__ZN3Tcl15tcl_ExprLongObjEP7Tcl_Obj
__ZN3Tcl16tcl_NewStringObjEPKci
__ZN3Tcl9list2descEP7Tcl_ObjS1_
__ZN5MkTclD2Ev
__ZN5MkTclD1Ev
__ZN5MkTclC1EP11MkWorkspaceP10Tcl_InterpiPKc
__Z11f4_GetTokenRPKc
__Z10AsPropertyP7Tcl_ObjRK7c4_View
__ZNK11MkWorkspace8NumItemsEv
__ZN11MkWorkspace4ItemC2EPKcS2_iR11c4_PtrArrayib
__ZN11MkWorkspace4ItemC1EPKcS2_iR11c4_PtrArrayib
__ZN11MkWorkspaceC2EP10Tcl_Interp
__ZN11MkWorkspaceC1EP10Tcl_Interp
__ZN11TclSelector10GetAsPropsEP7Tcl_Obj
__ZN11TclSelectorD1Ev
__ZN11TclSelectorD2Ev
__ZN11TclSelectorC1EP10Tcl_InterpRK7c4_View
__ZN11TclSelectorC2EP10Tcl_InterpRK7c4_View
__ZN11MkWorkspace4Item12ForceRefreshEv
__ZN11MkWorkspace4ItemD1Ev
__ZN11MkWorkspace4ItemD2Ev
__ZN12c4_TclStreamC2EP12Tcl_Channel_
__ZN5MkTclC2EP11MkWorkspaceP10Tcl_InterpiPKc
__Z8SetAsObjP10Tcl_InterpRK9c4_RowRefRK11c4_PropertyP7Tcl_Obj
__ZN5MkTcl9SetValuesERK9c4_RowRefiPKP7Tcl_Obj
__ZN11TclSelector12AddConditionEiP7Tcl_ObjS1_
__ZN11MkWorkspace15CleanupCommandsEv
__ZN11MkWorkspaceD2Ev
__ZN11MkWorkspaceD1Ev
__ZNK11MkWorkspace4FindEPKc
__ZN11MkWorkspace6DefineEPKcS1_ib
__ZN11MkWorkspace12AllocTempRowEv
__ZN11MkWorkspace10ForgetPathEPK6MkPath
__ZN6MkPathD1Ev
__ZN6MkPath4RefsEi
__ZN6MkPathD2Ev
_Mk_SafeInit
_Mk4tcl_SafeInit
_Mk_Init
_Mk4tcl_Init
__Z15MatchOneKeywordPKcRK9c4_String
__ZN11TclSelector14MatchOneStringEiPKcRK9c4_String
__ZN11MkWorkspace10InvalidateERK6MkPath
__ZN6MkPath10AttachViewEP10Tcl_Interp
__ZN6MkPathC1ER11MkWorkspaceRPKcP10Tcl_Interp
__ZN11MkWorkspace7AddPathERPKcP10Tcl_Interp
__Z16SetCursorFromAnyP10Tcl_InterpP7Tcl_Obj
__ZN5MkTcl11changeIndexEP7Tcl_Obj
__ZN5MkTcl6asViewEP7Tcl_Obj
__ZN6MkPathC2ER11MkWorkspaceRPKcP10Tcl_Interp
__Z8GetAsObjRK9c4_RowRefRK11c4_PropertyP7Tcl_Obj
__ZN11TclSelector5MatchERK9c4_RowRef
__ZN11TclSelector13ExactKeyPropsERK9c4_RowRef
__ZN11TclSelector8DoSelectEP7Tcl_ObjP7c4_View
__ZN3Tcl24tcl_ListObjAppendElementEP7Tcl_ObjS1_
__ZN3Tcl8GetValueERK9c4_RowRefRK11c4_PropertyP7Tcl_Obj
__ZN5MkTcl8asRowRefEP7Tcl_Obji
__ZN5MkTcl6RowCmdEv
__ZN5MkTcl6GetCmdEv
__ZN5MkTcl6SetCmdEv
__ZN5MkTcl7FileCmdEv
__ZN5MkTcl7ViewCmdEv
__ZN5MkTcl7LoopCmdEv
__ZN5MkTcl9CursorCmdEv
__ZN5MkTcl9SelectCmdEv
__ZN5MkTcl10ChannelCmdEv
__ZN5MkTcl7ExecuteEiPKP7Tcl_Obj
__ZN5MkTcl10DispatcherEPvP10Tcl_InterpiPKP7Tcl_Obj
__ZN6MkView9SetValuesERK9c4_RowRefiPKP7Tcl_ObjR7c4_View
__ZN6MkView8CloseCmdEv
__ZN6MkView7FindCmdEv
__ZN6MkView7LoopCmdEv
__ZN6MkViewD2Ev
__ZN6MkViewD1Ev
__ZN6MkView10DeleteProcEPv
__ZN6MkView4ViewEP10Tcl_InterpP7Tcl_Obj
__ZN6MkView8RegisterEPKc
__ZN6MkView7ExecuteEiPKP7Tcl_Obj
__ZN6MkView10DispatcherEPvP10Tcl_InterpiPKP7Tcl_Obj
__ZN6MkView7ViewCmdEv
__ZN6MkView7InfoCmdEv
__ZN6MkView7asIndexER7c4_ViewP7Tcl_Objb
__ZN6MkView11RestrictCmdEv
__ZN6MkView9InsertCmdEv
__ZN6MkView9ExistsCmdEv
__ZN6MkView9DeleteCmdEv
__ZN6MkView7SizeCmdEv
__ZN6MkView6GetCmdEv
__ZN6MkView9SearchCmdEv
__ZN6MkView6SetCmdEv
__ZN6MkViewC2EP10Tcl_Interp7c4_ViewPKc
__ZN6MkViewC1EP10Tcl_Interp7c4_ViewPKc
__ZN6MkView9UniqueCmdEv
__ZN6MkViewC2EP10Tcl_InterpPKc
__ZN6MkViewC1EP10Tcl_InterpPKc
__ZN6MkView7OpenCmdEv
__ZN6MkView9SelectCmdEv
__ZN6MkView10BlockedCmdEv
__ZN6MkView6DupCmdEv
__ZN6MkView8CloneCmdEv
__ZN6MkView9ConcatCmdEv
__ZN6MkView12DifferentCmdEv
__ZN6MkView7CopyCmdEv
__ZN6MkView10FlattenCmdEv
__ZN6MkView10GroupByCmdEv
__ZN6MkView7HashCmdEv
__ZN6MkView10IndexedCmdEv
__ZN6MkView12IntersectCmdEv
__ZN6MkView7JoinCmdEv
__ZN6MkView6MapCmdEv
__ZN6MkView8MinusCmdEv
__ZN6MkView10OrderedCmdEv
__ZN6MkView7PairCmdEv
__ZN6MkView10ProductCmdEv
__ZN6MkView10ProjectCmdEv
__ZN6MkView8RangeCmdEv
__ZN6MkView11ReadOnlyCmdEv
__ZN6MkView9RenameCmdEv
__ZN6MkView8UnionCmdEv
__ZNK9c4_Column8StrategyEv
__ZN9c4_Column9PullValueERPKh
__ZN9c4_Column9PushValueERPhl
__ZN12c4_ColOfInts6Get_0bEi
__ZN12c4_ColOfInts6Set_0bEiPKh
__ZN12c4_ColOfInts9ForceFlipEv
__ZNK12c4_ColOfInts8RowCountEv
__ZN12c4_ColOfInts15CalcAccessWidthEil
__ZN12c4_ColOfInts8ItemSizeEi
__ZN12c4_ColOfInts3GetEiRi
__ZNK9c4_Column7AvailAtEl
__ZN12c4_ColOfInts9DoCompareERK8c4_BytesS2_
__ZN9c4_ColumnC2EP10c4_Persist
__ZN9c4_ColumnC1EP10c4_Persist
__ZN9c4_Column12PullLocationERPKh
__ZNK9c4_Column8IsMappedEv
__ZNK9c4_Column7UsesMapEPKh
__ZN9c4_Column8CopyDataElli
__ZN9c4_Column11MoveGapDownEl
__ZN9c4_Column9MoveGapUpEl
__ZN9c4_Column14ReleaseSegmentEi
__ZN9c4_Column11FinishSlackEv
__ZN9c4_Column9RemoveGapEv
__ZN9c4_Column9MoveGapToEl
__ZN9c4_Column18ReleaseAllSegmentsEv
__ZN9c4_Column11SetLocationEll
__ZN9c4_ColumnD1Ev
__ZN9c4_ColumnD2Ev
__ZN12c4_ColOfIntsC1EP10c4_Persisti
__ZN12c4_ColOfIntsC2EP10c4_Persisti
__ZNK9c4_Column11RequiresMapEv
__ZN12c4_ColOfInts14SetAccessWidthEi
__ZN12c4_ColOfInts11SetRowCountEi
__ZN9c4_Column13SetupSegmentsEv
__ZN10c4_ColIter4NextEi
__ZN10c4_ColIter4NextEv
__ZN9c4_Column10FetchBytesEliR8c4_Bytesb
__ZN12c4_ColOfInts7Get_64rEi
__ZN12c4_ColOfInts7Get_64iEi
__ZN12c4_ColOfInts7Get_32rEi
__ZN12c4_ColOfInts7Get_32iEi
__ZN12c4_ColOfInts7Get_16rEi
__ZN12c4_ColOfInts7Get_16iEi
__ZN12c4_ColOfInts6Get_8iEi
__ZN12c4_ColOfInts6Get_4bEi
__ZN12c4_ColOfInts6Get_2bEi
__ZN12c4_ColOfInts6Get_1bEi
__ZN9c4_Column7CopyNowEl
__ZN12c4_ColOfInts9FlipBytesEv
__ZN12c4_ColOfInts7Set_64rEiPKh
__ZN12c4_ColOfInts7Set_64iEiPKh
__ZN12c4_ColOfInts7Set_32rEiPKh
__ZN12c4_ColOfInts7Set_32iEiPKh
__ZN12c4_ColOfInts7Set_16rEiPKh
__ZN12c4_ColOfInts7Set_16iEiPKh
__ZN12c4_ColOfInts6Set_8iEiPKh
__ZN12c4_ColOfInts6Set_4bEiPKh
__ZN12c4_ColOfInts6Set_2bEiPKh
__ZN12c4_ColOfInts6Set_1bEiPKh
__ZN9c4_Column10StoreBytesElRK8c4_Bytes
__ZN9c4_Column7SaveNowER11c4_Strategyl
__ZN9c4_Column6ShrinkEll
__ZN9c4_Column10RemoveDataEll
__ZN9c4_Column4GrowEll
__ZN9c4_Column10InsertDataEllb
__ZN12c4_ColOfInts7FixSizeEb
__ZN12c4_ColOfInts3SetEiRK8c4_Bytes
__ZN12c4_ColOfInts6SetIntEil
__ZN12c4_ColOfInts6GetIntEi
__ZN12c4_ColOfInts10ResizeDataEiib
__ZN12c4_ColOfInts6RemoveEii
__ZN12c4_ColOfInts6InsertEiRK8c4_Bytesi
__ZN16c4_CustomHandlerC2ERK11c4_PropertyP12c4_CustomSeq
__ZN16c4_CustomHandlerC1ERK11c4_PropertyP12c4_CustomSeq
__ZN16c4_CustomHandlerD2Ev
__ZN16c4_CustomHandlerD1Ev
__ZN16c4_CustomHandlerD0Ev
__ZNK12c4_CustomSeq5DoGetEiiR8c4_Bytes
__ZN12c4_CustomSeq5DoSetEiiRK8c4_Bytes
__ZN16c4_CustomHandler6InsertEiRK8c4_Bytesi
__ZN16c4_CustomHandler6RemoveEii
__ZN12c4_CustomSeq13CreateHandlerERK11c4_Property
__ZN12c4_CustomSeqD2Ev
__ZN12c4_CustomSeqD1Ev
__ZN12c4_CustomSeqD0Ev
__ZNK12c4_CustomSeq7NumRowsEv
__ZN12c4_CustomSeq14RestrictSearchE9c4_CursorRiS1_
__ZN12c4_CustomSeq8InsertAtEi9c4_Cursori
__ZN12c4_CustomSeq8RemoveAtEii
__ZN12c4_CustomSeq4MoveEii
__ZN15c4_CustomViewerD2Ev
__ZN15c4_CustomViewerD1Ev
__ZN15c4_CustomViewerD0Ev
__ZN15c4_CustomViewer6LookupE9c4_CursorRi
__ZN15c4_CustomViewer7SetItemEiiRK8c4_Bytes
__ZN15c4_CustomViewer10InsertRowsEi9c4_Cursori
__ZN15c4_CustomViewer10RemoveRowsEii
__ZN14c4_SliceViewer11GetTemplateEv
__ZN14c4_SliceViewer7GetItemEiiR8c4_Bytes
__ZN14c4_SliceViewer7SetItemEiiRK8c4_Bytes
__ZN16c4_ProductViewer11GetTemplateEv
__ZN18c4_RemapWithViewer11GetTemplateEv
__ZN13c4_PairViewer11GetTemplateEv
__ZN15c4_ConcatViewer11GetTemplateEv
__ZN15c4_RenameViewer11GetTemplateEv
__ZN15c4_RenameViewer7GetItemEiiR8c4_Bytes
__ZN15c4_RenameViewer7SetItemEiiRK8c4_Bytes
__ZN17c4_JoinPropViewer11GetTemplateEv
__ZN13c4_JoinViewer11GetTemplateEv
__ZN13c4_JoinViewer7GetSizeEv
__ZN16c4_GroupByViewer7GetSizeEv
__ZN17c4_JoinPropViewer7GetSizeEv
__ZN13c4_JoinViewer7GetItemEiiR8c4_Bytes
__ZN14c4_SliceViewer10InsertRowsEi9c4_Cursori
__ZN13c4_PairViewer10InsertRowsEi9c4_Cursori
__ZN14c4_SliceViewer10RemoveRowsEii
__ZN13c4_PairViewer10RemoveRowsEii
__ZN16c4_GroupByViewer11GetTemplateEv
__ZN12c4_CustomSeqC2EP15c4_CustomViewer
__ZN12c4_CustomSeqC1EP15c4_CustomViewer
__ZN13c4_PairViewer7GetItemEiiR8c4_Bytes
__ZN13c4_PairViewer7SetItemEiiRK8c4_Bytes
__ZN16c4_GroupByViewer7GetItemEiiR8c4_Bytes
__ZN16c4_CustomHandler3SetEiRK8c4_Bytes
__ZN16c4_CustomHandler8ItemSizeEi
__ZN16c4_CustomHandler3GetEiRi
__ZN14c4_SliceViewer7GetSizeEv
__ZN16c4_ProductViewer7GetSizeEv
__ZN16c4_ProductViewer7GetItemEiiR8c4_Bytes
__ZN18c4_RemapWithViewer7GetSizeEv
__ZN13c4_PairViewer7GetSizeEv
__ZN15c4_ConcatViewer7GetSizeEv
__ZN15c4_ConcatViewer7GetItemEiiR8c4_Bytes
__ZN15c4_ConcatViewer7SetItemEiiRK8c4_Bytes
__ZN15c4_RenameViewer7GetSizeEv
__ZN18c4_RemapWithViewer7GetItemEiiR8c4_Bytes
__ZN18c4_RemapWithViewer7SetItemEiiRK8c4_Bytes
__ZNK16c4_GroupByViewer15ScanTransitionsEiiPhRK7c4_View
__ZN17c4_JoinPropViewer7GetItemEiiR8c4_Bytes
__ZN14c4_SliceViewerC2ER11c4_Sequenceiii
__ZN14c4_SliceViewerC1ER11c4_Sequenceiii
__Z12f4_CustSliceR11c4_Sequenceiii
__ZN14c4_SliceViewerD2Ev
__ZN14c4_SliceViewerD1Ev
__ZN14c4_SliceViewerD0Ev
__ZN16c4_ProductViewerC2ER11c4_SequenceRK7c4_View
__ZN16c4_ProductViewerC1ER11c4_SequenceRK7c4_View
__Z14f4_CustProductR11c4_SequenceRK7c4_View
__ZN16c4_ProductViewerD2Ev
__ZN16c4_ProductViewerD1Ev
__ZN16c4_ProductViewerD0Ev
__ZN18c4_RemapWithViewerC2ER11c4_SequenceRK7c4_View
__ZN18c4_RemapWithViewerC1ER11c4_SequenceRK7c4_View
__Z16f4_CustRemapWithR11c4_SequenceRK7c4_View
__ZN18c4_RemapWithViewerD2Ev
__ZN18c4_RemapWithViewerD1Ev
__ZN18c4_RemapWithViewerD0Ev
__ZN13c4_PairViewerC2ER11c4_SequenceRK7c4_View
__ZN13c4_PairViewerC1ER11c4_SequenceRK7c4_View
__Z11f4_CustPairR11c4_SequenceRK7c4_View
__ZN13c4_PairViewerD2Ev
__ZN13c4_PairViewerD1Ev
__ZN13c4_PairViewerD0Ev
__ZN15c4_ConcatViewerC2ER11c4_SequenceRK7c4_View
__ZN15c4_ConcatViewerC1ER11c4_SequenceRK7c4_View
__Z13f4_CustConcatR11c4_SequenceRK7c4_View
__ZN15c4_ConcatViewerD2Ev
__ZN15c4_ConcatViewerD1Ev
__ZN15c4_ConcatViewerD0Ev
__ZN15c4_RenameViewerC2ER11c4_SequenceRK11c4_PropertyS4_
__ZN15c4_RenameViewerC1ER11c4_SequenceRK11c4_PropertyS4_
__Z13f4_CustRenameR11c4_SequenceRK11c4_PropertyS3_
__ZN15c4_RenameViewerD2Ev
__ZN15c4_RenameViewerD1Ev
__ZN15c4_RenameViewerD0Ev
__ZN16c4_GroupByViewerC2ER11c4_SequenceRK7c4_ViewRK11c4_Property
__ZN16c4_GroupByViewerC1ER11c4_SequenceRK7c4_ViewRK11c4_Property
__Z14f4_CustGroupByR11c4_SequenceRK7c4_ViewRK11c4_Property
__ZN16c4_GroupByViewerD2Ev
__ZN16c4_GroupByViewerD1Ev
__ZN16c4_GroupByViewerD0Ev
__ZN17c4_JoinPropViewerC2ER11c4_SequenceRK11c4_ViewPropb
__ZN17c4_JoinPropViewerC1ER11c4_SequenceRK11c4_ViewPropb
__Z15f4_CustJoinPropR11c4_SequenceRK11c4_ViewPropb
__ZN17c4_JoinPropViewerD2Ev
__ZN17c4_JoinPropViewerD1Ev
__ZN17c4_JoinPropViewerD0Ev
__ZN13c4_JoinViewerC2ER11c4_SequenceRK7c4_ViewS4_b
__ZN13c4_JoinViewerC1ER11c4_SequenceRK7c4_ViewS4_b
__Z11f4_CustJoinR11c4_SequenceRK7c4_ViewS3_b
__ZN13c4_JoinViewerD2Ev
__ZN13c4_JoinViewerD1Ev
__ZN13c4_JoinViewerD0Ev
__ZN12c4_FilterSeq8InsertAtEi9c4_Cursori
__ZN12c4_FilterSeq8RemoveAtEii
__ZN12c4_FilterSeq3SetEiRK11c4_PropertyRK8c4_Bytes
__ZN12c4_FilterSeq7SetSizeEi
__ZNK10c4_SortSeq7CompareEi9c4_Cursor
__ZNK10c4_SortSeq8PosInMapE9c4_Cursor
__ZN10c4_SortSeq9PreChangeER11c4_Notifier
__ZN13c4_ProjectSeqD0Ev
__ZN13c4_ProjectSeq10AddHandlerEP10c4_Handler
__ZN13c4_ProjectSeq3GetEiiR8c4_Bytes
__ZN13c4_ProjectSeq3SetEiRK11c4_PropertyRK8c4_Bytes
__ZNK12c4_FilterSeq8MatchOneEiRK8c4_Bytes
__ZN10c4_SortSeq8LessThanEll
__ZNK12c4_FilterSeq7NumRowsEv
__ZNK13c4_ProjectSeq11NumHandlersEv
__ZNK13c4_ProjectSeq14HandlerContextEi
__ZNK13c4_ProjectSeq10NthHandlerEi
__ZNK12c4_FilterSeq8PosInMapEi
__ZN12c4_FilterSeq3GetEiiR8c4_Bytes
__ZNK12c4_FilterSeq7CompareEi9c4_Cursor
__ZNK12c4_FilterSeq10RemapIndexEiPK11c4_Sequence
__ZN12c4_FilterSeq15FixupReverseMapEv
__ZN10c4_SortSeq10PostChangeER11c4_Notifier
__ZNK12c4_FilterSeq5MatchEiR11c4_SequencePKiS3_
__ZN12c4_FilterSeq10PostChangeER11c4_Notifier
__ZN12c4_FilterSeq9PreChangeER11c4_Notifier
__ZN12c4_FilterSeqC2ER11c4_Sequence
__ZN12c4_FilterSeqC1ER11c4_Sequence
__ZN12c4_FilterSeqC2ER11c4_Sequence9c4_CursorS2_
__ZN12c4_FilterSeqC1ER11c4_Sequence9c4_CursorS2_
__Z15f4_CreateFilterR11c4_Sequence9c4_CursorS1_
__ZN12c4_FilterSeqD2Ev
__ZN10c4_SortSeqD0Ev
__ZN10c4_SortSeqD1Ev
__ZN10c4_SortSeqD2Ev
__ZN12c4_FilterSeqD1Ev
__ZN12c4_FilterSeqD0Ev
__ZN13c4_ProjectSeqC2ER11c4_SequenceS1_bPS0_
__ZN13c4_ProjectSeqC1ER11c4_SequenceS1_bPS0_
__Z16f4_CreateProjectR11c4_SequenceS0_bPS_
__ZN13c4_ProjectSeqD2Ev
__ZN13c4_ProjectSeqD1Ev
__ZN10c4_SortSeq13MergeSortThisEPliS0_
__ZN10c4_SortSeq9MergeSortEPli
__ZN10c4_SortSeqC1ER11c4_SequencePS0_
__Z13f4_CreateSortR11c4_SequencePS_
__ZN10c4_SortSeqC2ER11c4_SequencePS0_
__ZN13c4_FileStreamC1EP7__sFILEb
__ZN13c4_FileStreamD2Ev
__ZN13c4_FileStreamD1Ev
__ZN13c4_FileStreamD0Ev
__ZN13c4_FileStream4ReadEPvi
__ZN13c4_FileStream5WriteEPKvi
__ZNK15c4_FileStrategy7IsValidEv
__ZN15c4_FileStrategy8FileSizeEv
__ZN15c4_FileStrategy15FreshGenerationEv
__ZN15c4_FileStrategy16ResetFileMappingEv
__ZN15c4_FileStrategyD0Ev
__ZN15c4_FileStrategyD1Ev
__ZN15c4_FileStrategyD2Ev
__ZN15c4_FileStrategyC1EP7__sFILE
__ZN15c4_FileStrategyC2EP7__sFILE
__ZN15c4_FileStrategy8DataOpenEPKci
__ZN15c4_FileStrategy8DataReadElPvi
__ZN15c4_FileStrategy9DataWriteElPKvi
__ZN15c4_FileStrategy10DataCommitEl
__ZN13c4_FileStreamC2EP7__sFILEb
__ZNK8c4_Field11DescriptionEb
__ZNK8c4_Field17DescribeSubFieldsEb
__ZN8c4_FieldD1Ev
__ZN8c4_FieldD2Ev
__ZN8c4_FieldC1ERPKcPS_
__ZN8c4_FieldC2ERPKcPS_
__ZN16c4_FormatHandlerC2ERK11c4_PropertyR13c4_HandlerSeq
__ZN16c4_FormatHandlerC1ERK11c4_PropertyR13c4_HandlerSeq
__ZN16c4_FormatHandlerD2Ev
__ZN16c4_FormatHandlerD1Ev
__ZN16c4_FormatHandlerD0Ev
__ZNK16c4_FormatHandler12IsPersistentEv
__ZN10c4_FormatX9DoCompareERK8c4_BytesS2_
__ZN10c4_FormatX6CommitER14c4_SaveContext
__ZN10c4_FormatX6DefineEiPPKh
__ZN10c4_FormatX9FlipBytesEv
__ZN10c4_FormatX8ItemSizeEi
__ZN10c4_FormatX3GetEiRi
__ZN10c4_FormatX3SetEiRK8c4_Bytes
__ZN10c4_FormatX6InsertEiRK8c4_Bytesi
__ZN10c4_FormatX6RemoveEii
__ZN10c4_FormatX8UnmappedEv
__ZN10c4_FormatL6DefineEiPPKh
__ZN10c4_FormatD6DefineEiPPKh
__Z14f4_ClearFormatc
__ZN10c4_FormatL9DoCompareERK8c4_BytesS2_
__ZN10c4_FormatF9DoCompareERK8c4_BytesS2_
__ZN10c4_FormatD9DoCompareERK8c4_BytesS2_
__ZN10c4_FormatB9DoCompareERK8c4_BytesS2_
__ZN10c4_FormatX9OldDefineEcR10c4_Persist
__ZN10c4_FormatV9OldDefineEcR10c4_Persist
__ZN10c4_FormatV13ForgetSubviewEi
__ZN10c4_FormatV2AtEi
__ZN10c4_FormatB11InitOffsetsER12c4_ColOfInts
__ZN10c4_FormatB8UnmappedEv
__ZN10c4_FormatVD0Ev
__ZN10c4_FormatV6DefineEiPPKh
__ZN10c4_FormatV8UnmappedEv
__ZN10c4_FormatB6RemoveEii
__ZN10c4_FormatB6InsertEiRK8c4_Bytesi
__ZN10c4_FormatB13ItemLenOffColEiRlRP9c4_Column
__ZN10c4_FormatB6GetOneEiRi
__ZN10c4_FormatS3GetEiRi
__ZN10c4_FormatB3GetEiRi
__ZN10c4_FormatB8ItemSizeEi
__ZN10c4_FormatS9DoCompareERK8c4_BytesS2_
__ZN10c4_FormatVC2ERK11c4_PropertyR13c4_HandlerSeq
__ZN10c4_FormatVC1ERK11c4_PropertyR13c4_HandlerSeq
__ZN10c4_FormatVD2Ev
__ZN10c4_FormatVD1Ev
__ZN10c4_FormatB6DefineEiPPKh
__ZN10c4_FormatB6SetOneEiRK8c4_Bytesb
__ZN10c4_FormatB3SetEiRK8c4_Bytes
__ZN10c4_FormatS3SetEiRK8c4_Bytes
__ZN10c4_FormatS6InsertEiRK8c4_Bytesi
__ZN10c4_FormatV16SetupAllSubviewsEv
__ZN10c4_FormatV10HasSubviewEi
__ZN10c4_FormatV3GetEiRi
__ZN10c4_FormatV8ItemSizeEi
__ZN10c4_FormatV9FlipBytesEv
__ZN10c4_FormatV7ReplaceEiP13c4_HandlerSeq
__ZN10c4_FormatV3SetEiRK8c4_Bytes
__ZN10c4_FormatV6CommitER14c4_SaveContext
__ZN10c4_FormatV9DoCompareERK8c4_BytesS2_
__ZN10c4_FormatXC2ERK11c4_PropertyR13c4_HandlerSeqi
__ZN10c4_FormatDC1ERK11c4_PropertyR13c4_HandlerSeq
__ZN10c4_FormatDC2ERK11c4_PropertyR13c4_HandlerSeq
__ZN10c4_FormatFC1ERK11c4_PropertyR13c4_HandlerSeq
__ZN10c4_FormatFC2ERK11c4_PropertyR13c4_HandlerSeq
__ZN10c4_FormatLC1ERK11c4_PropertyR13c4_HandlerSeq
__ZN10c4_FormatLC2ERK11c4_PropertyR13c4_HandlerSeq
__ZN10c4_FormatXC1ERK11c4_PropertyR13c4_HandlerSeqi
__ZN10c4_FormatBC2ERK11c4_PropertyR13c4_HandlerSeq
__ZN10c4_FormatBC1ERK11c4_PropertyR13c4_HandlerSeq
__ZN10c4_FormatBD2Ev
__ZN10c4_FormatSC1ERK11c4_PropertyR13c4_HandlerSeq
__Z15f4_CreateFormatRK11c4_PropertyR13c4_HandlerSeq
__ZN10c4_FormatSC2ERK11c4_PropertyR13c4_HandlerSeq
__ZN10c4_FormatBD1Ev
__ZN10c4_FormatBD0Ev
__ZN10c4_FormatB13GetNthMemoColEib
__ZN10c4_FormatB6CommitER14c4_SaveContext
__ZN10c4_FormatV6InsertEiRK8c4_Bytesi
__ZN10c4_FormatV6RemoveEii
__Z16f4_CompareFormatcRK8c4_BytesS1_
__ZN10c4_FormatB9OldDefineEcR10c4_Persist
__ZN10c4_FormatS8ItemSizeEi
__ZN10c4_Handler6CommitER14c4_SaveContext
__ZN10c4_Handler9OldDefineEcR10c4_Persist
__ZNK13c4_HandlerSeq7PersistEv
__ZN13c4_HandlerSeq10DefineRootEv
__ZN13c4_HandlerSeq13CreateHandlerERK11c4_Property
__ZNK13c4_HandlerSeq10DefinitionEv
__ZN13c4_HandlerSeq10SetNumRowsEi
__ZN13c4_HandlerSeq10AddHandlerEP10c4_Handler
__ZNK13c4_HandlerSeq10ColumnTypeEi
__ZNK13c4_HandlerSeq8IsNestedEi
__ZN13c4_HandlerSeq12FlipAllBytesEv
__ZNK13c4_HandlerSeq5FieldEi
__ZNK10c4_Handler10ClearBytesER8c4_Bytes
__ZN10c4_Handler8GetBytesEiR8c4_Bytesb
__ZNK13c4_HandlerSeq8SubEntryEii
__ZN10c4_Handler7CompareEiRK8c4_Bytes
__ZN10c4_Handler4MoveEii
__ZN13c4_HandlerSeq11DescriptionEv
__ZNK13c4_HandlerSeq9NumFieldsEv
__ZN13c4_HandlerSeq10OldPrepareEv
__ZN13c4_HandlerSeq11UnmappedAllEv
__ZN13c4_HandlerSeq9BuildMetaEiiR7c4_ViewRK8c4_Field
__ZN13c4_HandlerSeqC2EP10c4_Persist
__ZN13c4_HandlerSeqC1EP10c4_Persist
__ZN13c4_HandlerSeq9FindFieldEPK10c4_Handler
__ZN13c4_HandlerSeqC2ERS_P10c4_Handler
__ZN13c4_HandlerSeqC1ERS_P10c4_Handler
__ZN13c4_HandlerSeq17DetachFromStorageEb
__ZN13c4_HandlerSeq19DetermineSpaceUsageEv
__ZN13c4_HandlerSeq11RestructureER8c4_Fieldb
__ZN13c4_HandlerSeq7PrepareEPPKhb
__ZN13c4_HandlerSeq16DetachFromParentEv
__ZN13c4_HandlerSeqD0Ev
__ZN13c4_HandlerSeqD1Ev
__ZN13c4_HandlerSeqD2Ev
__ZN13c4_HandlerSeq15ExchangeEntriesEiRS_i
__ZN11c4_FileMarkC2Ev
__ZN11c4_FileMarkC1Ev
__ZN11c4_FileMarkC2Elbb
__ZN11c4_FileMarkC1Elbb
__ZN11c4_FileMarkC2Eli
__ZN11c4_FileMarkC1Eli
__ZNK11c4_FileMark6OffsetEv
__ZNK11c4_FileMark9OldOffsetEv
__ZNK11c4_FileMark8IsHeaderEv
__ZNK11c4_FileMark9IsFlippedEv
__ZN12c4_Allocator4DumpEPKc
__ZNK14c4_SaveContext9IsFlippedEv
__ZNK14c4_SaveContext11SerializingEv
__ZNK10c4_Persist4RootEv
__ZN10c4_Persist7SetRootEP13c4_HandlerSeq
__ZNK10c4_Persist8StrategyEv
__ZN10c4_Persist10AutoCommitEb
__ZN10c4_Persist12DoAutoCommitEv
__ZNK10c4_Persist8GetAsideEv
__ZN10c4_Persist6LoadItER9c4_Column
__ZN10c4_Persist7OldReadEPhi
__ZN10c4_Persist13FetchOldValueEv
__ZN10c4_Persist16FetchOldLocationER9c4_Column
__ZN12c4_Allocator10InitializeEl
__ZNK12c4_Allocator6LocateEl
__ZNK12c4_Allocator15AllocationLimitEv
__ZN12c4_Allocator11ReduceFragsEiii
__ZN12c4_Allocator10InsertPairEill
__ZN12c4_Allocator7ReleaseEll
__ZN12c4_Allocator6OccupyEll
__ZN10c4_Persist11OccupySpaceEll
__ZN12c4_Allocator8AllocateEl
__ZN14c4_SaveContext9AllocDumpEPKcb
__ZN9c4_DifferC2ER10c4_Storage
__ZN9c4_DifferC1ER10c4_Storage
__ZN9c4_DifferD2Ev
__ZN9c4_DifferD1Ev
__ZN10c4_PersistD1Ev
__ZN14c4_SaveContext11FlushBufferEv
__ZN14c4_SaveContext10StoreValueEl
__ZN14c4_SaveContext5WriteEPKvi
__ZN14c4_SaveContext14CommitSequenceER13c4_HandlerSeqb
__ZN14c4_SaveContext13SetWalkBufferEP9c4_Column
__ZN10c4_PersistD2Ev
__ZN14c4_SaveContextD1Ev
__ZN14c4_SaveContextD2Ev
__ZN12c4_AllocatorC2Ev
__ZN12c4_AllocatorC1Ev
__ZN10c4_PersistC1ER11c4_Strategybi
__ZN10c4_PersistC2ER11c4_Strategybi
__ZN14c4_SaveContextC1ER11c4_StrategybiP9c4_DifferP12c4_Allocator
__ZN14c4_SaveContextC2ER11c4_StrategybiP9c4_DifferP12c4_Allocator
__ZNK11c4_FileMark11IsOldHeaderEv
__ZN9c4_Differ9NewDiffIDEv
__ZN10c4_Persist4LoadEP9c4_Stream
__ZN9c4_Differ8AddEntryEllRK8c4_Bytes
__ZN9c4_Differ10CreateDiffEiR9c4_Column
__ZN14c4_SaveContext12CommitColumnER9c4_Column
__ZN9c4_Differ10BaseOfDiffEi
__ZN10c4_Persist11LookupAsideEi
__ZNK9c4_Differ9ApplyDiffEiR9c4_Column
__ZN10c4_Persist10ApplyAsideEiR9c4_Column
__ZN9c4_Differ7GetRootER8c4_Bytes
__ZN14c4_SaveContext6SaveItER13c4_HandlerSeqPP12c4_AllocatorR8c4_Bytes
__ZN10c4_Persist4SaveEP9c4_StreamR13c4_HandlerSeq
__ZN10c4_Persist6CommitEb
__ZN10c4_Persist7LoadAllEv
__ZN10c4_Persist8RollbackEb
__ZN10c4_Persist8SetAsideER10c4_Storage
__ZN13c4_HashViewer11GetTemplateEv
__ZN13c4_HashViewer7GetItemEiiR8c4_Bytes
__ZN16c4_OrderedViewer11GetTemplateEv
__ZN16c4_OrderedViewer7GetItemEiiR8c4_Bytes
__ZN16c4_IndexedViewer11GetTemplateEv
__ZN16c4_IndexedViewer7GetItemEiiR8c4_Bytes
__ZN16c4_IndexedViewer7SetItemEiiRK8c4_Bytes
__Z17f4_CreateReadOnlyR11c4_Sequence
__ZN16c4_BlockedViewer4SlotERi
__ZN16c4_BlockedViewer7GetSizeEv
__ZN16c4_OrderedViewer10InsertRowsEi9c4_Cursori
__ZN16c4_IndexedViewer10InsertRowsEi9c4_Cursori
__ZNK13c4_HashViewer7KeySameEi9c4_Cursor
__ZNK13c4_HashViewer8CalcHashE9c4_Cursor
__ZNK16c4_OrderedViewer10KeyCompareEi9c4_Cursor
__ZN16c4_BlockedViewerD0Ev
__ZN16c4_OrderedViewerC2ER11c4_Sequencei
__ZN16c4_OrderedViewerC1ER11c4_Sequencei
__Z16f4_CreateOrderedR11c4_Sequencei
__ZN16c4_OrderedViewerD2Ev
__ZN16c4_OrderedViewerD1Ev
__ZN16c4_OrderedViewerD0Ev
__ZN16c4_IndexedViewerD0Ev
__ZN13c4_HashViewerD2Ev
__ZN13c4_HashViewerD1Ev
__ZN13c4_HashViewerD0Ev
__ZN16c4_IndexedViewerD2Ev
__ZN16c4_IndexedViewerD1Ev
__ZN16c4_BlockedViewerD2Ev
__ZN16c4_BlockedViewerD1Ev
__ZNK16c4_IndexedViewer10KeyCompareEi9c4_Cursor
__ZN16c4_OrderedViewer10RemoveRowsEii
__ZN13c4_HashViewer7GetSizeEv
__ZN16c4_OrderedViewer7GetSizeEv
__ZN16c4_OrderedViewer6LookupE9c4_CursorRi
__ZN16c4_IndexedViewer7GetSizeEv
__ZN16c4_IndexedViewer6LookupE9c4_CursorRi
__ZNK13c4_HashViewer8IsUnusedEi
__ZNK13c4_HashViewer7IsDummyEi
__ZNK13c4_HashViewer7GetPolyEv
__ZN13c4_HashViewer7SetPolyEi
__ZN13c4_HashViewer8SetSpareEi
__ZNK13c4_HashViewer8LookDictEl9c4_Cursor
__ZN13c4_HashViewer6LookupE9c4_CursorRi
__ZNK13c4_HashViewer8GetSpareEv
__ZN13c4_HashViewer10RemoveDictEi
__ZN13c4_HashViewer10InsertDictEi
__ZN13c4_HashViewer7SetItemEiiRK8c4_Bytes
__ZN13c4_HashViewer10DictResizeEi
__ZN13c4_HashViewer10RemoveRowsEii
__ZN13c4_HashViewer10InsertRowsEi9c4_Cursori
__ZN13c4_HashViewerC1ER11c4_SequenceiPS0_
__Z13f4_CreateHashR11c4_SequenceiPS_
__ZN13c4_HashViewerC2ER11c4_SequenceiPS0_
__ZN16c4_BlockedViewerC2ER11c4_Sequence
__ZN16c4_BlockedViewerC1ER11c4_Sequence
__Z16f4_CreateBlockedR11c4_Sequence
__ZN16c4_BlockedViewer5SplitEii
__ZN16c4_BlockedViewer5MergeEi
__ZN16c4_BlockedViewer11GetTemplateEv
__ZN16c4_BlockedViewer7GetItemEiiR8c4_Bytes
__ZN16c4_BlockedViewer7SetItemEiiRK8c4_Bytes
__ZN16c4_BlockedViewer10InsertRowsEi9c4_Cursori
__ZN16c4_BlockedViewer10RemoveRowsEii
__ZN16c4_OrderedViewer7SetItemEiiRK8c4_Bytes
__ZN16c4_IndexedViewerC2ER11c4_SequenceS1_RK7c4_Viewb
__ZN16c4_IndexedViewerC1ER11c4_SequenceS1_RK7c4_Viewb
__Z16f4_CreateIndexedR11c4_SequenceS0_RK7c4_Viewb
__ZN16c4_IndexedViewer10RemoveRowsEii
__ZN15c4_DependenciesD1Ev
__ZN10c4_Storage4ViewEPKc
__ZN10c4_Storage6SaveToER9c4_Stream
__ZN13c4_DerivedSeqC2ER11c4_Sequence
__ZN13c4_DerivedSeqC1ER11c4_Sequence
__ZN13c4_DerivedSeqD2Ev
__ZN13c4_DerivedSeqD1Ev
__ZN13c4_DerivedSeqD0Ev
__ZNK13c4_DerivedSeq10RemapIndexEiPK11c4_Sequence
__ZNK13c4_DerivedSeq7NumRowsEv
__ZNK13c4_DerivedSeq11NumHandlersEv
__ZNK13c4_DerivedSeq10NthHandlerEi
__ZNK13c4_DerivedSeq14HandlerContextEi
__ZN13c4_DerivedSeq10AddHandlerEP10c4_Handler
__ZN13c4_DerivedSeq13CreateHandlerERK11c4_Property
__ZN13c4_DerivedSeq10SetNumRowsEi
__ZN17c4_StreamStrategyC2El
__ZN17c4_StreamStrategyC1El
__ZN17c4_StreamStrategyC2EP9c4_Stream
__ZN17c4_StreamStrategyC1EP9c4_Stream
__ZN17c4_StreamStrategyD2Ev
__ZN17c4_StreamStrategyD1Ev
__ZN17c4_StreamStrategyD0Ev
__ZNK17c4_StreamStrategy7IsValidEv
__ZN17c4_StreamStrategy8DataReadElPvi
__ZN17c4_StreamStrategy9DataWriteElPKvi
__ZN17c4_StreamStrategy8FileSizeEv
__ZN15c4_DependenciesC2Ev
__ZN15c4_DependenciesC1Ev
__ZN15c4_DependenciesD2Ev
__ZN15c4_Dependencies3AddEP11c4_Sequence
__ZN15c4_Dependencies6RemoveEP11c4_Sequence
__ZN11c4_NotifierD1Ev
__ZN11c4_NotifierD2Ev
__ZN11c4_Notifier6NotifyEv
__ZN11c4_Notifier8StartSetEiiRK8c4_Bytes
__ZN11c4_Notifier9StartMoveEii
__ZN11c4_Notifier13StartRemoveAtEii
__ZN11c4_Notifier13StartInsertAtEiR9c4_Cursori
__ZN11c4_Notifier10StartSetAtEiR9c4_Cursor
__ZN10c4_Storage10InitializeER11c4_Strategybi
__ZN10c4_StorageD2Ev
__ZN10c4_StorageC1Ev
__ZN10c4_StorageC2Ev
__ZN10c4_StorageD1Ev
__ZN10c4_Storage11DescriptionEPKc
__ZN10c4_StorageC2ER11c4_Strategybi
__ZN10c4_StorageC1ER11c4_Strategybi
__ZN10c4_StorageC2EPKci
__ZN10c4_StorageC1EPKci
__ZN10c4_StorageC2ERK7c4_View
__ZN10c4_StorageC1ERK7c4_View
__ZN10c4_Storage12SetStructureEPKc
__ZN10c4_Storage8LoadFromER9c4_Stream
__ZN10c4_Storage5GetAsEPKc
__ZNK10c4_Storage8StrategyEv
__ZN10c4_Storage8SetAsideERS_
__ZNK10c4_Storage8GetAsideEv
__ZN10c4_Storage6CommitEb
__ZN10c4_Storage8RollbackEb
__ZN10c4_Storage10AutoCommitEb
__ZN13c4_DerivedSeq9PreChangeER11c4_Notifier
__ZN9c4_StringC2Eci
__ZN9c4_StringC1Eci
__ZNK9c4_String10FullLengthEv
__ZN9c4_String4InitEPKvi
__ZN9c4_StringC1EPKc
__ZN9c4_StringC2EPKc
__ZNK9c4_String7CompareEPKc
__ZNK9c4_String13CompareNoCaseEPKc
__ZNK9c4_String4FindEc
__ZNK9c4_String11ReverseFindEc
__ZNK9c4_String9FindOneOfEPKc
__ZNK9c4_String4FindEPKc
__ZN9c4_StringD2Ev
__ZN9c4_StringD1Ev
__ZN9c4_StringC2ERKS_
__ZN9c4_StringC1ERKS_
__ZN9c4_StringaSERKS_
__ZplRK9c4_StringS1_
__ZNK9c4_String3MidEii
__ZNK9c4_String4LeftEi
__ZNK9c4_String13SpanExcludingEPKc
__ZNK9c4_String13SpanIncludingEPKc
__ZNK9c4_String5RightEi
__ZeqRK9c4_StringS1_
__ZN8c4_Bytes4SwapERS_
__ZN8c4_Bytes9_MakeCopyEv
__ZN8c4_BytesC1ERKS_
__ZN8c4_BytesC2ERKS_
__ZN8c4_BytesC1EPKvib
__ZN8c4_BytesC2EPKvib
__ZN8c4_Bytes9SetBufferEi
__ZN8c4_Bytes14SetBufferClearEi
__ZeqRK8c4_BytesS1_
__ZN8c4_BytesaSERKS_
__ZN12c4_BaseArrayC1Ev
__ZN12c4_BaseArrayC2Ev
__ZN12c4_BaseArray9SetLengthEi
__ZN12c4_BaseArray4GrowEi
__ZN12c4_BaseArrayD1Ev
__ZN12c4_BaseArrayD2Ev
__ZN12c4_BaseArray8InsertAtEii
__ZN12c4_BaseArray8RemoveAtEii
__ZN13c4_DWordArray8RemoveAtEii
__ZN11c4_PtrArray8RemoveAtEii
__ZN14c4_StringArray5SetAtEiPKc
__ZN14c4_StringArray8RemoveAtEii
__ZN11c4_PtrArray8InsertAtEiPvi
__ZN14c4_StringArray8InsertAtEiPKci
__ZN13c4_DWordArray8InsertAtEili
__ZN14c4_StringArray7SetSizeEii
__ZN14c4_StringArrayD2Ev
__ZN14c4_StringArrayD1Ev
__ZN13c4_DWordArray3AddEl
__ZN11c4_PtrArray3AddEPv
__ZN14c4_StringArray3AddEPKc
__ZN7c4_View11AddPropertyERK11c4_Property
__ZNK11c4_Property4NameEv
__ZN6c4_Row8AllocateEv
__ZN6c4_Row7ReleaseE9c4_Cursor
__ZN6c4_Row9ConcatRowERK9c4_RowRef
__ZN11c4_Property19CleanupInternalDataEv
__ZNK11c4_Property4RefsEi
__ZNK7c4_View10GetIndexOfERK9c4_RowRef
__ZN7c4_View14RestrictSearchERK9c4_RowRefRiS3_
__ZN6c4_RowaSERK9c4_RowRef
__ZN6c4_RowaSERKS_
__ZN6c4_RowC1ERK9c4_RowRef
__ZNK7c4_View11NthPropertyEi
__ZNK7c4_View7SetItemEiiRK8c4_Bytes
__ZNK7c4_View7GetItemEiiR8c4_Bytes
__ZN6c4_RowC2Ev
__ZN6c4_RowC1Ev
__ZN6c4_RowC2ERK9c4_RowRef
__ZN7c4_ViewC2EP11c4_Sequence
__ZN7c4_ViewC1EP11c4_Sequence
__ZNK7c4_View14ProjectWithoutERKS_
__ZNK7c4_View7ProjectERKS_
__ZNK7c4_View11SelectRangeERK9c4_RowRefS2_
__ZNK7c4_View6SelectERK9c4_RowRef
__ZNK7c4_View13SortOnReverseERKS_S1_
__ZNK7c4_View6SortOnERKS_
__ZNK7c4_View4SortEv
__ZN7c4_ViewC2EP15c4_CustomViewer
__ZN7c4_ViewC1EP15c4_CustomViewer
__ZNK7c4_View7IndexedERKS_S1_b
__ZNK7c4_View7OrderedEi
__ZNK7c4_View7BlockedEv
__ZNK7c4_View4HashERKS_i
__ZNK7c4_View8ReadOnlyEv
__ZNK7c4_View4JoinERKS_S1_b
__ZNK7c4_View8JoinPropERK11c4_ViewPropb
__ZNK7c4_View6CountsERKS_RK10c4_IntProp
__ZNK7c4_View7GroupByERKS_RK11c4_ViewProp
__ZNK7c4_View6RenameERK11c4_PropertyS2_
__ZNK7c4_View6ConcatERKS_
__ZNK7c4_View4PairERKS_
__ZNK7c4_View9RemapWithERKS_
__ZNK7c4_View7ProductERKS_
__ZNK7c4_View5SliceEiii
__ZN7c4_ViewC2EP9c4_Stream
__ZN7c4_ViewC1EP9c4_Stream
__ZN7c4_ViewC2ERK11c4_Property
__ZN7c4_ViewC1ERK11c4_Property
__ZN7c4_ViewC2ERKS_
__ZN7c4_ViewC1ERKS_
__ZN7c4_ViewaSERKS_
__ZNK7c4_View5CloneEv
__ZNK7c4_View19FindPropIndexByNameEPKc
__ZNK7c4_View16IsCompatibleWithERKS_
__ZN7c4_View9SetAtGrowEiRK9c4_RowRef
__ZN7c4_View3AddERK9c4_RowRef
__ZNK7c4_View6SearchERK9c4_RowRef
__ZNK7c4_View6LocateERK9c4_RowRefPi
__ZNK7c4_View7CompareERKS_
__ZN6c4_RowD2Ev
__ZN6c4_RowD1Ev
__ZN7c4_View8InsertAtEiRKS_
__ZNK7c4_View9DuplicateEv
__ZN7c4_View12RelocateRowsEiiRS_i
__ZNK7c4_View4FindERK9c4_RowRefi
__ZplRK9c4_RowRefS1_
__ZNK7c4_ViewcmERK11c4_Property
__ZN6c4_RowC2ERKS_
__ZN6c4_RowC1ERKS_
__ZN11c4_PropertyC2EcPKc
__ZN11c4_PropertyC1EcPKc
__ZN11c4_PropertyC2ERKS_
__ZN11c4_PropertyC1ERKS_
__ZN11c4_PropertyD2Ev
__ZNK7c4_View9DifferentERKS_
__ZNK7c4_View6UniqueEv
__ZNK7c4_View5UnionERKS_
__ZNK7c4_View9IntersectERKS_
__ZNK7c4_View5MinusERKS_
__ZN11c4_PropertyD1Ev
__ZN11c4_PropertyaSERKS_
__ZN11c4_Sequence6IncRefEv
__ZN11c4_Sequence6DecRefEv
__ZN11c4_Sequence6ResizeEii
__ZN10c4_ViewRefaSERK7c4_View
__ZN11c4_SequenceC2Ev
__ZN11c4_SequenceC1Ev
__ZN11c4_Sequence10ClearCacheEv
__ZNK11c4_Sequence7PersistEv
__ZNK11c4_Sequence7NumRefsEv
__ZN11c4_Sequence14RestrictSearchE9c4_CursorRiS1_
__ZNK11c4_Sequence10RemapIndexEiPKS_
__ZN11c4_Sequence11DescriptionEv
__ZN11c4_Sequence9PreChangeER11c4_Notifier
__ZN11c4_Sequence10PostChangeER11c4_Notifier
__ZN9c4_StreamD2Ev
__ZN9c4_StreamD1Ev
__ZN9c4_StreamD0Ev
__ZN11c4_StrategyC2Ev
__ZN11c4_StrategyC1Ev
__ZN11c4_StrategyD2Ev
__ZN11c4_StrategyD1Ev
__ZN11c4_StrategyD0Ev
__ZN11c4_Strategy8DataReadElPvi
__ZN11c4_Strategy9DataWriteElPKvi
__ZN11c4_Strategy10DataCommitEl
__ZN11c4_Strategy16ResetFileMappingEv
__ZN11c4_Strategy8FileSizeEv
__ZN11c4_Strategy15FreshGenerationEv
__ZN11c4_Strategy7SetBaseEl
__ZN11c4_Strategy9EndOfDataEl
__ZN11c4_Sequence6BufferEv
__ZN11c4_Sequence13UseTempBufferEPKc
__ZNK11c4_Sequence9NthPropIdEi
__ZN11c4_Sequence9PropIndexEi
__ZN11c4_Sequence3GetEiiR8c4_Bytes
__ZN11c4_Sequence8ItemSizeEii
__ZN11c4_Sequence8RemoveAtEii
__ZN11c4_Sequence4MoveEii
__ZNK11c4_Sequence7CompareEi9c4_Cursor
__ZN11c4_Sequence9PropIndexERK11c4_Property
__ZN11c4_Sequence8InsertAtEi9c4_Cursori
__ZN11c4_Sequence5SetAtEi9c4_Cursor
__ZN11c4_Sequence3SetEiRK11c4_PropertyRK8c4_Bytes
__ZeqRK12c4_ReferenceS1_
__ZNK9c4_IntRefcvlEv
__ZNK10c4_LongRefcvxEv
__ZNK11c4_FloatRefcvdEv
__ZNK12c4_DoubleRefcvdEv
__ZNK11c4_BytesRefcv8c4_BytesEv
__ZNK11c4_BytesRef6AccessEli
__ZNK12c4_StringRefcvPKcEv
__ZNK10c4_ViewRefcv7c4_ViewEv
__ZN11c4_Sequence6AttachEPS_
__ZN12c4_ReferenceaSERKS_
__ZN9c4_IntRefaSEl
__ZN10c4_LongRefaSEx
__ZN11c4_FloatRefaSEd
__ZN12c4_DoubleRefaSEd
__ZN11c4_BytesRefaSERK8c4_Bytes
__ZNK11c4_BytesRef6ModifyERK8c4_Bytesli
__ZN12c4_StringRefaSEPKc
__ZN11c4_Sequence6DetachEPS_
__ZN11c4_SequenceD2Ev
__ZN11c4_SequenceD1Ev
__ZN11c4_SequenceD0Ev
__ZN12c4_TclStreamD0Ev.eh
__ZN12c4_TclStream5WriteEPKvi.eh
__ZN3Tcl4FailEPKci.eh
__ZN3Tcl16tcl_SetObjResultEP7Tcl_Obj.eh
__ZN3Tcl17tcl_ListObjLengthEP7Tcl_Obj.eh
__ZN3Tcl21tcl_GetBooleanFromObjEP7Tcl_Obj.eh
__ZN3Tcl17tcl_GetIntFromObjEP7Tcl_Obj.eh
__ZN3Tcl18tcl_GetLongFromObjEP7Tcl_Obj.eh
__ZN3Tcl20tcl_GetDoubleFromObjEP7Tcl_Obj.eh
__ZN3Tcl19tcl_GetIndexFromObjEP7Tcl_ObjPPKcPc.eh
__ZN3Tcl15tcl_ExprLongObjEP7Tcl_Obj.eh
__ZN3Tcl9list2descEP7Tcl_ObjS1_.eh
__ZN5MkTclC1EP11MkWorkspaceP10Tcl_InterpiPKc.eh
__Z11f4_GetTokenRPKc.eh
__Z10AsPropertyP7Tcl_ObjRK7c4_View.eh
__ZN11MkWorkspace4ItemC2EPKcS2_iR11c4_PtrArrayib.eh
__ZN11MkWorkspace4ItemC1EPKcS2_iR11c4_PtrArrayib.eh
__ZN11MkWorkspaceC2EP10Tcl_Interp.eh
__ZN11MkWorkspaceC1EP10Tcl_Interp.eh
__ZN11TclSelector10GetAsPropsEP7Tcl_Obj.eh
__ZN11TclSelectorD1Ev.eh
__ZN11TclSelectorD2Ev.eh
__ZN11TclSelectorC1EP10Tcl_InterpRK7c4_View.eh
__ZN11TclSelectorC2EP10Tcl_InterpRK7c4_View.eh
__ZN11MkWorkspace4Item12ForceRefreshEv.eh
__ZN11MkWorkspace4ItemD1Ev.eh
__ZN11MkWorkspace4ItemD2Ev.eh
__ZN5MkTclC2EP11MkWorkspaceP10Tcl_InterpiPKc.eh
__Z8SetAsObjP10Tcl_InterpRK9c4_RowRefRK11c4_PropertyP7Tcl_Obj.eh
__ZN5MkTcl9SetValuesERK9c4_RowRefiPKP7Tcl_Obj.eh
__ZN11TclSelector12AddConditionEiP7Tcl_ObjS1_.eh
__ZN11MkWorkspace15CleanupCommandsEv.eh
__ZN11MkWorkspaceD2Ev.eh
__ZN11MkWorkspaceD1Ev.eh
__ZNK11MkWorkspace4FindEPKc.eh
__ZN11MkWorkspace6DefineEPKcS1_ib.eh
__ZN11MkWorkspace12AllocTempRowEv.eh
__ZN11MkWorkspace10ForgetPathEPK6MkPath.eh
__ZN6MkPathD1Ev.eh
__ZN6MkPath4RefsEi.eh
__ZN6MkPathD2Ev.eh
__Z15MatchOneKeywordPKcRK9c4_String.eh
__ZN11TclSelector14MatchOneStringEiPKcRK9c4_String.eh
__ZN11MkWorkspace10InvalidateERK6MkPath.eh
__ZN6MkPath10AttachViewEP10Tcl_Interp.eh
__ZN6MkPathC1ER11MkWorkspaceRPKcP10Tcl_Interp.eh
__ZN11MkWorkspace7AddPathERPKcP10Tcl_Interp.eh
__Z16SetCursorFromAnyP10Tcl_InterpP7Tcl_Obj.eh
__ZN5MkTcl11changeIndexEP7Tcl_Obj.eh
__ZN5MkTcl6asViewEP7Tcl_Obj.eh
__ZN6MkPathC2ER11MkWorkspaceRPKcP10Tcl_Interp.eh
__Z8GetAsObjRK9c4_RowRefRK11c4_PropertyP7Tcl_Obj.eh
__ZN11TclSelector5MatchERK9c4_RowRef.eh
__ZN11TclSelector13ExactKeyPropsERK9c4_RowRef.eh
__ZN11TclSelector8DoSelectEP7Tcl_ObjP7c4_View.eh
__ZN3Tcl24tcl_ListObjAppendElementEP7Tcl_ObjS1_.eh
__ZN3Tcl8GetValueERK9c4_RowRefRK11c4_PropertyP7Tcl_Obj.eh
__ZN5MkTcl8asRowRefEP7Tcl_Obji.eh
__ZN5MkTcl6RowCmdEv.eh
__ZN5MkTcl6GetCmdEv.eh
__ZN5MkTcl6SetCmdEv.eh
__ZN5MkTcl7FileCmdEv.eh
__ZN5MkTcl7ViewCmdEv.eh
__ZN5MkTcl7LoopCmdEv.eh
__ZN5MkTcl9CursorCmdEv.eh
__ZN5MkTcl9SelectCmdEv.eh
__ZN5MkTcl10ChannelCmdEv.eh
__ZN5MkTcl7ExecuteEiPKP7Tcl_Obj.eh
__ZN5MkTcl10DispatcherEPvP10Tcl_InterpiPKP7Tcl_Obj.eh
__ZN6MkView9SetValuesERK9c4_RowRefiPKP7Tcl_ObjR7c4_View.eh
__ZN6MkView8CloseCmdEv.eh
__ZN6MkView7FindCmdEv.eh
__ZN6MkView7LoopCmdEv.eh
__ZN6MkViewD2Ev.eh
__ZN6MkViewD1Ev.eh
__ZN6MkView10DeleteProcEPv.eh
__ZN6MkView4ViewEP10Tcl_InterpP7Tcl_Obj.eh
__ZN6MkView8RegisterEPKc.eh
__ZN6MkView7ExecuteEiPKP7Tcl_Obj.eh
__ZN6MkView10DispatcherEPvP10Tcl_InterpiPKP7Tcl_Obj.eh
__ZN6MkView7ViewCmdEv.eh
__ZN6MkView7InfoCmdEv.eh
__ZN6MkView7asIndexER7c4_ViewP7Tcl_Objb.eh
__ZN6MkView11RestrictCmdEv.eh
__ZN6MkView9InsertCmdEv.eh
__ZN6MkView9ExistsCmdEv.eh
__ZN6MkView9DeleteCmdEv.eh
__ZN6MkView7SizeCmdEv.eh
__ZN6MkView6GetCmdEv.eh
__ZN6MkView9SearchCmdEv.eh
__ZN6MkView6SetCmdEv.eh
__ZN6MkViewC2EP10Tcl_Interp7c4_ViewPKc.eh
__ZN6MkViewC1EP10Tcl_Interp7c4_ViewPKc.eh
__ZN6MkView9UniqueCmdEv.eh
__ZN6MkViewC2EP10Tcl_InterpPKc.eh
__ZN6MkViewC1EP10Tcl_InterpPKc.eh
__ZN6MkView7OpenCmdEv.eh
__ZN6MkView9SelectCmdEv.eh
__ZN6MkView10BlockedCmdEv.eh
__ZN6MkView6DupCmdEv.eh
__ZN6MkView8CloneCmdEv.eh
__ZN6MkView9ConcatCmdEv.eh
__ZN6MkView12DifferentCmdEv.eh
__ZN6MkView7CopyCmdEv.eh
__ZN6MkView10FlattenCmdEv.eh
__ZN6MkView10GroupByCmdEv.eh
__ZN6MkView7HashCmdEv.eh
__ZN6MkView10IndexedCmdEv.eh
__ZN6MkView12IntersectCmdEv.eh
__ZN6MkView7JoinCmdEv.eh
__ZN6MkView6MapCmdEv.eh
__ZN6MkView8MinusCmdEv.eh
__ZN6MkView10OrderedCmdEv.eh
__ZN6MkView7PairCmdEv.eh
__ZN6MkView10ProductCmdEv.eh
__ZN6MkView10ProjectCmdEv.eh
__ZN6MkView8RangeCmdEv.eh
__ZN6MkView11ReadOnlyCmdEv.eh
__ZN6MkView9RenameCmdEv.eh
__ZN6MkView8UnionCmdEv.eh
__ZN12c4_ColOfInts3GetEiRi.eh
__ZN9c4_ColumnC2EP10c4_Persist.eh
__ZN9c4_ColumnC1EP10c4_Persist.eh
__ZN9c4_Column12PullLocationERPKh.eh
__ZNK9c4_Column8IsMappedEv.eh
__ZNK9c4_Column7UsesMapEPKh.eh
__ZN9c4_Column8CopyDataElli.eh
__ZN9c4_Column11MoveGapDownEl.eh
__ZN9c4_Column9MoveGapUpEl.eh
__ZN9c4_Column14ReleaseSegmentEi.eh
__ZN9c4_Column11FinishSlackEv.eh
__ZN9c4_Column9RemoveGapEv.eh
__ZN9c4_Column9MoveGapToEl.eh
__ZN9c4_Column18ReleaseAllSegmentsEv.eh
__ZN9c4_Column11SetLocationEll.eh
__ZN9c4_ColumnD1Ev.eh
__ZN9c4_ColumnD2Ev.eh
__ZN12c4_ColOfIntsC1EP10c4_Persisti.eh
__ZN12c4_ColOfIntsC2EP10c4_Persisti.eh
__ZNK9c4_Column11RequiresMapEv.eh
__ZN12c4_ColOfInts14SetAccessWidthEi.eh
__ZN9c4_Column13SetupSegmentsEv.eh
__ZN10c4_ColIter4NextEi.eh
__ZN10c4_ColIter4NextEv.eh
__ZN9c4_Column10FetchBytesEliR8c4_Bytesb.eh
__ZN12c4_ColOfInts7Get_64rEi.eh
__ZN12c4_ColOfInts7Get_64iEi.eh
__ZN12c4_ColOfInts7Get_32rEi.eh
__ZN12c4_ColOfInts7Get_32iEi.eh
__ZN12c4_ColOfInts7Get_16rEi.eh
__ZN12c4_ColOfInts7Get_16iEi.eh
__ZN12c4_ColOfInts6Get_8iEi.eh
__ZN12c4_ColOfInts6Get_4bEi.eh
__ZN12c4_ColOfInts6Get_2bEi.eh
__ZN12c4_ColOfInts6Get_1bEi.eh
__ZN9c4_Column7CopyNowEl.eh
__ZN12c4_ColOfInts9FlipBytesEv.eh
__ZN12c4_ColOfInts7Set_64rEiPKh.eh
__ZN12c4_ColOfInts7Set_64iEiPKh.eh
__ZN12c4_ColOfInts7Set_32rEiPKh.eh
__ZN12c4_ColOfInts7Set_32iEiPKh.eh
__ZN12c4_ColOfInts7Set_16rEiPKh.eh
__ZN12c4_ColOfInts7Set_16iEiPKh.eh
__ZN12c4_ColOfInts6Set_8iEiPKh.eh
__ZN12c4_ColOfInts6Set_4bEiPKh.eh
__ZN12c4_ColOfInts6Set_2bEiPKh.eh
__ZN12c4_ColOfInts6Set_1bEiPKh.eh
__ZN9c4_Column10StoreBytesElRK8c4_Bytes.eh
__ZN9c4_Column7SaveNowER11c4_Strategyl.eh
__ZN9c4_Column6ShrinkEll.eh
__ZN9c4_Column4GrowEll.eh
__ZN9c4_Column10InsertDataEllb.eh
__ZN12c4_ColOfInts3SetEiRK8c4_Bytes.eh
__ZN12c4_ColOfInts6SetIntEil.eh
__ZN12c4_ColOfInts6GetIntEi.eh
__ZN12c4_ColOfInts10ResizeDataEiib.eh
__ZN12c4_ColOfInts6InsertEiRK8c4_Bytesi.eh
__ZN16c4_CustomHandlerC2ERK11c4_PropertyP12c4_CustomSeq.eh
__ZN16c4_CustomHandlerC1ERK11c4_PropertyP12c4_CustomSeq.eh
__ZN16c4_CustomHandlerD0Ev.eh
__ZN12c4_CustomSeq13CreateHandlerERK11c4_Property.eh
__ZN12c4_CustomSeqD2Ev.eh
__ZN12c4_CustomSeqD1Ev.eh
__ZN12c4_CustomSeqD0Ev.eh
__ZN12c4_CustomSeq14RestrictSearchE9c4_CursorRiS1_.eh
__ZN15c4_CustomViewer6LookupE9c4_CursorRi.eh
__ZN14c4_SliceViewer11GetTemplateEv.eh
__ZN14c4_SliceViewer7GetItemEiiR8c4_Bytes.eh
__ZN14c4_SliceViewer7SetItemEiiRK8c4_Bytes.eh
__ZN16c4_ProductViewer11GetTemplateEv.eh
__ZN18c4_RemapWithViewer11GetTemplateEv.eh
__ZN13c4_PairViewer11GetTemplateEv.eh
__ZN15c4_ConcatViewer11GetTemplateEv.eh
__ZN15c4_RenameViewer11GetTemplateEv.eh
__ZN15c4_RenameViewer7SetItemEiiRK8c4_Bytes.eh
__ZN17c4_JoinPropViewer11GetTemplateEv.eh
__ZN13c4_JoinViewer11GetTemplateEv.eh
__ZN13c4_JoinViewer7GetItemEiiR8c4_Bytes.eh
__ZN14c4_SliceViewer10InsertRowsEi9c4_Cursori.eh
__ZN13c4_PairViewer10InsertRowsEi9c4_Cursori.eh
__ZN14c4_SliceViewer10RemoveRowsEii.eh
__ZN13c4_PairViewer10RemoveRowsEii.eh
__ZN16c4_GroupByViewer11GetTemplateEv.eh
__ZN12c4_CustomSeqC2EP15c4_CustomViewer.eh
__ZN12c4_CustomSeqC1EP15c4_CustomViewer.eh
__ZN13c4_PairViewer7GetItemEiiR8c4_Bytes.eh
__ZN13c4_PairViewer7SetItemEiiRK8c4_Bytes.eh
__ZN16c4_GroupByViewer7GetItemEiiR8c4_Bytes.eh
__ZN16c4_CustomHandler3SetEiRK8c4_Bytes.eh
__ZN16c4_CustomHandler8ItemSizeEi.eh
__ZN16c4_CustomHandler3GetEiRi.eh
__ZN14c4_SliceViewer7GetSizeEv.eh
__ZN16c4_ProductViewer7GetSizeEv.eh
__ZN16c4_ProductViewer7GetItemEiiR8c4_Bytes.eh
__ZN15c4_ConcatViewer7GetSizeEv.eh
__ZN15c4_ConcatViewer7GetItemEiiR8c4_Bytes.eh
__ZN15c4_ConcatViewer7SetItemEiiRK8c4_Bytes.eh
__ZN18c4_RemapWithViewer7GetItemEiiR8c4_Bytes.eh
__ZN18c4_RemapWithViewer7SetItemEiiRK8c4_Bytes.eh
__ZNK16c4_GroupByViewer15ScanTransitionsEiiPhRK7c4_View.eh
__ZN17c4_JoinPropViewer7GetItemEiiR8c4_Bytes.eh
__ZN14c4_SliceViewerC2ER11c4_Sequenceiii.eh
__ZN14c4_SliceViewerC1ER11c4_Sequenceiii.eh
__Z12f4_CustSliceR11c4_Sequenceiii.eh
__ZN14c4_SliceViewerD2Ev.eh
__ZN14c4_SliceViewerD1Ev.eh
__ZN14c4_SliceViewerD0Ev.eh
__ZN16c4_ProductViewerC2ER11c4_SequenceRK7c4_View.eh
__ZN16c4_ProductViewerC1ER11c4_SequenceRK7c4_View.eh
__Z14f4_CustProductR11c4_SequenceRK7c4_View.eh
__ZN16c4_ProductViewerD2Ev.eh
__ZN16c4_ProductViewerD1Ev.eh
__ZN16c4_ProductViewerD0Ev.eh
__ZN18c4_RemapWithViewerC2ER11c4_SequenceRK7c4_View.eh
__ZN18c4_RemapWithViewerC1ER11c4_SequenceRK7c4_View.eh
__Z16f4_CustRemapWithR11c4_SequenceRK7c4_View.eh
__ZN18c4_RemapWithViewerD2Ev.eh
__ZN18c4_RemapWithViewerD1Ev.eh
__ZN18c4_RemapWithViewerD0Ev.eh
__ZN13c4_PairViewerC2ER11c4_SequenceRK7c4_View.eh
__ZN13c4_PairViewerC1ER11c4_SequenceRK7c4_View.eh
__Z11f4_CustPairR11c4_SequenceRK7c4_View.eh
__ZN13c4_PairViewerD2Ev.eh
__ZN13c4_PairViewerD1Ev.eh
__ZN13c4_PairViewerD0Ev.eh
__ZN15c4_ConcatViewerC2ER11c4_SequenceRK7c4_View.eh
__ZN15c4_ConcatViewerC1ER11c4_SequenceRK7c4_View.eh
__Z13f4_CustConcatR11c4_SequenceRK7c4_View.eh
__ZN15c4_ConcatViewerD2Ev.eh
__ZN15c4_ConcatViewerD1Ev.eh
__ZN15c4_ConcatViewerD0Ev.eh
__ZN15c4_RenameViewerC2ER11c4_SequenceRK11c4_PropertyS4_.eh
__ZN15c4_RenameViewerC1ER11c4_SequenceRK11c4_PropertyS4_.eh
__Z13f4_CustRenameR11c4_SequenceRK11c4_PropertyS3_.eh
__ZN15c4_RenameViewerD2Ev.eh
__ZN15c4_RenameViewerD1Ev.eh
__ZN15c4_RenameViewerD0Ev.eh
__ZN16c4_GroupByViewerC2ER11c4_SequenceRK7c4_ViewRK11c4_Property.eh
__ZN16c4_GroupByViewerC1ER11c4_SequenceRK7c4_ViewRK11c4_Property.eh
__Z14f4_CustGroupByR11c4_SequenceRK7c4_ViewRK11c4_Property.eh
__ZN16c4_GroupByViewerD2Ev.eh
__ZN16c4_GroupByViewerD1Ev.eh
__ZN16c4_GroupByViewerD0Ev.eh
__ZN17c4_JoinPropViewerC2ER11c4_SequenceRK11c4_ViewPropb.eh
__ZN17c4_JoinPropViewerC1ER11c4_SequenceRK11c4_ViewPropb.eh
__Z15f4_CustJoinPropR11c4_SequenceRK11c4_ViewPropb.eh
__ZN17c4_JoinPropViewerD2Ev.eh
__ZN17c4_JoinPropViewerD1Ev.eh
__ZN17c4_JoinPropViewerD0Ev.eh
__ZN13c4_JoinViewerC2ER11c4_SequenceRK7c4_ViewS4_b.eh
__ZN13c4_JoinViewerC1ER11c4_SequenceRK7c4_ViewS4_b.eh
__Z11f4_CustJoinR11c4_SequenceRK7c4_ViewS3_b.eh
__ZN13c4_JoinViewerD2Ev.eh
__ZN13c4_JoinViewerD1Ev.eh
__ZN13c4_JoinViewerD0Ev.eh
__ZNK10c4_SortSeq7CompareEi9c4_Cursor.eh
__ZNK10c4_SortSeq8PosInMapE9c4_Cursor.eh
__ZN13c4_ProjectSeqD0Ev.eh
__ZN13c4_ProjectSeq10AddHandlerEP10c4_Handler.eh
__ZN13c4_ProjectSeq3GetEiiR8c4_Bytes.eh
__ZN13c4_ProjectSeq3SetEiRK11c4_PropertyRK8c4_Bytes.eh
__ZNK12c4_FilterSeq8MatchOneEiRK8c4_Bytes.eh
__ZN10c4_SortSeq8LessThanEll.eh
__ZNK13c4_ProjectSeq11NumHandlersEv.eh
__ZNK12c4_FilterSeq8PosInMapEi.eh
__ZN12c4_FilterSeq15FixupReverseMapEv.eh
__ZN10c4_SortSeq10PostChangeER11c4_Notifier.eh
__ZNK12c4_FilterSeq5MatchEiR11c4_SequencePKiS3_.eh
__ZN12c4_FilterSeq10PostChangeER11c4_Notifier.eh
__ZN12c4_FilterSeq9PreChangeER11c4_Notifier.eh
__ZN12c4_FilterSeqC2ER11c4_Sequence.eh
__ZN12c4_FilterSeqC1ER11c4_Sequence.eh
__ZN12c4_FilterSeqC2ER11c4_Sequence9c4_CursorS2_.eh
__ZN12c4_FilterSeqC1ER11c4_Sequence9c4_CursorS2_.eh
__Z15f4_CreateFilterR11c4_Sequence9c4_CursorS1_.eh
__ZN12c4_FilterSeqD2Ev.eh
__ZN10c4_SortSeqD0Ev.eh
__ZN12c4_FilterSeqD1Ev.eh
__ZN12c4_FilterSeqD0Ev.eh
__ZN13c4_ProjectSeqC2ER11c4_SequenceS1_bPS0_.eh
__ZN13c4_ProjectSeqC1ER11c4_SequenceS1_bPS0_.eh
__Z16f4_CreateProjectR11c4_SequenceS0_bPS_.eh
__ZN13c4_ProjectSeqD2Ev.eh
__ZN13c4_ProjectSeqD1Ev.eh
__ZN10c4_SortSeq13MergeSortThisEPliS0_.eh
__ZN10c4_SortSeq9MergeSortEPli.eh
__ZN10c4_SortSeqC1ER11c4_SequencePS0_.eh
__Z13f4_CreateSortR11c4_SequencePS_.eh
__ZN10c4_SortSeqC2ER11c4_SequencePS0_.eh
__ZN13c4_FileStreamD2Ev.eh
__ZN13c4_FileStreamD1Ev.eh
__ZN13c4_FileStreamD0Ev.eh
__ZN13c4_FileStream5WriteEPKvi.eh
__ZN15c4_FileStrategy8FileSizeEv.eh
__ZN15c4_FileStrategy16ResetFileMappingEv.eh
__ZN15c4_FileStrategyD0Ev.eh
__ZN15c4_FileStrategyD1Ev.eh
__ZN15c4_FileStrategyD2Ev.eh
__ZN15c4_FileStrategyC1EP7__sFILE.eh
__ZN15c4_FileStrategyC2EP7__sFILE.eh
__ZN15c4_FileStrategy8DataOpenEPKci.eh
__ZN15c4_FileStrategy9DataWriteElPKvi.eh
__ZN15c4_FileStrategy10DataCommitEl.eh
__ZNK8c4_Field11DescriptionEb.eh
__ZNK8c4_Field17DescribeSubFieldsEb.eh
__ZN8c4_FieldD1Ev.eh
__ZN8c4_FieldD2Ev.eh
__ZN8c4_FieldC1ERPKcPS_.eh
__ZN8c4_FieldC2ERPKcPS_.eh
__ZN16c4_FormatHandlerC2ERK11c4_PropertyR13c4_HandlerSeq.eh
__ZN16c4_FormatHandlerC1ERK11c4_PropertyR13c4_HandlerSeq.eh
__ZN16c4_FormatHandlerD0Ev.eh
__ZNK16c4_FormatHandler12IsPersistentEv.eh
__ZN10c4_FormatX6CommitER14c4_SaveContext.eh
__ZN10c4_FormatX6DefineEiPPKh.eh
__ZN10c4_FormatL6DefineEiPPKh.eh
__ZN10c4_FormatD6DefineEiPPKh.eh
__ZN10c4_FormatX9OldDefineEcR10c4_Persist.eh
__ZN10c4_FormatV9OldDefineEcR10c4_Persist.eh
__ZN10c4_FormatV13ForgetSubviewEi.eh
__ZN10c4_FormatV2AtEi.eh
__ZN10c4_FormatB11InitOffsetsER12c4_ColOfInts.eh
__ZN10c4_FormatB8UnmappedEv.eh
__ZN10c4_FormatVD0Ev.eh
__ZN10c4_FormatV6DefineEiPPKh.eh
__ZN10c4_FormatV8UnmappedEv.eh
__ZN10c4_FormatB6RemoveEii.eh
__ZN10c4_FormatB6InsertEiRK8c4_Bytesi.eh
__ZN10c4_FormatB6GetOneEiRi.eh
__ZN10c4_FormatS3GetEiRi.eh
__ZN10c4_FormatS9DoCompareERK8c4_BytesS2_.eh
__ZN10c4_FormatVC2ERK11c4_PropertyR13c4_HandlerSeq.eh
__ZN10c4_FormatVC1ERK11c4_PropertyR13c4_HandlerSeq.eh
__ZN10c4_FormatVD2Ev.eh
__ZN10c4_FormatVD1Ev.eh
__ZN10c4_FormatB6DefineEiPPKh.eh
__ZN10c4_FormatB6SetOneEiRK8c4_Bytesb.eh
__ZN10c4_FormatS3SetEiRK8c4_Bytes.eh
__ZN10c4_FormatS6InsertEiRK8c4_Bytesi.eh
__ZN10c4_FormatV16SetupAllSubviewsEv.eh
__ZN10c4_FormatV10HasSubviewEi.eh
__ZN10c4_FormatV3GetEiRi.eh
__ZN10c4_FormatV8ItemSizeEi.eh
__ZN10c4_FormatV9FlipBytesEv.eh
__ZN10c4_FormatV7ReplaceEiP13c4_HandlerSeq.eh
__ZN10c4_FormatV3SetEiRK8c4_Bytes.eh
__ZN10c4_FormatV6CommitER14c4_SaveContext.eh
__ZN10c4_FormatV9DoCompareERK8c4_BytesS2_.eh
__ZN10c4_FormatXC2ERK11c4_PropertyR13c4_HandlerSeqi.eh
__ZN10c4_FormatDC1ERK11c4_PropertyR13c4_HandlerSeq.eh
__ZN10c4_FormatDC2ERK11c4_PropertyR13c4_HandlerSeq.eh
__ZN10c4_FormatFC1ERK11c4_PropertyR13c4_HandlerSeq.eh
__ZN10c4_FormatFC2ERK11c4_PropertyR13c4_HandlerSeq.eh
__ZN10c4_FormatLC1ERK11c4_PropertyR13c4_HandlerSeq.eh
__ZN10c4_FormatLC2ERK11c4_PropertyR13c4_HandlerSeq.eh
__ZN10c4_FormatXC1ERK11c4_PropertyR13c4_HandlerSeqi.eh
__ZN10c4_FormatBC2ERK11c4_PropertyR13c4_HandlerSeq.eh
__ZN10c4_FormatBC1ERK11c4_PropertyR13c4_HandlerSeq.eh
__ZN10c4_FormatBD2Ev.eh
__ZN10c4_FormatSC1ERK11c4_PropertyR13c4_HandlerSeq.eh
__Z15f4_CreateFormatRK11c4_PropertyR13c4_HandlerSeq.eh
__ZN10c4_FormatSC2ERK11c4_PropertyR13c4_HandlerSeq.eh
__ZN10c4_FormatBD1Ev.eh
__ZN10c4_FormatBD0Ev.eh
__ZN10c4_FormatB13GetNthMemoColEib.eh
__ZN10c4_FormatB6CommitER14c4_SaveContext.eh
__ZN10c4_FormatV6InsertEiRK8c4_Bytesi.eh
__ZN10c4_FormatV6RemoveEii.eh
__ZN10c4_FormatB9OldDefineEcR10c4_Persist.eh
__ZN13c4_HandlerSeq10DefineRootEv.eh
__ZNK13c4_HandlerSeq10ColumnTypeEi.eh
__ZNK13c4_HandlerSeq8IsNestedEi.eh
__ZN13c4_HandlerSeq12FlipAllBytesEv.eh
__ZNK10c4_Handler10ClearBytesER8c4_Bytes.eh
__ZN10c4_Handler8GetBytesEiR8c4_Bytesb.eh
__ZNK13c4_HandlerSeq8SubEntryEii.eh
__ZN10c4_Handler7CompareEiRK8c4_Bytes.eh
__ZN10c4_Handler4MoveEii.eh
__ZN13c4_HandlerSeq11DescriptionEv.eh
__ZN13c4_HandlerSeq10OldPrepareEv.eh
__ZN13c4_HandlerSeq11UnmappedAllEv.eh
__ZN13c4_HandlerSeq9BuildMetaEiiR7c4_ViewRK8c4_Field.eh
__ZN13c4_HandlerSeqC2EP10c4_Persist.eh
__ZN13c4_HandlerSeqC1EP10c4_Persist.eh
__ZN13c4_HandlerSeq9FindFieldEPK10c4_Handler.eh
__ZN13c4_HandlerSeqC2ERS_P10c4_Handler.eh
__ZN13c4_HandlerSeqC1ERS_P10c4_Handler.eh
__ZN13c4_HandlerSeq17DetachFromStorageEb.eh
__ZN13c4_HandlerSeq19DetermineSpaceUsageEv.eh
__ZN13c4_HandlerSeq11RestructureER8c4_Fieldb.eh
__ZN13c4_HandlerSeq7PrepareEPPKhb.eh
__ZN13c4_HandlerSeq16DetachFromParentEv.eh
__ZN13c4_HandlerSeqD0Ev.eh
__ZN13c4_HandlerSeqD1Ev.eh
__ZN13c4_HandlerSeqD2Ev.eh
__ZN13c4_HandlerSeq15ExchangeEntriesEiRS_i.eh
__ZN10c4_Persist6LoadItER9c4_Column.eh
__ZN10c4_Persist7OldReadEPhi.eh
__ZN10c4_Persist13FetchOldValueEv.eh
__ZN10c4_Persist16FetchOldLocationER9c4_Column.eh
__ZN12c4_Allocator10InitializeEl.eh
__ZN12c4_Allocator11ReduceFragsEiii.eh
__ZN12c4_Allocator10InsertPairEill.eh
__ZN12c4_Allocator7ReleaseEll.eh
__ZN12c4_Allocator8AllocateEl.eh
__ZN9c4_DifferC2ER10c4_Storage.eh
__ZN9c4_DifferC1ER10c4_Storage.eh
__ZN9c4_DifferD2Ev.eh
__ZN9c4_DifferD1Ev.eh
__ZN10c4_PersistD1Ev.eh
__ZN14c4_SaveContext11FlushBufferEv.eh
__ZN14c4_SaveContext10StoreValueEl.eh
__ZN14c4_SaveContext5WriteEPKvi.eh
__ZN14c4_SaveContext14CommitSequenceER13c4_HandlerSeqb.eh
__ZN14c4_SaveContext13SetWalkBufferEP9c4_Column.eh
__ZN10c4_PersistD2Ev.eh
__ZN14c4_SaveContextD1Ev.eh
__ZN14c4_SaveContextD2Ev.eh
__ZN12c4_AllocatorC2Ev.eh
__ZN12c4_AllocatorC1Ev.eh
__ZN10c4_PersistC1ER11c4_Strategybi.eh
__ZN10c4_PersistC2ER11c4_Strategybi.eh
__ZN14c4_SaveContextC1ER11c4_StrategybiP9c4_DifferP12c4_Allocator.eh
__ZN14c4_SaveContextC2ER11c4_StrategybiP9c4_DifferP12c4_Allocator.eh
__ZN9c4_Differ9NewDiffIDEv.eh
__ZN10c4_Persist4LoadEP9c4_Stream.eh
__ZN9c4_Differ8AddEntryEllRK8c4_Bytes.eh
__ZN9c4_Differ10CreateDiffEiR9c4_Column.eh
__ZN14c4_SaveContext12CommitColumnER9c4_Column.eh
__ZN9c4_Differ10BaseOfDiffEi.eh
__ZNK9c4_Differ9ApplyDiffEiR9c4_Column.eh
__ZN9c4_Differ7GetRootER8c4_Bytes.eh
__ZN14c4_SaveContext6SaveItER13c4_HandlerSeqPP12c4_AllocatorR8c4_Bytes.eh
__ZN10c4_Persist4SaveEP9c4_StreamR13c4_HandlerSeq.eh
__ZN10c4_Persist6CommitEb.eh
__ZN10c4_Persist7LoadAllEv.eh
__ZN10c4_Persist8RollbackEb.eh
__ZN10c4_Persist8SetAsideER10c4_Storage.eh
__ZN13c4_HashViewer11GetTemplateEv.eh
__ZN16c4_OrderedViewer11GetTemplateEv.eh
__ZN16c4_IndexedViewer11GetTemplateEv.eh
__ZN16c4_IndexedViewer7SetItemEiiRK8c4_Bytes.eh
__Z17f4_CreateReadOnlyR11c4_Sequence.eh
__ZN16c4_OrderedViewer10InsertRowsEi9c4_Cursori.eh
__ZN16c4_IndexedViewer10InsertRowsEi9c4_Cursori.eh
__ZNK13c4_HashViewer7KeySameEi9c4_Cursor.eh
__ZNK13c4_HashViewer8CalcHashE9c4_Cursor.eh
__ZNK16c4_OrderedViewer10KeyCompareEi9c4_Cursor.eh
__ZN16c4_BlockedViewerD0Ev.eh
__ZN16c4_OrderedViewerC2ER11c4_Sequencei.eh
__ZN16c4_OrderedViewerC1ER11c4_Sequencei.eh
__Z16f4_CreateOrderedR11c4_Sequencei.eh
__ZN16c4_OrderedViewerD2Ev.eh
__ZN16c4_OrderedViewerD1Ev.eh
__ZN16c4_OrderedViewerD0Ev.eh
__ZN16c4_IndexedViewerD0Ev.eh
__ZN13c4_HashViewerD2Ev.eh
__ZN13c4_HashViewerD1Ev.eh
__ZN13c4_HashViewerD0Ev.eh
__ZN16c4_IndexedViewerD2Ev.eh
__ZN16c4_IndexedViewerD1Ev.eh
__ZN16c4_BlockedViewerD2Ev.eh
__ZN16c4_BlockedViewerD1Ev.eh
__ZNK16c4_IndexedViewer10KeyCompareEi9c4_Cursor.eh
__ZN16c4_OrderedViewer10RemoveRowsEii.eh
__ZN16c4_OrderedViewer6LookupE9c4_CursorRi.eh
__ZN16c4_IndexedViewer6LookupE9c4_CursorRi.eh
__ZNK13c4_HashViewer8IsUnusedEi.eh
__ZNK13c4_HashViewer7IsDummyEi.eh
__ZNK13c4_HashViewer7GetPolyEv.eh
__ZN13c4_HashViewer7SetPolyEi.eh
__ZN13c4_HashViewer8SetSpareEi.eh
__ZNK13c4_HashViewer8LookDictEl9c4_Cursor.eh
__ZN13c4_HashViewer6LookupE9c4_CursorRi.eh
__ZNK13c4_HashViewer8GetSpareEv.eh
__ZN13c4_HashViewer10RemoveDictEi.eh
__ZN13c4_HashViewer10InsertDictEi.eh
__ZN13c4_HashViewer7SetItemEiiRK8c4_Bytes.eh
__ZN13c4_HashViewer10DictResizeEi.eh
__ZN13c4_HashViewer10RemoveRowsEii.eh
__ZN13c4_HashViewer10InsertRowsEi9c4_Cursori.eh
__ZN13c4_HashViewerC1ER11c4_SequenceiPS0_.eh
__Z13f4_CreateHashR11c4_SequenceiPS_.eh
__ZN13c4_HashViewerC2ER11c4_SequenceiPS0_.eh
__ZN16c4_BlockedViewerC2ER11c4_Sequence.eh
__ZN16c4_BlockedViewerC1ER11c4_Sequence.eh
__Z16f4_CreateBlockedR11c4_Sequence.eh
__ZN16c4_BlockedViewer5SplitEii.eh
__ZN16c4_BlockedViewer5MergeEi.eh
__ZN16c4_BlockedViewer11GetTemplateEv.eh
__ZN16c4_BlockedViewer7GetItemEiiR8c4_Bytes.eh
__ZN16c4_BlockedViewer7SetItemEiiRK8c4_Bytes.eh
__ZN16c4_BlockedViewer10InsertRowsEi9c4_Cursori.eh
__ZN16c4_BlockedViewer10RemoveRowsEii.eh
__ZN16c4_OrderedViewer7SetItemEiiRK8c4_Bytes.eh
__ZN16c4_IndexedViewerC2ER11c4_SequenceS1_RK7c4_Viewb.eh
__ZN16c4_IndexedViewerC1ER11c4_SequenceS1_RK7c4_Viewb.eh
__Z16f4_CreateIndexedR11c4_SequenceS0_RK7c4_Viewb.eh
__ZN16c4_IndexedViewer10RemoveRowsEii.eh
__ZN10c4_Storage4ViewEPKc.eh
__ZN10c4_Storage6SaveToER9c4_Stream.eh
__ZN13c4_DerivedSeqC2ER11c4_Sequence.eh
__ZN13c4_DerivedSeqC1ER11c4_Sequence.eh
__ZN13c4_DerivedSeqD2Ev.eh
__ZN13c4_DerivedSeqD1Ev.eh
__ZN13c4_DerivedSeqD0Ev.eh
__ZN17c4_StreamStrategyC2El.eh
__ZN17c4_StreamStrategyC1El.eh
__ZN17c4_StreamStrategyC2EP9c4_Stream.eh
__ZN17c4_StreamStrategyC1EP9c4_Stream.eh
__ZN17c4_StreamStrategyD0Ev.eh
__ZN17c4_StreamStrategy8DataReadElPvi.eh
__ZN17c4_StreamStrategy9DataWriteElPKvi.eh
__ZN15c4_DependenciesC2Ev.eh
__ZN15c4_DependenciesC1Ev.eh
__ZN15c4_Dependencies6RemoveEP11c4_Sequence.eh
__ZN11c4_NotifierD1Ev.eh
__ZN11c4_NotifierD2Ev.eh
__ZN11c4_Notifier6NotifyEv.eh
__ZN10c4_Storage10InitializeER11c4_Strategybi.eh
__ZN10c4_StorageC1Ev.eh
__ZN10c4_StorageC2Ev.eh
__ZN10c4_Storage11DescriptionEPKc.eh
__ZN10c4_StorageC2ER11c4_Strategybi.eh
__ZN10c4_StorageC1ER11c4_Strategybi.eh
__ZN10c4_StorageC2EPKci.eh
__ZN10c4_StorageC1EPKci.eh
__ZN10c4_StorageC2ERK7c4_View.eh
__ZN10c4_StorageC1ERK7c4_View.eh
__ZN10c4_Storage12SetStructureEPKc.eh
__ZN10c4_Storage8LoadFromER9c4_Stream.eh
__ZN10c4_Storage5GetAsEPKc.eh
__ZNK10c4_Storage8StrategyEv.eh
__ZN10c4_Storage8SetAsideERS_.eh
__ZNK10c4_Storage8GetAsideEv.eh
__ZN10c4_Storage6CommitEb.eh
__ZN10c4_Storage8RollbackEb.eh
__ZN10c4_Storage10AutoCommitEb.eh
__ZN13c4_DerivedSeq9PreChangeER11c4_Notifier.eh
__ZN9c4_StringC2Eci.eh
__ZN9c4_StringC1Eci.eh
__ZN9c4_String4InitEPKvi.eh
__ZN9c4_StringaSERKS_.eh
__ZplRK9c4_StringS1_.eh
__ZNK9c4_String3MidEii.eh
__ZNK9c4_String4LeftEi.eh
__ZNK9c4_String13SpanExcludingEPKc.eh
__ZNK9c4_String13SpanIncludingEPKc.eh
__ZNK9c4_String5RightEi.eh
__ZN8c4_Bytes9_MakeCopyEv.eh
__ZN8c4_Bytes9SetBufferEi.eh
__ZN8c4_Bytes14SetBufferClearEi.eh
__ZN8c4_BytesaSERKS_.eh
__ZN14c4_StringArray5SetAtEiPKc.eh
__ZN14c4_StringArray8RemoveAtEii.eh
__ZN14c4_StringArray8InsertAtEiPKci.eh
__ZN14c4_StringArray7SetSizeEii.eh
__ZN14c4_StringArrayD2Ev.eh
__ZN14c4_StringArrayD1Ev.eh
__ZN14c4_StringArray3AddEPKc.eh
__ZN6c4_Row8AllocateEv.eh
__ZN6c4_Row9ConcatRowERK9c4_RowRef.eh
__ZN11c4_Property19CleanupInternalDataEv.eh
__ZN7c4_View14RestrictSearchERK9c4_RowRefRiS3_.eh
__ZN6c4_RowaSERK9c4_RowRef.eh
__ZN6c4_RowC1ERK9c4_RowRef.eh
__ZNK7c4_View11NthPropertyEi.eh
__ZNK7c4_View7SetItemEiiRK8c4_Bytes.eh
__ZNK7c4_View7GetItemEiiR8c4_Bytes.eh
__ZN6c4_RowC2Ev.eh
__ZN6c4_RowC1Ev.eh
__ZN6c4_RowC2ERK9c4_RowRef.eh
__ZN7c4_ViewC2EP11c4_Sequence.eh
__ZN7c4_ViewC1EP11c4_Sequence.eh
__ZNK7c4_View14ProjectWithoutERKS_.eh
__ZNK7c4_View7ProjectERKS_.eh
__ZNK7c4_View11SelectRangeERK9c4_RowRefS2_.eh
__ZNK7c4_View6SelectERK9c4_RowRef.eh
__ZNK7c4_View13SortOnReverseERKS_S1_.eh
__ZNK7c4_View6SortOnERKS_.eh
__ZNK7c4_View4SortEv.eh
__ZN7c4_ViewC2EP15c4_CustomViewer.eh
__ZN7c4_ViewC1EP15c4_CustomViewer.eh
__ZNK7c4_View7IndexedERKS_S1_b.eh
__ZNK7c4_View7OrderedEi.eh
__ZNK7c4_View7BlockedEv.eh
__ZNK7c4_View4HashERKS_i.eh
__ZNK7c4_View8ReadOnlyEv.eh
__ZNK7c4_View4JoinERKS_S1_b.eh
__ZNK7c4_View8JoinPropERK11c4_ViewPropb.eh
__ZNK7c4_View6CountsERKS_RK10c4_IntProp.eh
__ZNK7c4_View7GroupByERKS_RK11c4_ViewProp.eh
__ZNK7c4_View6RenameERK11c4_PropertyS2_.eh
__ZNK7c4_View6ConcatERKS_.eh
__ZNK7c4_View4PairERKS_.eh
__ZNK7c4_View9RemapWithERKS_.eh
__ZNK7c4_View7ProductERKS_.eh
__ZNK7c4_View5SliceEiii.eh
__ZN7c4_ViewC2EP9c4_Stream.eh
__ZN7c4_ViewC1EP9c4_Stream.eh
__ZN7c4_ViewC2ERK11c4_Property.eh
__ZN7c4_ViewC1ERK11c4_Property.eh
__ZN7c4_ViewaSERKS_.eh
__ZNK7c4_View5CloneEv.eh
__ZNK7c4_View19FindPropIndexByNameEPKc.eh
__ZNK7c4_View16IsCompatibleWithERKS_.eh
__ZN7c4_View9SetAtGrowEiRK9c4_RowRef.eh
__ZN7c4_View3AddERK9c4_RowRef.eh
__ZNK7c4_View6SearchERK9c4_RowRef.eh
__ZNK7c4_View6LocateERK9c4_RowRefPi.eh
__ZNK7c4_View7CompareERKS_.eh
__ZN7c4_View8InsertAtEiRKS_.eh
__ZNK7c4_View9DuplicateEv.eh
__ZN7c4_View12RelocateRowsEiiRS_i.eh
__ZNK7c4_View4FindERK9c4_RowRefi.eh
__ZplRK9c4_RowRefS1_.eh
__ZNK7c4_ViewcmERK11c4_Property.eh
__ZN6c4_RowC2ERKS_.eh
__ZN6c4_RowC1ERKS_.eh
__ZN11c4_PropertyC2EcPKc.eh
__ZN11c4_PropertyC1EcPKc.eh
__ZNK7c4_View9DifferentERKS_.eh
__ZNK7c4_View6UniqueEv.eh
__ZNK7c4_View5UnionERKS_.eh
__ZNK7c4_View9IntersectERKS_.eh
__ZNK7c4_View5MinusERKS_.eh
__ZN11c4_Sequence6ResizeEii.eh
__ZN10c4_ViewRefaSERK7c4_View.eh
__ZN11c4_Strategy9EndOfDataEl.eh
__ZN11c4_Sequence6BufferEv.eh
__ZN11c4_Sequence13UseTempBufferEPKc.eh
__ZNK11c4_Sequence9NthPropIdEi.eh
__ZN11c4_Sequence9PropIndexEi.eh
__ZN11c4_Sequence3GetEiiR8c4_Bytes.eh
__ZN11c4_Sequence8ItemSizeEii.eh
__ZN11c4_Sequence8RemoveAtEii.eh
__ZN11c4_Sequence4MoveEii.eh
__ZNK11c4_Sequence7CompareEi9c4_Cursor.eh
__ZN11c4_Sequence9PropIndexERK11c4_Property.eh
__ZN11c4_Sequence8InsertAtEi9c4_Cursori.eh
__ZN11c4_Sequence5SetAtEi9c4_Cursor.eh
__ZN11c4_Sequence3SetEiRK11c4_PropertyRK8c4_Bytes.eh
__ZeqRK12c4_ReferenceS1_.eh
__ZNK9c4_IntRefcvlEv.eh
__ZNK10c4_LongRefcvxEv.eh
__ZNK11c4_FloatRefcvdEv.eh
__ZNK12c4_DoubleRefcvdEv.eh
__ZNK11c4_BytesRefcv8c4_BytesEv.eh
__ZNK11c4_BytesRef6AccessEli.eh
__ZNK12c4_StringRefcvPKcEv.eh
__ZNK10c4_ViewRefcv7c4_ViewEv.eh
__ZN11c4_Sequence6AttachEPS_.eh
__ZN12c4_ReferenceaSERKS_.eh
__ZN9c4_IntRefaSEl.eh
__ZN10c4_LongRefaSEx.eh
__ZN11c4_FloatRefaSEd.eh
__ZN12c4_DoubleRefaSEd.eh
__ZN11c4_BytesRefaSERK8c4_Bytes.eh
__ZNK11c4_BytesRef6ModifyERK8c4_Bytesli.eh
__ZN12c4_StringRefaSEPKc.eh
__ZN11c4_Sequence6DetachEPS_.eh
__ZN11MkWorkspace4Item7_sharedE
__ZTV12c4_TclStream
__ZTV16c4_CustomHandler
__ZTV12c4_CustomSeq
__ZTV15c4_CustomViewer
__ZTV14c4_SliceViewer
__ZTV16c4_ProductViewer
__ZTV18c4_RemapWithViewer
__ZTV13c4_PairViewer
__ZTV15c4_ConcatViewer
__ZTV15c4_RenameViewer
__ZTV16c4_GroupByViewer
__ZTV17c4_JoinPropViewer
__ZTV13c4_JoinViewer
__ZTV12c4_FilterSeq
__ZTV10c4_SortSeq
__ZTV13c4_ProjectSeq
__ZTV13c4_FileStream
__ZTV15c4_FileStrategy
__ZTV16c4_FormatHandler
__ZTV10c4_FormatX
__ZTV10c4_FormatL
__ZTV10c4_FormatD
__ZTV10c4_FormatB
__ZTV10c4_FormatS
__ZTV10c4_FormatV
__ZTV13c4_HashViewer
__ZTV16c4_BlockedViewer
__ZTV16c4_OrderedViewer
__ZTV16c4_IndexedViewer
__ZTV13c4_DerivedSeq
__ZTV17c4_StreamStrategy
__ZTV11c4_Sequence
__ZTV9c4_Stream
__ZTV11c4_Strategy
_tclIntPlatStubsPtr
_tclIntStubsPtr
_tclPlatStubsPtr
_tclStubsPtr
__oldSeek
__oldLimit
__oldCurr
__oldBuf
