Certificate:
    Data:
        Version: 3 (0x2)
        Serial Number: 103 (0x67)
        Signature Algorithm: sha1WithRSAEncryption
        Issuer: C=US, O=Apple Computer, Inc., OU=Apple Computer Certificate Authority, CN=Apple Software Update Certificate Authority
        Validity
            Not Before: Feb 10 18:55:38 2005 GMT
            Not After : Feb 10 18:55:38 2007 GMT
        Subject: C=US, O=Apple Computer, Inc., OU=Apple Computer Software Update, CN=QuickTime
        Subject Public Key Info:
            Public Key Algorithm: rsaEncryption
            RSA Public Key: (1024 bit)
                Modulus (1024 bit):
                    00:bb:ae:7c:1c:fa:5b:0a:a3:21:f5:d1:96:34:c5:
                    66:d6:cf:4a:36:aa:79:e1:91:3b:1d:cb:63:c2:c4:
                    9b:08:99:68:36:06:ff:1b:27:13:6f:e9:24:94:89:
                    f2:74:6d:20:0c:cf:09:aa:66:5d:c8:57:de:91:e8:
                    41:03:e1:ec:ae:9a:c9:95:65:21:2d:d0:64:04:4d:
                    04:af:9b:b3:e3:32:15:6a:10:30:96:2f:83:31:74:
                    51:27:79:f0:22:0e:76:3d:a1:65:63:ab:f3:35:4a:
                    1c:b8:1a:0b:2b:4b:da:d0:85:a5:f3:c8:99:41:de:
                    5a:3b:ae:d8:cc:e4:48:32:09
                Exponent: 65537 (0x10001)
        X509v3 extensions:
            X509v3 Key Usage: critical
                Digital Signature
            X509v3 Extended Key Usage: 
                Apple Code Signing
            X509v3 Basic Constraints: critical
                CA:FALSE
            X509v3 Subject Key Identifier: 
                75:8E:18:0C:D1:21:60:E0:CC:45:B7:3D:7B:D2:04:F6:8F:1B:9E:DE
            X509v3 Authority Key Identifier: 
                keyid:5E:21:5B:43:BD:5E:74:56:8A:D7:C7:E0:15:32:FD:0A:FD:E8:46:C2

            X509v3 Certificate Policies: 
                Policy: 1.2.840.113635.100.5.1
                  CPS: https://www.apple.com/certificateauthority/terms.html
                  User Notice:
                    Explicit Text: Reliance on this certificate by any party assumes acceptance of the then applicable standard terms and conditions of use, certificate policy and certification practice statements.

            X509v3 CRL Distribution Points: 
                URI:https://www.apple.com/certificateauthority/swupdate.crl

            Authority Information Access: 
                CA Issuers - URI:https://www.apple.com/certificateauthority/casigners.html

    Signature Algorithm: sha1WithRSAEncryption
        d0:3c:83:d8:5d:fa:d6:5a:41:e4:e3:73:e1:9e:fc:57:b8:7d:
        81:35:c4:5d:14:b8:a0:34:97:fe:e9:2e:63:57:db:ef:6f:8c:
        5f:b0:af:33:2e:39:1f:3d:18:8a:22:bb:2c:50:57:9e:49:d6:
        53:7b:40:9b:25:81:91:9d:75:d4:1d:21:3e:0d:ef:ab:6b:ce:
        6d:48:2f:dd:22:27:da:d5:80:b4:1b:77:07:f8:1e:12:55:47:
        00:55:5b:ab:3e:4b:60:7e:dd:d9:11:a9:de:cf:57:5e:1e:2a:
        76:4f:4f:b2:e8:c3:df:4c:35:dc:41:8c:62:be:9d:a5:2c:2f:
        f5:42:e2:68:a2:e0:21:8a:ef:ce:83:5a:7b:35:08:d8:d4:e5:
        5b:d1:29:52:33:64:5f:46:0d:e8:07:73:2c:68:5b:65:b9:f7:
        13:6a:15:f5:20:74:52:30:60:09:d9:83:3f:79:4a:e1:6e:72:
        44:c3:f6:42:f6:25:65:9f:3b:d7:80:96:22:f2:80:7e:8a:9e:
        71:4e:17:30:a6:d8:c1:f8:38:37:db:e2:f0:9e:6d:65:f5:4f:
        07:55:10:5c:ec:3f:06:b5:b7:14:4f:6a:99:68:87:6d:f5:b4:
        e1:9f:0a:1f:50:c8:1c:fa:53:fe:81:6f:85:49:1c:7e:e5:69:
        c4:a0:e1:4c
-----BEGIN CERTIFICATE-----
MIIFOjCCBCKgAwIBAgIBZzANBgkqhkiG9w0BAQUFADCBkTELMAkGA1UEBhMCVVMx
HTAbBgNVBAoTFEFwcGxlIENvbXB1dGVyLCBJbmMuMS0wKwYDVQQLEyRBcHBsZSBD
b21wdXRlciBDZXJ0aWZpY2F0ZSBBdXRob3JpdHkxNDAyBgNVBAMTK0FwcGxlIFNv
ZnR3YXJlIFVwZGF0ZSBDZXJ0aWZpY2F0ZSBBdXRob3JpdHkwHhcNMDUwMjEwMTg1
NTM4WhcNMDcwMjEwMTg1NTM4WjBpMQswCQYDVQQGEwJVUzEdMBsGA1UEChMUQXBw
bGUgQ29tcHV0ZXIsIEluYy4xJzAlBgNVBAsTHkFwcGxlIENvbXB1dGVyIFNvZnR3
YXJlIFVwZGF0ZTESMBAGA1UEAxMJUXVpY2tUaW1lMIGfMA0GCSqGSIb3DQEBAQUA
A4GNADCBiQKBgQC7rnwc+lsKoyH10ZY0xWbWz0o2qnnhkTsdy2PCxJsImWg2Bv8b
JxNv6SSUifJ0bSAMzwmqZl3IV96R6EED4eyumsmVZSEt0GQETQSvm7PjMhVqEDCW
L4MxdFEnefAiDnY9oWVjq/M1Shy4GgsrS9rQhaXzyJlB3lo7rtjM5EgyCQIDAQAB
o4ICRjCCAkIwDgYDVR0PAQH/BAQDAgeAMBQGA1UdJQQNMAsGCSqGSIb3Y2QEATAM
BgNVHRMBAf8EAjAAMB0GA1UdDgQWBBR1jhgM0SFg4MxFtz170gT2jxue3jAfBgNV
HSMEGDAWgBReIVtDvV50VorXx+AVMv0K/ehGwjCCASkGA1UdIASCASAwggEcMIIB
GAYJKoZIhvdjZAUBMIIBCTBBBggrBgEFBQcCARY1aHR0cHM6Ly93d3cuYXBwbGUu
Y29tL2NlcnRpZmljYXRlYXV0aG9yaXR5L3Rlcm1zLmh0bWwwgcMGCCsGAQUFBwIC
MIG2GoGzUmVsaWFuY2Ugb24gdGhpcyBjZXJ0aWZpY2F0ZSBieSBhbnkgcGFydHkg
YXNzdW1lcyBhY2NlcHRhbmNlIG9mIHRoZSB0aGVuIGFwcGxpY2FibGUgc3RhbmRh
cmQgdGVybXMgYW5kIGNvbmRpdGlvbnMgb2YgdXNlLCBjZXJ0aWZpY2F0ZSBwb2xp
Y3kgYW5kIGNlcnRpZmljYXRpb24gcHJhY3RpY2Ugc3RhdGVtZW50cy4wSAYDVR0f
BEEwPzA9oDugOYY3aHR0cHM6Ly93d3cuYXBwbGUuY29tL2NlcnRpZmljYXRlYXV0
aG9yaXR5L3N3dXBkYXRlLmNybDBVBggrBgEFBQcBAQRJMEcwRQYIKwYBBQUHMAKG
OWh0dHBzOi8vd3d3LmFwcGxlLmNvbS9jZXJ0aWZpY2F0ZWF1dGhvcml0eS9jYXNp
Z25lcnMuaHRtbDANBgkqhkiG9w0BAQUFAAOCAQEA0DyD2F361lpB5ONz4Z78V7h9
gTXEXRS4oDSX/ukuY1fb72+MX7CvMy45Hz0YiiK7LFBXnknWU3tAmyWBkZ111B0h
Pg3vq2vObUgv3SIn2tWAtBt3B/geElVHAFVbqz5LYH7d2RGp3s9XXh4qdk9PsujD
30w13EGMYr6dpSwv9ULiaKLgIYrvzoNaezUI2NTlW9EpUjNkX0YN6AdzLGhbZbn3
E2oV9SB0UjBgCdmDP3lK4W5yRMP2QvYlZZ8714CWIvKAfoqecU4XMKbYwfg4N9vi
8J5tZfVPB1UQXOw/BrW3FE9qmWiHbfW04Z8KH1DIHPpT/oFvhUkcfuVpxKDhTA==
-----END CERTIFICATE-----
