Certificate:
    Data:
        Version: 3 (0x2)
        Serial Number: 10 (0xa)
        Signature Algorithm: sha1WithRSAEncryption
        Issuer: C=US, O=Apple Computer, Inc., OU=Apple Computer Certificate Authority, CN=Apple Root Certificate Authority
        Validity
            Not Before: Feb 10 18:39:35 2005 GMT
            Not After : Feb 10 18:39:35 2007 GMT
        Subject: C=US, O=Apple Computer, Inc., OU=Apple Computer Certificate Authority, CN=Apple Software Update Certificate Authority
        Subject Public Key Info:
            Public Key Algorithm: rsaEncryption
            RSA Public Key: (2048 bit)
                Modulus (2048 bit):
                    00:e0:55:49:dd:14:df:00:96:33:63:5b:43:01:54:
                    44:55:98:00:77:d8:81:53:6e:7e:75:49:00:27:6d:
                    71:1e:45:74:57:29:2f:f8:ce:c2:07:3e:67:69:13:
                    b7:74:c9:bd:30:7f:c7:6a:d0:c5:67:bb:82:d3:e4:
                    85:a9:c7:86:79:f7:7d:f5:0a:3a:07:79:7b:bc:3b:
                    e8:46:f1:b2:cc:3b:0d:b3:5f:53:5a:c1:0c:8c:6b:
                    ac:34:17:73:4d:94:54:48:90:0b:52:56:3e:18:48:
                    3b:69:3f:a4:f0:0d:e1:99:1f:73:c3:a8:25:35:d3:
                    17:21:45:91:bc:fa:42:34:b9:4e:b2:93:e2:05:34:
                    e4:f0:1f:fb:41:08:f7:49:bf:05:db:9b:e1:4d:c3:
                    7f:61:7b:d5:a4:43:f3:0e:0d:1a:bd:fe:7a:c3:b7:
                    48:99:4b:6b:71:79:3b:63:e3:10:9d:c5:db:90:69:
                    72:8c:2c:cc:88:e9:68:6b:62:3b:4b:bb:98:3b:bc:
                    11:85:fd:0b:ad:86:9c:16:17:1b:bd:aa:cf:71:85:
                    c5:74:19:c7:03:b2:1e:a0:44:3e:12:d2:58:2b:5f:
                    8d:2b:e8:60:4b:64:f7:ad:07:06:3d:eb:59:76:8e:
                    28:24:af:7f:03:a2:44:e1:da:7b:80:fa:90:11:ec:
                    41:4b
                Exponent: 65537 (0x10001)
        X509v3 extensions:
            X509v3 Key Usage: critical
                Digital Signature, Certificate Sign, CRL Sign
            X509v3 Extended Key Usage: critical
                Apple Code Signing
            X509v3 Basic Constraints: critical
                CA:TRUE, pathlen:0
            X509v3 Subject Key Identifier: 
                5E:21:5B:43:BD:5E:74:56:8A:D7:C7:E0:15:32:FD:0A:FD:E8:46:C2
            X509v3 Authority Key Identifier: 
                keyid:2B:D0:69:47:94:76:09:FE:F4:6B:8D:2E:40:A6:F7:47:4D:7F:08:5E

            X509v3 Certificate Policies: 
                Policy: 1.2.840.113635.100.5.1
                  CPS: https://www.apple.com/certificateauthority/terms.html
                  User Notice:
                    Explicit Text: Reliance on this certificate by any party assumes acceptance of the then applicable standard terms and conditions of use, certificate policy and certification practice statements.

            X509v3 CRL Distribution Points: 
                URI:https://www.apple.com/certificateauthority/root.crl

            Authority Information Access: 
                CA Issuers - URI:https://www.apple.com/certificateauthority/casigners.html

    Signature Algorithm: sha1WithRSAEncryption
        30:30:2a:07:a5:46:26:46:58:17:b3:61:61:8e:0c:3e:e9:e3:
        73:c8:79:5d:0a:fe:c0:01:e2:83:b3:c1:61:a8:89:dc:d9:14:
        8c:58:f9:49:f1:3e:65:37:d2:ca:42:82:27:83:fb:e7:22:b6:
        d7:3e:45:8d:30:47:82:8a:c4:f4:9b:39:1c:57:f1:61:64:4f:
        f8:85:4f:84:4c:ed:74:75:7f:ca:18:a0:55:3d:17:d0:6b:a3:
        51:f2:ee:21:aa:d8:2c:ed:eb:72:21:ea:7d:66:46:0c:6a:8d:
        4e:8a:11:04:dd:ce:c8:72:99:7d:05:9d:f6:12:c9:55:5f:dc:
        92:c1:3e:41:a6:06:bc:4e:f6:c8:e7:45:e0:59:2c:e5:ba:4b:
        8b:ae:01:ee:bb:93:1d:a6:5e:c2:f5:6f:a8:79:b0:db:b3:31:
        5b:43:eb:77:64:d4:06:01:3f:64:ee:bd:f0:aa:63:51:da:46:
        b6:06:ae:21:e2:16:45:09:bf:56:51:01:cd:1e:92:be:79:7a:
        41:4b:12:f9:dd:cc:2c:ac:38:1e:88:82:fa:61:63:6c:cb:44:
        34:cf:28:3a:a5:ad:2f:8a:a2:cf:80:c8:c1:9c:ff:b0:de:e8:
        2e:3d:72:ad:d6:ba:60:5e:3d:be:f9:c6:83:7d:26:07:b4:ae:
        86:f8:bd:a4
-----BEGIN CERTIFICATE-----
MIIF4TCCBMmgAwIBAgIBCjANBgkqhkiG9w0BAQUFADCBhjELMAkGA1UEBhMCVVMx
HTAbBgNVBAoTFEFwcGxlIENvbXB1dGVyLCBJbmMuMS0wKwYDVQQLEyRBcHBsZSBD
b21wdXRlciBDZXJ0aWZpY2F0ZSBBdXRob3JpdHkxKTAnBgNVBAMTIEFwcGxlIFJv
b3QgQ2VydGlmaWNhdGUgQXV0aG9yaXR5MB4XDTA1MDIxMDE4MzkzNVoXDTA3MDIx
MDE4MzkzNVowgZExCzAJBgNVBAYTAlVTMR0wGwYDVQQKExRBcHBsZSBDb21wdXRl
ciwgSW5jLjEtMCsGA1UECxMkQXBwbGUgQ29tcHV0ZXIgQ2VydGlmaWNhdGUgQXV0
aG9yaXR5MTQwMgYDVQQDEytBcHBsZSBTb2Z0d2FyZSBVcGRhdGUgQ2VydGlmaWNh
dGUgQXV0aG9yaXR5MIIBIjANBgkqhkiG9w0BAQEFAAOCAQ8AMIIBCgKCAQEA4FVJ
3RTfAJYzY1tDAVREVZgAd9iBU25+dUkAJ21xHkV0Vykv+M7CBz5naRO3dMm9MH/H
atDFZ7uC0+SFqceGefd99Qo6B3l7vDvoRvGyzDsNs19TWsEMjGusNBdzTZRUSJAL
UlY+GEg7aT+k8A3hmR9zw6glNdMXIUWRvPpCNLlOspPiBTTk8B/7QQj3Sb8F25vh
TcN/YXvVpEPzDg0avf56w7dImUtrcXk7Y+MQncXbkGlyjCzMiOloa2I7S7uYO7wR
hf0LrYacFhcbvarPcYXFdBnHA7IeoEQ+EtJYK1+NK+hgS2T3rQcGPetZdo4oJK9/
A6JE4dp7gPqQEexBSwIDAQABo4ICSzCCAkcwDgYDVR0PAQH/BAQDAgGGMBcGA1Ud
JQEB/wQNMAsGCSqGSIb3Y2QEATASBgNVHRMBAf8ECDAGAQH/AgEAMB0GA1UdDgQW
BBReIVtDvV50VorXx+AVMv0K/ehGwjAfBgNVHSMEGDAWgBQr0GlHlHYJ/vRrjS5A
pvdHTX8IXjCCASkGA1UdIASCASAwggEcMIIBGAYJKoZIhvdjZAUBMIIBCTBBBggr
BgEFBQcCARY1aHR0cHM6Ly93d3cuYXBwbGUuY29tL2NlcnRpZmljYXRlYXV0aG9y
aXR5L3Rlcm1zLmh0bWwwgcMGCCsGAQUFBwICMIG2GoGzUmVsaWFuY2Ugb24gdGhp
cyBjZXJ0aWZpY2F0ZSBieSBhbnkgcGFydHkgYXNzdW1lcyBhY2NlcHRhbmNlIG9m
IHRoZSB0aGVuIGFwcGxpY2FibGUgc3RhbmRhcmQgdGVybXMgYW5kIGNvbmRpdGlv
bnMgb2YgdXNlLCBjZXJ0aWZpY2F0ZSBwb2xpY3kgYW5kIGNlcnRpZmljYXRpb24g
cHJhY3RpY2Ugc3RhdGVtZW50cy4wRAYDVR0fBD0wOzA5oDegNYYzaHR0cHM6Ly93
d3cuYXBwbGUuY29tL2NlcnRpZmljYXRlYXV0aG9yaXR5L3Jvb3QuY3JsMFUGCCsG
AQUFBwEBBEkwRzBFBggrBgEFBQcwAoY5aHR0cHM6Ly93d3cuYXBwbGUuY29tL2Nl
cnRpZmljYXRlYXV0aG9yaXR5L2Nhc2lnbmVycy5odG1sMA0GCSqGSIb3DQEBBQUA
A4IBAQAwMCoHpUYmRlgXs2Fhjgw+6eNzyHldCv7AAeKDs8FhqInc2RSMWPlJ8T5l
N9LKQoIng/vnIrbXPkWNMEeCisT0mzkcV/FhZE/4hU+ETO10dX/KGKBVPRfQa6NR
8u4hqtgs7etyIep9ZkYMao1OihEE3c7Icpl9BZ32EslVX9ySwT5Bpga8TvbI50Xg
WSzlukuLrgHuu5Mdpl7C9W+oebDbszFbQ+t3ZNQGAT9k7r3wqmNR2ka2Bq4h4hZF
Cb9WUQHNHpK+eXpBSxL53cwsrDgeiIL6YWNsy0Q0zyg6pa0viqLPgMjBnP+w3ugu
PXKt1rpgXj2++caDfSYHtK6G+L2k
-----END CERTIFICATE-----
