__Znwm
dyld_stub_binding_helper
__ZNSt24__default_alloc_templateILb1ELi0EE8allocateEm
__ZNSt24__default_alloc_templateILb1ELi0EE5_LockC4Ev
__ZNSt24__default_alloc_templateILb1ELi0EE9_S_refillEm
__ZNSt24__default_alloc_templateILb1ELi0EE14_S_chunk_allocEmRi
__ZNSt24__default_alloc_templateILb1ELi0EE5_LockD4Ev
__ZN8Security5MutexC1Eb
__ZN8Security5MutexC4Eb
__ZN8Security5MutexC2Eb
__ZN8Security15ThreadStoreSlotC2EPFvPvE
__ZN8Security15ThreadStoreSlotC4EPFvPvE
__call_mod_init_funcs
__start
__call_objcInit
__dyld_func_lookup
_crt_basename
_crt_strbeginswith
_main
__ZN8Security6Syslog4openEPKcii
__ZN8Security11CodeSigning9OSXSignerC1Ev
__ZN8Security11CodeSigning9OSXSignerC4Ev
__ZN8Security10CssmClient7CSPImplC1ERKNS_4GuidE
__ZN8Security10CssmClient7CSPImplC4ERKNS_4GuidE
__ZN8Security10CssmClient14AttachmentImplC2ERKNS_4GuidEm
__ZN8Security10CssmClient14AttachmentImplC4ERKNS_4GuidEm
__ZN8Security10CssmClient8CssmImpl8standardEv
__ZN8Security17ModuleNexusCommon6createEPFPvvE
__ZN8Security5Mutex4lockEv
__ZN8Security5Mutex6unlockEv
__ZN8Security5MutexD1Ev
__ZN8Security5MutexD4Ev
__ZdlPv
__ZN8Security10CssmClient8CssmImpl12StandardCssm3getEv
__ZN8Security10CssmClient8CssmImplC4Eb
__ZN8Security10CssmClient10ObjectImplC4Ev
__ZN8Security10CssmClient8CssmImpl5setupEv
___dynamic_cast
__ZNK10__cxxabiv120__si_class_type_info12__do_dyncastEiNS_17__class_type_info10__sub_kindEPKS1_PKvS4_S6_RNS1_16__dyncast_resultE
__ZNKSt9type_infoeqERKS_
__ZN8Security10CssmClient8CssmImpl10autoModuleERKNS_4GuidE
__ZN8Security10CssmClient10ModuleImplC1ERKNS_4GuidERKNS0_4CssmE
__ZN8Security10CssmClient10ModuleImplC4ERKNS_4GuidERKNS0_4CssmE
__ZN8Security10CssmClient10ObjectImplC4ERKNS0_6ObjectE
__ZN8Security10CssmClient10ObjectImpl8addChildEv
__ZN8Security10CssmClient14AttachmentImpl4makeEm
__ZN9AuthorityC1EPKc
__ZN9AuthorityC4EPKc
__ZN13Authorization6EngineC2EPKc
__ZN13Authorization6EngineC4EPKc
__ZN13Authorization20AuthorizationDBPlistC1EPKc
__ZN13Authorization20AuthorizationDBPlistC4EPKc
__ZNSsC1EPKcRKSaIcE
__ZNSsC4EPKcRKSaIcE
__ZNSs12_S_constructIPKcEEPcT_S3_RKSaIcESt20forward_iterator_tag
__ZNSs4_Rep9_S_createEmRKSaIcE
__ZNSs12_Alloc_hiderC4EPcRKSaIcE
__ZN8Security10AclSubject5MakerC2El
__ZN8Security10AclSubject5MakerC4El
__ZN14CodeSignaturesC1EPKc
__ZN14CodeSignaturesC4EPKc
__ZN8Security12UnixPlusPlus6UnixDbC1Ev
__ZN8Security12UnixPlusPlus6UnixDbC4Ev
__ZN8Security12UnixPlusPlus6UnixDb4openEPKcii6DBTYPE
__ZN8Security12UnixPlusPlus6UnixDb5closeEv
__ZN8Security12UnixPlusPlus6UnixDb5flushEi
__ZN6ServerC1ER9AuthorityR14CodeSignaturesPKc
__ZN6ServerC4ER9AuthorityR14CodeSignaturesPKc
__ZN8Security5MutexC2ENS0_4TypeEb
__ZN8Security5MutexC4ENS0_4TypeEb
__ZN8Security12MachPlusPlus10MachServerC2EPKc
__ZN8Security12MachPlusPlus10MachServerC4EPKc
__ZN8Security12MachPlusPlus5Error5checkEi
__ZN8Security12MachPlusPlus11ReceivePortC1EPKcRKNS0_9BootstrapE
__ZN8Security12MachPlusPlus11ReceivePortC4EPKcRKNS0_9BootstrapE
__ZNK8Security12MachPlusPlus9Bootstrap15checkInOptionalEPKc
__ZNK8Security12MachPlusPlus9Bootstrap10registerAsEjPKc
__ZN8Security12MachPlusPlus10MachServer5setupEPKc
__ZN8Security18DevRandomGeneratorC2Eb
__ZN8Security18DevRandomGeneratorC4Eb
__ZN8Security12MachPlusPlus16PortPowerWatcherC2Ev
__ZN8Security12MachPlusPlus16PortPowerWatcherC4Ev
__ZN8Security12MachPlusPlus14IOPowerWatcherC4Ev
__ZN8Security10CssmClient8CssmImplC1Ev
__ZN8Security10CssmClient8CssmImplC4Ev
__ZN8Security10CssmClient8CssmImpl12StandardCssm7setCssmEPS1_
__ZN8Security10CssmClient7CSPImplC1ERKNS0_6ModuleE
__ZN8Security10CssmClient7CSPImplC4ERKNS0_6ModuleE
__ZN8Security10CssmClient14AttachmentImplC2ERKNS0_6ModuleEm
__ZN8Security10CssmClient14AttachmentImplC4ERKNS0_6ModuleEm
__ZN8Security14CommonCriteria10TerminalIdC1Ev
__ZN8Security14CommonCriteria10TerminalIdC4Ev
__ZN8Security14CommonCriteria12AuditSession15registerSessionEv
__ZN8Security12MachPlusPlus10MachServer3addERNS1_7HandlerE
__ZN14EntropyManagerC1ERN8Security12MachPlusPlus10MachServerEPKc
__ZN14EntropyManagerC4ERN8Security12MachPlusPlus10MachServerEPKc
__ZN8Security4Time3nowEv
__ZN8Security12UnixPlusPlus8FileDesc4openEPKcit
__ZN8Security12UnixPlusPlus8FileDesc4readEPvm
__ZN8Security18DevRandomGenerator10addEntropyEPKvm
__ZN8Security12UnixPlusPlus8FileDesc5writeEPKvm
__ZN8Security12UnixPlusPlus8FileDesc5closeEv
__ZN14EntropyManager6actionEv
__ZN14EntropyManager14collectEntropyEv
__ZN14EntropyManager17updateEntropyFileEv
__ZN8Security18DevRandomGenerator6randomEPvm
__ZN8Security12MachPlusPlus10MachServer8setTimerEPNS1_5TimerENS_4Time8AbsoluteE
__ZN10TokenCacheC1EPKc
__ZN10TokenCacheC4EPKc
__ZNSsC1ERKSs
__ZNSsC4ERKSs
__ZNKSs13get_allocatorEv
__ZN10TokenCache7makedirEPKcitNS_5OwnerE
__ZN8Security12UnixPlusPlus7makedirEPKcit
__ZNSsD4Ev
__ZNK6Rooted4pathEPKc
__ZNSs6appendEPKcm
__ZNSs7reserveEm
__ZNSs4_Rep8_M_cloneERKSaIcEm
__ZNKSs7_M_iendEv
__ZNSs15_M_replace_safeIPKcEERSsN9__gnu_cxx17__normal_iteratorIPcSsEES6_T_S7_
__ZNKSs9_M_ibeginEv
__ZNSs9_M_mutateEmmm
__ZNSs4_Rep10_M_destroyERKSaIcE
__Z9scOptionsPKc
__ZN11PCSCMonitorC1ER6ServerR10TokenCacheNS_12ServiceLevelE
__ZN11PCSCMonitorC4ER6ServerR10TokenCacheNS_12ServiceLevelE
__ZN8ListenerC2Emm
__ZN8ListenerC4Emm
__ZN8Listener5setupEv
__ZN8Security12UnixPlusPlus5ChildC2Ev
__ZN8Security12UnixPlusPlus5ChildC4Ev
__ZN8Security4PCSC7SessionC1Ev
__ZN8Security4PCSC7SessionC4Ev
__ZNSaIcED4Ev
__ZN8Security5IOKit24MachPortNotificationPortC1Ev
__ZN8Security5IOKit24MachPortNotificationPortC4Ev
__ZN8Security5IOKit16NotificationPortC4Ev
__ZN8Security5IOKit10MasterPortC4Ev
__ZN11RootSessionC1ER6Serverm
__ZN11RootSessionC4ER6Serverm
__ZN7SessionC4EN8Security12MachPlusPlus9BootstrapENS1_4PortEm
__ZN8Security12HandleObject5StateC1Ev
__ZN8Security12HandleObject5StateC4Ev
__ZN8Security12HandleObject5State4makeEPS0_
__ZN8NodeCore6parentERS_
__ZN6Server8loadCssmEv
__ZN8Security9MDSClient9DirectoryC1Ev
__ZN8Security9MDSClient9DirectoryC4Ev
__ZN8Security9Allocator8standardEm
__ZN8Security28CssmAllocatorMemoryFunctionsC1ERNS_9AllocatorE
__ZN8Security28CssmAllocatorMemoryFunctionsC4ERNS_9AllocatorE
__ZN8Security28CssmAllocatorMemoryFunctions11relayMallocEmPv
__ZN16DefaultAllocator6mallocEm
__ZN8Security28CssmAllocatorMemoryFunctions9relayFreeEPvS1_
__ZN16DefaultAllocator4freeEPv
__ZN8Security9MDSClient9Directory7installEv
__ZN8Security10CssmClient8CssmImpl8activateEv
__ZN8Security10CssmClient14AttachmentImpl8activateEv
__ZNK8Security10CssmClient14AttachmentImpl6moduleEv
__ZNK10__cxxabiv121__vmi_class_type_info12__do_dyncastEiNS_17__class_type_info10__sub_kindEPKS1_PKvS4_S6_RNS1_16__dyncast_resultE
__ZN8Security10CssmClient10ModuleImpl8activateEv
__ZNK8Security10CssmClient10ModuleImpl7sessionEv
__ZNK8Security10CssmClient10ObjectImpl9allocatorEv
__ZN8Security6Syslog6noticeEPKcz
__ZN6Server3runEv
__ZN8Security12MachPlusPlus10MachServer3runEmi
__ZN8Security12MachPlusPlus10MachServer15runServerThreadEb
__ZN8Security12MachPlusPlus7MessageC1Em
__ZN8Security12MachPlusPlus7MessageC4Em
__ZN8Security12MachPlusPlus7Message9setBufferEm
__ZN8Security12MachPlusPlus7Message7releaseEv
__Znam
__ZN8Security12MachPlusPlus10MachServer12processTimerEv
__ZN11PCSCMonitor6actionEv
__ZN11PCSCMonitor12initialSetupEv
__ZN6Server12SleepWatcher3addEPN8Security12MachPlusPlus12PowerWatcherE
__ZN8Security5IOKit11DeviceMatchC1EPKc
__ZN8Security5IOKit11DeviceMatchC4EPKc
__ZN8Security5IOKit16NotificationPort3addENS0_11DeviceMatchERNS1_8ReceiverEPKc
__ZN11PCSCMonitor8ioChangeERN8Security5IOKit14DeviceIteratorE
__ZN8Security5IOKit14DeviceIteratorclEv
__ZN11PCSCMonitor13deviceSupportERKN8Security5IOKit6DeviceE
__ZNK8Security5IOKit6Device8propertyEPKc
__ZN8Security8cfNumberEPK10__CFNumber
__ZN8Security5IOKit6DeviceD1Ev
__ZN8Security5IOKit6DeviceD4Ev
__ZN8Security5IOKit14DeviceIteratorD4Ev
__ZN8Security12MachPlusPlus10MachServer26releaseDeferredAllocationsEv
__ZN6Server6handleEP17mach_msg_header_tS1_
__Z11ucsp_serverP17mach_msg_header_tS0_
__Z7_XsetupP17mach_msg_header_tS0_
__Z29__MIG_check__Request__setup_tP18__Request__setup_t
__Z17ucsp_server_setupjj13audit_token_tPljN8Security14SecurityServer15ClientSetupInfoEPKc
__ZN6Server15setupConnectionENS_12ConnectLevelEN8Security12MachPlusPlus4PortES3_S3_RK13audit_token_tPKNS1_14SecurityServer15ClientSetupInfoEPKc
__ZN8Security14CommonCriteria10AuditTokenC1ERK13audit_token_t
__ZN8Security14CommonCriteria10AuditTokenC4ERK13audit_token_t
__ZN7ProcessC1EN8Security12MachPlusPlus4PortENS1_8TaskPortEPKNS0_14SecurityServer15ClientSetupInfoEPKcjj
__ZN7ProcessC4EN8Security12MachPlusPlus4PortENS1_8TaskPortEPKNS0_14SecurityServer15ClientSetupInfoEPKcjj
__ZN14CodeSignatures8IdentityC2Ev
__ZN14CodeSignatures8IdentityC4Ev
__ZN7Session4findEN8Security12MachPlusPlus4PortE
__ZNK8Security12MachPlusPlus8TaskPort3pidEv
__ZN8Security7OSXCode6decodeEPKc
__ZNK8Security12MachPlusPlus10MachServer12notifyIfDeadENS0_4PortEb
__ZN8Security12MachPlusPlus4Port13requestNotifyEjij
__ZN10ConnectionC1ER7ProcessN8Security12MachPlusPlus4PortE
__ZN10ConnectionC4ER7ProcessN8Security12MachPlusPlus4PortE
__Z21_XauthorizationCreateP17mach_msg_header_tS0_
__Z43__MIG_check__Request__authorizationCreate_tP32__Request__authorizationCreate_t
__Z31ucsp_server_authorizationCreatejj13audit_token_tPlP20AuthorizationItemSetjS2_mS2_jS2_PN8Security14SecurityServer17AuthorizationBlobE
__ZN6Server10connectionEj
__ZN10Connection9beginWorkEv
__ZN13Authorization11AuthItemSetC1EPK20AuthorizationItemSet
__ZN13Authorization11AuthItemSetC4EPK20AuthorizationItemSet
__ZNK7Process7sessionEv
__ZN7Session10authCreateERKN13Authorization11AuthItemSetES3_mRN8Security14SecurityServer17AuthorizationBlobERK13audit_token_t
__ZN18AuthorizationTokenC1ER7SessionRKSt3setIN13Authorization10CredentialESt4lessIS4_ESaIS4_EERK13audit_token_t
__ZN18AuthorizationTokenC4ER7SessionRKSt3setIN13Authorization10CredentialESt4lessIS4_ESaIS4_EERK13audit_token_t
__ZN6Server7processEv
__ZN6Server10connectionEb
__ZN10Connection9checkWorkEv
__ZN13Authorization11AuthItemSetC1Ev
__ZN13Authorization11AuthItemSetC4Ev
__ZN8NodeCore8referentERS_
__ZN13Authorization6Engine9authorizeERKNS_11AuthItemSetES3_mPKSt3setINS_10CredentialESt4lessIS5_ESaIS5_EEPS9_RS1_R18AuthorizationToken
__ZN13Authorization20AuthorizationDBPlist4syncEd
__ZN13Authorization20AuthorizationDBPlist4loadEd
__ZN13Authorization20AuthorizationDBPlist11parseConfigEPK14__CFDictionary
__ZN13Authorization20AuthorizationDBPlist9parseRuleEPKvS2_Pv
__ZN13Authorization20AuthorizationDBPlist8addRightEPK10__CFStringPK14__CFDictionary
__ZN8Security8cfStringEPK10__CFStringb
__ZNSsC4Ev
__ZNSs6assignEPKcm
__ZdaPv
__ZN13Authorization4RuleC1Ev
__ZN13Authorization4RuleC4Ev
__ZN13Authorization8RuleImplC4Ev
__ZN13Authorization4RuleC1ERKSsPK14__CFDictionaryS5_
__ZN13Authorization4RuleC4ERKSsPK14__CFDictionaryS5_
__ZN13Authorization8RuleImplC4ERKSsPK14__CFDictionaryS5_
__ZN13Authorization8RuleImpl9Attribute9getStringEPK14__CFDictionaryPK10__CFStringbPc
__ZNKSs7compareEPKc
__ZNSs6assignERKSs
__ZNSs4_Rep7_M_grabERKSaIcES2_
__ZN13Authorization8RuleImpl9Attribute9getDoubleEPK14__CFDictionaryPK10__CFStringbd
__ZN13Authorization8RuleImpl9Attribute7getBoolEPK14__CFDictionaryPK10__CFStringbb
__ZN13Authorization8RuleImpl9Attribute9getVectorEPK14__CFDictionaryPK10__CFStringb
__ZSt13__destroy_auxIPSsEvT_S1_12__false_type
__ZNSt24__default_alloc_templateILb1ELi0EE10deallocateEPvm
__ZN13Authorization8RuleImpl9Attribute19getLocalizedPromptsEPK14__CFDictionaryRSt3mapISsSsSt4lessISsESaISt4pairIKSsSsEEE
__ZNKSs7compareERKSs
__ZN13Authorization11AuthItemSetD1Ev
__ZN13Authorization11AuthItemSetD4Ev
__ZN7Process16addAuthorizationEP18AuthorizationToken
__ZN18AuthorizationToken10addProcessER7Process
__ZN6Server15requestCompleteEv
__ZN10Connection7endWorkEv
__Z26_XauthorizationInternalizeP17mach_msg_header_tS0_
__Z36ucsp_server_authorizationInternalizejj13audit_token_tPl25AuthorizationExternalFormPN8Security14SecurityServer17AuthorizationBlobE
__ZN7Session15authInternalizeERK25AuthorizationExternalFormRN8Security14SecurityServer17AuthorizationBlobE
__ZN18AuthorizationToken4findERKN8Security14SecurityServer17AuthorizationBlobE
__ZN13Authorization5Error7throwMeEi
___cxa_allocate_exception
__ZN13Authorization5ErrorC4Ei
__ZN8Security11CommonErrorC2Ev
__ZN8Security11CommonErrorC4Ev
___cxa_throw
___cxa_get_globals
__Z21get_globals_init_oncev
__Unwind_RaiseException
save_world
_uw_init_context_1
_uw_frame_state_for
__Unwind_Find_FDE
__Unwind_Find_registered_FDE
_examine_objects
_search_object
_init_object
_classify_object_over_fdes
_get_cie_encoding
_read_uleb128
_read_sleb128
_base_from_object
_read_encoded_value_with_base
_size_of_encoded_value
_add_fdes
_fde_split
_fde_single_encoding_compare
_frame_heapsort
_extract_cie_info
_read_uleb128
_read_sleb128
_execute_cfa_program
_size_of_encoded_value
_uw_update_context_1
_base_of_encoded_value
_read_encoded_value_with_base
___gxx_personality_v0
__Unwind_GetLanguageSpecificData
_uw_update_context
__Z17parse_lsda_headerP15_Unwind_ContextPKhP16lsda_header_info
__Unwind_GetRegionStart
__Z12read_uleb128PKhPj
__Z21base_of_encoded_valuehP15_Unwind_Context
__Unwind_GetIP
__Z28read_encoded_value_with_basehjPKhPj
__Z12read_sleb128PKhPi
__Z15get_ttype_entryP16lsda_header_infoj
__Z21size_of_encoded_valueh
__Z16get_adjusted_ptrPKSt9type_infoS1_PPv
__ZNKSt9type_info14__is_pointer_pEv
__ZNK10__cxxabiv117__class_type_info10__do_catchEPKSt9type_infoPPvj
__ZNK10__cxxabiv117__class_type_info11__do_upcastEPKS0_PPv
__ZNK10__cxxabiv120__si_class_type_info11__do_upcastEPKNS_17__class_type_infoEPKvRNS1_15__upcast_resultE
__ZNK10__cxxabiv117__class_type_info11__do_upcastEPKS0_PKvRNS0_15__upcast_resultE
__Unwind_RaiseException_Phase2
__Unwind_SetGR
__Unwind_SetIP
_uw_install_context_1
_init_dwarf_reg_size_table
eh_rest_world_r10
rest_world_eh_r7r8
___cxa_begin_catch
__ZN8Security9CssmError9cssmErrorERKNS_11CommonErrorEl
__ZNK13Authorization5Error8osStatusEv
___cxa_end_catch
___cxa_get_globals_fast
__Unwind_DeleteException
__Z23__gxx_exception_cleanup19_Unwind_Reason_CodeP17_Unwind_Exception
__ZN8Security11CommonErrorD2Ev
__ZN8Security11CommonErrorD4Ev
__ZNSt9exceptionD2Ev
__ZNSt9exceptionD4Ev
___cxa_free_exception
__Z26_XauthorizationExternalizeP17mach_msg_header_tS0_
__Z36ucsp_server_authorizationExternalizejj13audit_token_tPlN8Security14SecurityServer17AuthorizationBlobEP25AuthorizationExternalForm
__ZN7Session15authExternalizeERKN8Security14SecurityServer17AuthorizationBlobER25AuthorizationExternalForm
__ZN7Session13authorizationERKN8Security14SecurityServer17AuthorizationBlobE
__ZN7Process18checkAuthorizationEP18AuthorizationToken
__ZNK18AuthorizationToken14mayExternalizeER7Process
__ZN18AuthorizationToken14mayInternalizeER7Processb
__Z16_XgetSessionInfoP17mach_msg_header_tS0_
__Z38__MIG_check__Request__getSessionInfo_tP27__Request__getSessionInfo_t
__Z26ucsp_server_getSessionInfojj13audit_token_tPlPmS1_
__ZN7Session4findEm
__ZN6Server7sessionEv
_cdsa_notify_server
__Xmach_notify_dead_name
_cdsa_mach_notify_dead_name
__ZN6Server14notifyDeadNameEN8Security12MachPlusPlus4PortE
__ZN10Connection5abortEb
__ZN10ConnectionD0Ev
__ZN10ConnectionD4Ev
__ZN8NodeCoreD2Ev
__ZN8NodeCoreD4Ev
__ZN8Security5MutexD2Ev
__Z22_XauthorizationReleaseP17mach_msg_header_tS0_
__Z44__MIG_check__Request__authorizationRelease_tP33__Request__authorizationRelease_t
__Z32ucsp_server_authorizationReleasejj13audit_token_tPlN8Security14SecurityServer17AuthorizationBlobEm
__ZN7Session8authFreeERKN8Security14SecurityServer17AuthorizationBlobEm
__ZN18AuthorizationToken7DeleterC1ERKN8Security14SecurityServer17AuthorizationBlobE
__ZN18AuthorizationToken7DeleterC4ERKN8Security14SecurityServer17AuthorizationBlobE
__ZN7Process19removeAuthorizationEP18AuthorizationToken
__ZN18AuthorizationToken10endProcessER7Process
__ZN7Process4killEv
__ZN8NodeCore4killEv
__ZN8NodeCore15clearReferencesEv
__ZN7ProcessD0Ev
__ZN7ProcessD4Ev
__ZN18AuthorizationTokenD0Ev
__ZN18AuthorizationTokenD4Ev
__ZN14CodeSignatures8IdentityD2Ev
__ZN14CodeSignatures8IdentityD4Ev
__ZN8Security12HandleObjectD2Ev
__ZN8Security12HandleObjectD4Ev
__ZN8Security12HandleObject5State5eraseEPS0_
__ZN18AuthorizationToken7Deleter6removeEv
__ZN8Security13GenericBundleC1EPKcS2_
__ZN8Security13GenericBundleC4EPKcS2_
__Z10_XsetupNewP17mach_msg_header_tS0_
__Z32__MIG_check__Request__setupNew_tP21__Request__setupNew_t
__Z20ucsp_server_setupNewjj13audit_token_tPljN8Security14SecurityServer15ClientSetupInfoEPKcPj
__ZN14DynamicSessionC1EN8Security12MachPlusPlus8TaskPortE
__ZN14DynamicSessionC4EN8Security12MachPlusPlus8TaskPortE
__ZN8Security12MachPlusPlus11ReceivePortC2EPKcRKNS0_9BootstrapE
__ZN8Security12MachPlusPlus10MachServer3addENS0_4PortE
__ZNK8Security12MachPlusPlus10MachServer14notifyIfUnusedENS0_4PortEb
__ZN7Process13changeSessionEN8Security12MachPlusPlus4PortE
__Z14_XsetupSessionP17mach_msg_header_tS0_
__Z36__MIG_check__Request__setupSession_tP25__Request__setupSession_t
__Z24ucsp_server_setupSessionjj13audit_token_tPlmm
__ZN14DynamicSession15setupAttributesEmm
__ZN14DynamicSession15checkOriginatorEv
__Z13_XsetupThreadP17mach_msg_header_tS0_
__Z23ucsp_server_setupThreadjj13audit_token_tPlj
__Z25_XauthorizationCopyRightsP17mach_msg_header_tS0_
__Z47__MIG_check__Request__authorizationCopyRights_tP36__Request__authorizationCopyRights_t
__Z35ucsp_server_authorizationCopyRightsjj13audit_token_tPlN8Security14SecurityServer17AuthorizationBlobEP20AuthorizationItemSetjS5_mS5_jS5_PS5_PjS6_
__ZN26CheckingReconstituteWalkerC1EPvS0_mb
__ZN26CheckingReconstituteWalkerC4EPvS0_mb
__ZN13Authorization11AuthItemRefC4ERK17AuthorizationItem
__ZN13Authorization8AuthItemC4ERK17AuthorizationItem
__ZN7Session13authGetRightsERKN8Security14SecurityServer17AuthorizationBlobERKN13Authorization11AuthItemSetES8_mRS6_
__ZNK18AuthorizationToken14effectiveCredsEv
__ZNK18AuthorizationToken7sessionEv
__ZNK13Authorization20AuthorizationDBPlist7getRuleERKNS_11AuthItemRefE
__ZNK13Authorization8RuleImpl8evaluateERKNS_11AuthItemRefERKNS_4RuleERNS_11AuthItemSetEmdPKSt3setINS_10CredentialESt4lessISA_ESaISA_EERSE_R18AuthorizationToken
__ZNK13Authorization8RuleImpl21evaluateMechanismOnlyERKNS_11AuthItemRefERKNS_4RuleERNS_11AuthItemSetER18AuthorizationTokenRSt3setINS_10CredentialESt4lessISC_ESaISC_EE
__ZN13Authorization23AgentMechanismEvaluatorC1EjRK7SessionRKSt6vectorISsSaISsEE
__ZN13Authorization23AgentMechanismEvaluatorC4EjRK7SessionRKSt6vectorISsSaISsEE
__ZNK13Authorization8RuleImpl13setAgentHintsERKNS_11AuthItemRefERKNS_4RuleERNS_11AuthItemSetER18AuthorizationToken
__ZN13Authorization11AuthItemRefC1EPKc
__ZN13Authorization11AuthItemRefC4EPKc
__ZN13Authorization8AuthItemC4EPKc
__ZN13Authorization8AuthItemD1Ev
__ZN13Authorization8AuthItemD4Ev
__ZN13Authorization11AuthItemRefC1EPKc18AuthorizationValuem
__ZN13Authorization11AuthItemRefC4EPKc18AuthorizationValuem
__ZN13Authorization8AuthItemC4EPKc18AuthorizationValuem
__ZNK13Authorization8AuthItemltERKS0_
__ZNK8Security13GenericBundle6encodeEv
__ZStplIcSt11char_traitsIcESaIcEESbIT_T0_T1_EPKS3_RKS6_
__ZNSs7replaceEN9__gnu_cxx17__normal_iteratorIPcSsEES2_PKcS4_
__ZNSs7replaceEmmPKcm
__ZNSs6appendERKSs
__ZNSs15_M_replace_safeIN9__gnu_cxx17__normal_iteratorIPcSsEEEERSsS3_S3_T_S5_
__ZNSs13_S_copy_charsEPcN9__gnu_cxx17__normal_iteratorIS_SsEES2_
__ZNK8Security13GenericBundle13canonicalPathEv
__ZN13SecurityAgent6Client11clientHintsENS_13RequestorTypeERSsij
__ZNKSs5c_strEv
__ZN13Authorization23AgentMechanismEvaluator3runERKNS_15AuthValueVectorERKNS_11AuthItemSetERK18AuthorizationToken
__ZN18AuthorizationToken7infoSetEPKc
__ZNKSs4findEcm
__ZNKSs6substrEmm
__ZNSsC1ERKSsmm
__ZNSsC4ERKSsmm
__ZNKSs8_M_checkEm
__ZNKSs7_M_foldEmm
__ZNSs12_S_constructIN9__gnu_cxx17__normal_iteratorIPcSsEEEES2_T_S4_RKSaIcESt20forward_iterator_tag
__ZNKSs5rfindEcm
__ZN13Authorization17AgentMechanismRefC4E12AuthHostType
__ZN20QueryInvokeMechanismC1E12AuthHostType
__ZN20QueryInvokeMechanismC4E12AuthHostType
__ZN18SecurityAgentQueryC4E12AuthHostType
__ZN13SecurityAgent6ClientC2Ev
__ZN13SecurityAgent6ClientC4Ev
__ZN7Session8authhostE12AuthHostTypeb
__ZN16AuthHostInstanceC1ER7Session12AuthHostType
__ZN16AuthHostInstanceC4ER7Session12AuthHostType
__ZN11ServerChildC2Ev
__ZN11ServerChildC4Ev
__ZN8Security9ConditionC1ERNS_5MutexE
__ZN8Security9ConditionC4ERNS_5MutexE
__ZN8NodeCore12addReferenceERS_
__ZN20QueryInvokeMechanism10initializeERKSsS1_RKN13Authorization15AuthValueVectorEj
__ZN18SecurityAgentQuery6createEPKcS1_j
__ZN18SecurityAgentQuery8activateEv
__ZN8Security12MachPlusPlus10MachServer16longTermActivityEv
__ZN8Security6Thread3runEv
__ZN16AuthHostInstance8activateEv
__ZN8Security6Thread6runnerEPv
__ZNK16AuthHostInstance7sessionEv
__ZN8Security12MachPlusPlus10MachServer10LoadThread6actionEv
__ZN8Security12MachPlusPlus11StBootstrapC1ERKNS0_9BootstrapERKNS0_8TaskPortE
__ZN8Security12MachPlusPlus10MachServer9addThreadEPNS_6ThreadE
__ZN8Security12MachPlusPlus11StBootstrapC4ERKNS0_9BootstrapERKNS0_8TaskPortE
__ZN8Security12UnixPlusPlus5Child4forkEv
__ZN11ServerChild12parentActionEv
__ZN8Security9Condition4waitEv
__Z14_XchildCheckInP17mach_msg_header_tS0_
__Z24ucsp_server_childCheckInjjj
__ZN11ServerChild7checkInEN8Security12MachPlusPlus4PortEi
__ZN8Security12UnixPlusPlus5Child11findGenericEi
__ZN8Security9Condition6signalEv
__ZN8Security12MachPlusPlus11StBootstrapD1Ev
__ZN8Security12MachPlusPlus11StBootstrapD4Ev
__ZN13SecurityAgent6Client8activateEN8Security12MachPlusPlus4PortE
__ZN13SecurityAgent6Client6createEPKcS2_j
_sa_request_client_create
__ZN13SecurityAgent6Client7receiveEv
__ZN13SecurityAgent7Clients7receiveEv
__ZN8Security12MachPlusPlus7Message7receiveEjijj
__ZN8Security12MachPlusPlus7Message5checkEi
_secagentreply_server
__XdidCreate
_sa_reply_server_didCreate
__ZNK13SecurityAgent7Clients4findEj
__ZN13SecurityAgent6Client12setStagePortEj
__ZN8Security12MachPlusPlus7MessageD1Ev
__ZN8Security12MachPlusPlus7MessageD4Ev
__ZN20QueryInvokeMechanism3runERKN13Authorization15AuthValueVectorERNS0_11AuthItemSetES5_Pm
__ZN13SecurityAgent6Client6invokeEv
__ZNK13Authorization11AuthItemSet4copyERP20AuthorizationItemSetRmRN8Security9AllocatorE
__ZNK13Authorization15AuthValueVector4copyEPP24AuthorizationValueVectorPm
_sa_request_client_invoke
__ZN13SecurityAgent6Client5checkEi
__XsetResult
___MIG_check__Request__setResult_t
_sa_reply_server_setResult
__ZN13Authorization11AuthItemSetaSERK20AuthorizationItemSet
__ZN8Security12MachPlusPlus10deallocateEjm
__ZN13Authorization23AgentMechanismEvaluator12authinternalERNS_11AuthItemSetE
__ZNSsC1EPKcmRKSaIcE
__ZNSsC4EPKcmRKSaIcE
__ZN13Authorization10CredentialC1ERKSsS2_b
__ZN13Authorization10CredentialC4ERKSsS2_b
__ZN13Authorization14CredentialImplC4ERKSsS2_b
__ZNK13Authorization14CredentialImpl7isValidEv
__ZN8Security6Syslog4infoEPKcz
__ZN13Authorization10CredentialD1Ev
__ZN13Authorization10CredentialD4Ev
__ZN13Authorization14CredentialImplD4Ev
__ZN13Authorization11AuthItemSet4findEPKc
__ZN8Security14CommonCriteria11AuditRecord6submitEsiPKc
__ZN18AuthorizationToken10setInfoSetERN13Authorization11AuthItemSetE
__ZNK13Authorization8RuleImpl15makeCredentialsERK18AuthorizationToken
__ZN13Authorization10CredentialC1ERKSsjjb
__ZN13Authorization10CredentialC4ERKSsjjb
__ZN13Authorization14CredentialImplC4ERKSsjjb
__ZN18SecurityAgentQueryD4Ev
__ZN13SecurityAgent6Client7destroyEv
_sa_request_client_destroy
__ZN13SecurityAgent6ClientD2Ev
__ZN13SecurityAgent6ClientD4Ev
__ZN13SecurityAgent6Client8teardownEv
__ZN20QueryInvokeMechanism14terminateAgentEv
__ZN18SecurityAgentQuery9terminateEv
__ZN13SecurityAgent6Client9terminateEv
_sa_request_client_terminate
__ZN7Session16mergeCredentialsERSt3setIN13Authorization10CredentialESt4lessIS2_ESaIS2_EE
__ZNK13Authorization14CredentialImpl8isSharedEv
__ZN18AuthorizationToken16mergeCredentialsERKSt3setIN13Authorization10CredentialESt4lessIS2_ESaIS2_EE
__Z10flipClientv
__ZN8Security12MachPlusPlus10MachServer15releaseWhenDoneERNS_9AllocatorEPv
__Z13handleSignalsi
__ZN8Security13GenericBundleD0Ev
_self_client_handleSignal
__ZN8Security13GenericBundleD4Ev
__Z11self_serverP17mach_msg_header_tS0_
__Z14_XhandleSignalP17mach_msg_header_tS0_
__Z36__MIG_check__Request__handleSignal_tP25__Request__handleSignal_t
__Z24self_server_handleSignaljji
__ZN8Security12UnixPlusPlus5Child13checkChildrenEv
__ZN8Security12UnixPlusPlus5Child4buryEi
__ZN11ServerChild5dyingEv
__Z23_XauthorizationCopyInfoP17mach_msg_header_tS0_
__Z45__MIG_check__Request__authorizationCopyInfo_tP34__Request__authorizationCopyInfo_t
__Z33ucsp_server_authorizationCopyInfojj13audit_token_tPlN8Security14SecurityServer17AuthorizationBlobEPKcPP20AuthorizationItemSetPjS8_
__ZN7Session11authGetInfoERKN8Security14SecurityServer17AuthorizationBlobEPKcRN13Authorization11AuthItemSetE
__Z28_XsetSessionDistinguishedUidP17mach_msg_header_tS0_
__Z50__MIG_check__Request__setSessionDistinguishedUid_tP39__Request__setSessionDistinguishedUid_t
__Z38ucsp_server_setSessionDistinguishedUidjj13audit_token_tPlmj
__ZN14DynamicSession13originatorUidEj
__Z21_XsetSessionUserPrefsP17mach_msg_header_tS0_
__Z43__MIG_check__Request__setSessionUserPrefs_tP32__Request__setSessionUserPrefs_t
__Z31ucsp_server_setSessionUserPrefsjj13audit_token_tPlmPvj
__ZN14DynamicSession12setUserPrefsEPK8__CFData
__ZNK13Authorization10CredentialltERKS0_
__ZNK13Authorization14CredentialImplltERKS0_
__ZN13Authorization14CredentialImpl5mergeERKS0_
__Z10_XdecodeDbP17mach_msg_header_tS0_
__Z32__MIG_check__Request__decodeDb_tP21__Request__decodeDb_t
__Z20ucsp_server_decodeDbjj13audit_token_tPlPmPN8Security11DataWalkers18DLDbFlatIdentifierEjS5_PNS2_17AccessCredentialsEjS7_Pvj
__ZN8Security6DbNameC1EPKcPK16cssm_net_address
__ZN8Security6DbNameC4EPKcPK16cssm_net_address
__ZN16KeychainDatabaseC1ERKN8Security14DLDbIdentifierEPKNS0_14SecurityServer6DbBlobER7ProcessPKNS0_17AccessCredentialsE
__ZN16KeychainDatabaseC4ERKN8Security14DLDbIdentifierEPKNS0_14SecurityServer6DbBlobER7ProcessPKNS0_17AccessCredentialsE
__ZN8Security9ObjectAclC2ERNS_9AllocatorE
__ZN8Security9ObjectAclC4ERNS_9AllocatorE
__ZN13LocalDatabaseC2ER7Process
__ZN13LocalDatabaseC4ER7Process
__ZN8DatabaseC2ER7Process
__ZN8DatabaseC4ER7Process
__ZN16KeychainDatabase12validateBlobEPKN8Security14SecurityServer6DbBlobE
__ZNK8Security14SecurityServer10CommonBlob8validateEl
__ZNK8Security14SecurityServer10CommonBlob7isValidEv
__ZNK8Database7processEv
__ZNK10__cxxabiv117__class_type_info12__do_dyncastEiNS0_10__sub_kindEPKS0_PKvS3_S5_RNS0_16__dyncast_resultE
__ZN16KeychainDbCommonC1ER7SessionRK12DbIdentifier
__ZN16KeychainDbCommonC4ER7SessionRK12DbIdentifier
__ZN8DbCommonC2ER7Session
__ZN8DbCommonC4ER7Session
__ZN18DatabaseCryptoCoreC2Ev
__ZN18DatabaseCryptoCoreC4Ev
__ZN16KeychainDbGlobalC1ERK12DbIdentifier
__ZN16KeychainDbGlobalC4ERK12DbIdentifier
__ZNK8DbCommon7sessionEv
__ZNK16KeychainDatabase6commonEv
__Z16_XauthenticateDbP17mach_msg_header_tS0_
__Z38__MIG_check__Request__authenticateDb_tP27__Request__authenticateDb_t
__Z26ucsp_server_authenticateDbjj13audit_token_tPlmmPN8Security17AccessCredentialsEjS3_
__ZN8Security11ListElement4lastEv
__ZN8Security11ListElement4listEv
__ZN8Security11ListElement4dataEv
__ZN6Server8databaseEm
__ZN8Security12HandleObject5State6locateEml
__ZN16KeychainDatabase12authenticateEmPKN8Security17AccessCredentialsE
__Z24_XunlockDbWithPassphraseP17mach_msg_header_tS0_
__Z46__MIG_check__Request__unlockDbWithPassphrase_tP35__Request__unlockDbWithPassphrase_t
__Z34ucsp_server_unlockDbWithPassphrasejj13audit_token_tPlmPvj
__ZN6Server8keychainEm
__ZN16KeychainDatabase8unlockDbERKN8Security8CssmDataE
__ZN16KeychainDatabase12makeUnlockedERKN8Security8CssmDataE
__ZN16KeychainDatabase6decodeERKN8Security8CssmDataE
__ZN18DatabaseCryptoCore5setupEPKN8Security14SecurityServer6DbBlobERKNS0_8CssmDataE
__ZNK18DatabaseCryptoCore17deriveDbMasterKeyERKN8Security8CssmDataE
__ZN8Security10CssmClient5CryptC2ERKNS0_3CSPEm
__ZN8Security10CssmClient5CryptC4ERKNS0_3CSPEm
__ZN8Security10CssmClient7ContextC2ERKNS0_3CSPEm
__ZN8Security10CssmClient7ContextC4ERKNS0_3CSPEm
__ZN8Security10CssmClient10ObjectImplC2ERKNS0_6ObjectE
__ZN8Security10CssmClient9DeriveKeyclEPNS_8CssmDataERKNS0_7KeySpecE
__ZN8Security10CssmClient9DeriveKey8activateEv
__ZN8Security10CssmClient10ObjectImpl5checkEl
__ZNK8Security10CssmClient9RccBearer12compositeRccEv
__ZN8Security10CssmClient7KeyImplC1ERKNS0_3CSPE
__ZN8Security10CssmClient7KeyImplC4ERKNS0_3CSPE
__ZN8Security10CssmClient7KeyImpl8activateEv
__ZN8Security10CssmClient7ContextD2Ev
__ZN8Security10CssmClient7ContextD4Ev
__ZN8Security10CssmClient7Context10deactivateEv
__ZN8Security10CssmClient10ObjectImplD2Ev
__ZN8Security10CssmClient10ObjectImplD4Ev
__ZN8Security10CssmClient10ObjectImpl11removeChildEv
__ZN16KeychainDatabase6decodeEv
__ZN16KeychainDbCommon8unlockDbEPN8Security14SecurityServer6DbBlobEPPv
__ZN18DatabaseCryptoCore10decodeCoreEPN8Security14SecurityServer6DbBlobEPPv
__ZN8Security10CssmClient5Crypt3keyERKNS0_3KeyE
__ZN8Security10CssmClient7Decrypt7decryptEPKNS_8CssmDataEmPS2_mRS2_
__ZN8Security10CssmClient5Crypt8activateEv
__ZN18DatabaseCryptoCore10makeRawKeyEPvmmm
__ZN8Security10CssmClient9UnwrapKeyclERKNS_7CssmKeyERKNS0_7KeySpecERS2_PNS_8CssmDataEPS3_
__ZN8Security10CssmClient7KeyImplC1ERKNS0_3CSPERK8cssm_keyb
__ZN8Security10CssmClient7KeyImplC4ERKNS0_3CSPERK8cssm_keyb
__ZN8Security7CssmKeyC2ERK8cssm_key
__ZN8Security7CssmKeyC4ERK8cssm_key
__ZN8Security10CssmClient9VerifyMac6verifyEPKNS_8CssmDataEmRS3_
__ZN8Security10CssmClient10MacContext8activateEv
__ZN16KeychainDbCommon11setUnlockedEv
__ZN16KeychainDbCommon8activityEv
__ZN16KeychainDbCommon6notifyEm
__ZN8Security19NameValueDictionaryC1Ev
__ZN8Security19NameValueDictionaryC4Ev
__ZN8Security19NameValueDictionary41MakeNameValueDictionaryFromDLDbIdentifierERKNS_14DLDbIdentifierERS0_
__ZN8Security13NameValuePairC4EmRKNS_8CssmDataE
__ZN8Security13NameValuePair9CloneDataERKNS_8CssmDataE
__ZN8Security19NameValueDictionary6InsertEPNS_13NameValuePairE
__ZN8Security19NameValueDictionary6ExportERNS_8CssmDataE
__ZNK8Security19NameValueDictionary13CountElementsEv
__ZN8Security19NameValueDictionary10GetElementEi
__ZNK8Security13NameValuePair6ExportERNS_8CssmDataE
__ZN8Listener6notifyEmmRKN8Security8CssmDataE
__ZN8Security19NameValueDictionaryD1Ev
__ZN8Security19NameValueDictionaryD4Ev
__ZN8Security13NameValuePairD4Ev
__ZN16KeychainDatabase3aclEv
__ZN8Security9ObjectAcl10importBlobEPKvS2_
__ZN8Security9ObjectAcl5Entry10importBlobERNS_23LowLevelMemoryUtilities6ReaderES4_
__ZN8Security9ObjectAcl13importSubjectERNS_23LowLevelMemoryUtilities6ReaderES3_
__ZN8Security9ObjectAcl4makeEmRNS_23LowLevelMemoryUtilities6ReaderES3_
__ZN8Security9ObjectAcl8makerForEl
__ZNK8Security13AnyAclSubject5Maker4makeEhRNS_23LowLevelMemoryUtilities6ReaderES4_
__ZN8Security10AclSubjectC2Emh
__ZN8Security10AclSubjectC4Emh
__ZN8Security9ObjectAcl8AclEntry10importBlobERNS_23LowLevelMemoryUtilities6ReaderES4_
__ZN8Security9ObjectAcl3addERKSsRKNS0_8AclEntryE
__ZN8Security9ObjectAcl3addERKSsNS0_8AclEntryEm
__ZN8Security9ObjectAcl5EntryD2Ev
__ZN8Security9ObjectAcl5EntryD4Ev
__Z11_XreleaseDbP17mach_msg_header_tS0_
__Z33__MIG_check__Request__releaseDb_tP22__Request__releaseDb_t
__Z21ucsp_server_releaseDbjj13audit_token_tPlm
__ZN8NodeCore4killERS_
__ZN8NodeCore15removeReferenceERS_
__ZN16KeychainDatabaseD0Ev
__ZN16KeychainDatabaseD4Ev
__ZN17SecurityServerAclD2Ev
__ZN17SecurityServerAclD4Ev
__ZN8Security9ObjectAclD2Ev
__ZN8Security9ObjectAclD4Ev
__ZN8Security10AclSubjectD2Ev
__ZN8Security10AclSubjectD4Ev
__Z21_XrequestNotificationP17mach_msg_header_tS0_
__Z43__MIG_check__Request__requestNotification_tP32__Request__requestNotification_t
__Z31ucsp_server_requestNotificationjj13audit_token_tPljmm
__ZN7Process20requestNotificationsEN8Security12MachPlusPlus4PortEmm
__ZN15ProcessListenerC1ER7ProcessN8Security12MachPlusPlus4PortEmm
__ZN15ProcessListenerC4ER7ProcessN8Security12MachPlusPlus4PortEmm
__ZN8ListenerC4EN8Security12MachPlusPlus4PortEmm
__ZNK8Security17CssmSubserviceUideqERK19cssm_subservice_uid
__ZN8Security6DbNameD1Ev
__ZN8Security6DbNameD4Ev
__Z10_XisLockedP17mach_msg_header_tS0_
__Z32__MIG_check__Request__isLocked_tP21__Request__isLocked_t
__Z20ucsp_server_isLockedjj13audit_token_tPlmPi
__Z11_XdecodeKeyP17mach_msg_header_tS0_
__Z33__MIG_check__Request__decodeKey_tP22__Request__decodeKey_t
__Z21ucsp_server_decodeKeyjj13audit_token_tPlPmPN8Security7CssmKey6HeaderEmPvj
__ZN11KeychainKeyC1ER8DatabasePKN8Security14SecurityServer7KeyBlobE
__ZN11KeychainKeyC4ER8DatabasePKN8Security14SecurityServer7KeyBlobE
__ZN8LocalKeyC2ER8Databasem
__ZN8LocalKeyC4ER8Databasem
__ZN3KeyC2ER8Database
__ZN3KeyC4ER8Database
__ZN8LocalKey9returnKeyERmRN8Security7CssmKey6HeaderE
__ZN11KeychainKey9getHeaderERN8Security7CssmKey6HeaderE
__Z9_XdecryptP17mach_msg_header_tS0_
__Z31__MIG_check__Request__decrypt_tP20__Request__decrypt_t
__Z19ucsp_server_decryptjj13audit_token_tPlN8Security7ContextEPvPNS2_4AttrEjmS3_jPS3_Pj
__Z8relocateRN8Security7ContextEPvPNS0_4AttrEm
__ZN6Server3keyEm
__ZN13LocalDatabase7decryptERKN8Security7ContextER3KeyRKNS0_8CssmDataERS6_
__ZN8LocalKey8keyValueEv
__ZN11KeychainKey6getKeyEv
__ZN11KeychainKey6decodeEv
__ZNK11KeychainKey8databaseEv
__ZN16KeychainDatabase9decodeKeyEPN8Security14SecurityServer7KeyBlobERNS0_7CssmKeyERPvS7_
__ZN16KeychainDatabase8unlockDbEv
__ZN16KeychainDatabase12makeUnlockedEv
__ZN16KeychainDatabase12makeUnlockedEPKN8Security17AccessCredentialsE
__ZN8Security10CssmClient7KeyImplD0Ev
__ZN8Security10CssmClient7KeyImplD4Ev
__ZN8Security10CssmClient7KeyImpl10deactivateEv
__ZN8Security10CssmClient9AclBearerD2Ev
__ZN8Security10CssmClient9AclBearerD4Ev
__ZN15ProcessListener8notifyMeEmmRKN8Security8CssmDataE
_ucsp_notify_sender_notify
__ZNK18DatabaseCryptoCore13decodeKeyCoreEPN8Security14SecurityServer7KeyBlobERNS0_7CssmKeyERPvS7_
__ZN8Security4h2niERNS_7CssmKey6HeaderE
__ZN8Security4n2hiERNS_7CssmKey6HeaderE
__ZN8Security10CssmClient9UnwrapKeyclERKNS_7CssmKeyERKNS0_7KeySpecERS2_PNS_8CssmDataE
__ZN11KeychainKey3aclEv
__ZNK8Security19ThresholdAclSubject5Maker4makeEhRNS_23LowLevelMemoryUtilities6ReaderES4_
__ZNK24KeychainPromptAclSubject5Maker4makeEhRN8Security23LowLevelMemoryUtilities6ReaderES4_
__ZN24KeychainPromptAclSubjectC1ESsRK33cssm_acl_keychain_prompt_selector
__ZN24KeychainPromptAclSubjectC4ESsRK33cssm_acl_keychain_prompt_selector
__ZN8Security19ThresholdAclSubjectC1EmmRKSt6vectorINS_10RefPointerINS_10AclSubjectEEESaIS4_EE
__ZN8Security19ThresholdAclSubjectC4EmmRKSt6vectorINS_10RefPointerINS_10AclSubjectEEESaIS4_EE
__ZNK8Security23CodeSignatureAclSubject5Maker4makeEhRNS_23LowLevelMemoryUtilities6ReaderES4_
__ZN8Security11CodeSigning9OSXSigner7restoreEjPKvm
__ZN8Security23CodeSignatureAclSubjectC4ERNS_9AllocatorEPKNS_11CodeSigning9SignatureEPKvm
__ZN8Security12CssmAutoData5resetEv
__ZN8Security7Context4findEmPK22cssm_context_attributej
__ZN11KeychainKey15relatedDatabaseEv
__ZN17SecurityServerAcl8validateElRKN8Security7ContextEP8Database
__ZN17SecurityServerAcl8validateElPKN8Security17AccessCredentialsEP8Database
__ZN8Security9ObjectAcl8validateElPKNS_17AccessCredentialsEPNS_24AclValidationEnvironmentE
__ZN8Security9ObjectAcl9validatesElPKNS_17AccessCredentialsEPNS_24AclValidationEnvironmentE
__ZN8Security9ObjectAcl9validatesERNS_20AclValidationContextE
__ZN11KeychainKey14instantiateAclEv
__ZNK8Security20AclValidationContext9s_credTagEv
__ZNK8Security20AclValidationContext7credTagEv
__ZNK8Security9ObjectAcl8getRangeERKSsRSt4pairISt17_Rb_tree_iteratorIS3_IS1_NS0_8AclEntryEERKS6_PS7_ESA_E
__ZNK8Security9ObjectAcl8AclEntry10authorizesEl
__ZN8Security20AclValidationContext8entryTagERKSs
__ZNK8Security9ObjectAcl8AclEntry8validateERKNS_20AclValidationContextE
__ZNK8Security16SimpleAclSubject8validateERKNS_20AclValidationContextE
__ZNK8Security9TypedList8isProperEv
__ZNK8Security11ListElement4wordEv
__ZNK8Security19ThresholdAclSubject8validateERKNS_20AclValidationContextERKNS_9TypedListE
__ZNK8Security23CodeSignatureAclSubject8validateERKNS_20AclValidationContextE
__ZNK8Security13CssmOwnedData3getEv
__ZN25SecurityServerEnvironment19verifyCodeSignatureEPKN8Security11CodeSigning9SignatureEPKNS0_8CssmDataE
__ZN14CodeSignatures6verifyER7ProcessPKN8Security11CodeSigning9SignatureEPKNS2_8CssmDataE
__ZNK7Process7getHashERN8Security11CodeSigning9OSXSignerE
__ZN8Security11CodeSigning9OSXSigner4signERKNS0_8SignableE
__ZNK8Security13GenericBundle12scanContentsERNS_11CodeSigning6Signer5StateE
__ZNK8Security13GenericBundle14executablePathEv
__ZNK8Security13GenericBundle8cfBundleEv
__ZN8Security8cfStringEPK7__CFURLb
__ZN8Security7OSXCode8scanFileEPKcRNS_11CodeSigning6Signer5StateE
__ZN8Security11CodeSigning9OSXSigner8Digester17enumerateContentsEPKvm
__ZN8Security10CssmClient6Digest6digestEPKNS_8CssmDataEm
__ZN8Security10CssmClient6Digest8activateEv
__ZN8Security10CssmClient6DigestclERNS_8CssmDataE
__ZN14CodeSignatures4findERNS_8IdentityEj
__ZN5DbKeyC4EcRKN8Security8CssmDataEbj
__ZNK8Security12UnixPlusPlus6UnixDb3getERKNS_8CssmDataERS2_i
__ZN8Security15CssmManagedDataD2Ev
__ZN8Security15CssmManagedDataD4Ev
__ZN14CodeSignatures8Identity13canonicalNameERKSs
__ZNK7Process7getPathEv
__ZNK8Security8CssmList6lengthEv
__ZNK8Security8CssmListixEj
__ZNK24KeychainPromptAclSubject8validateERKN8Security20AclValidationContextERKNS0_9TypedListE
__ZNK10__cxxabiv121__vmi_class_type_info20__do_find_public_srcEiPKvPKNS_17__class_type_infoES2_
__ZNK10__cxxabiv117__class_type_info20__do_find_public_srcEiPKvPKS0_S2_
__ZN16QueryKeychainUseC1EbPK8Database
__ZN16QueryKeychainUseC4EbPK8Database
__ZN16AuthHostInstanceD0Ev
__ZN16AuthHostInstanceD4Ev
__ZN11ServerChildD2Ev
__ZN11ServerChildD4Ev
__ZN8Security9ConditionD1Ev
__ZN8Security9ConditionD4Ev
__ZN8Security12UnixPlusPlus5ChildD2Ev
__ZN8Security12UnixPlusPlus5ChildD4Ev
__ZN18SecurityAgentQuery10inferHintsER7Process
__ZNK16KeychainDatabase6dbNameEv
__ZN16QueryKeychainUse9queryUserEPKcS1_l
__ZN13SecurityAgent6Client11checkResultEv
__ZN13Authorization8AuthItem11getCssmDataERN8Security12CssmAutoDataE
__ZN18SensitiveAllocator4freeEPv
__ZN18SecurityAgentQuery10readChoiceEv
__ZN13Authorization8AuthItem9getStringERSs
__ZN18SecurityAgentQueryD2Ev
__ZN8Security20AclValidationContextD2Ev
__ZN8Security20AclValidationContextD4Ev
__ZN8Security24AclValidationEnvironmentD2Ev
__ZN8Security24AclValidationEnvironmentD4Ev
__ZN8Security10CssmClient7Context8overrideERKNS_7ContextE
__Z12_XreleaseKeyP17mach_msg_header_tS0_
__Z34__MIG_check__Request__releaseKey_tP23__Request__releaseKey_t
__Z22ucsp_server_releaseKeyjj13audit_token_tPlm
__ZN8Database10releaseKeyER3Key
__ZN11KeychainKeyD0Ev
__ZN11KeychainKeyD4Ev
__ZN8Security23CodeSignatureAclSubjectD0Ev
__ZN8Security23CodeSignatureAclSubjectD4Ev
__ZN8LocalKeyD2Ev
__ZN8LocalKeyD4Ev
__Z18_XpostNotificationP17mach_msg_header_tS0_
__Z40__MIG_check__Request__postNotification_tP29__Request__postNotification_t
__Z28ucsp_server_postNotificationjmmPvj
__ZN8Listener6removeEN8Security12MachPlusPlus4PortE
__ZN8ListenerD4Ev
__ZNK13Authorization8RuleImpl12evaluateUserERKNS_11AuthItemRefERKNS_4RuleERNS_11AuthItemSetEmdPKSt3setINS_10CredentialESt4lessISA_ESaISA_EERSE_R18AuthorizationToken
__ZNK13Authorization8RuleImpl26evaluateCredentialForRightERKNS_11AuthItemRefERKNS_4RuleERKNS_11AuthItemSetEdRKNS_10CredentialEb
__ZNK13Authorization14CredentialImpl12creationTimeEv
__ZN18AuthorizationToken17setCredentialInfoERKN13Authorization10CredentialE
__ZNK8Security14ExecutableTool13canonicalPathEv
__ZN13Authorization14CredentialImpl10invalidateEv
__ZNK13Authorization8RuleImpl21evaluateAuthorizationERKNS_11AuthItemRefERKNS_4RuleERNS_11AuthItemSetEmdPKSt3setINS_10CredentialESt4lessISA_ESaISA_EERSE_R18AuthorizationToken
__ZNK13Authorization8RuleImpl20evaluateSessionOwnerERKNS_11AuthItemRefERKNS_4RuleERKNS_11AuthItemSetEdRK18AuthorizationTokenRSs
__ZNK14DynamicSession13originatorUidEv
__ZN18AuthorizationToken12scrubInfoSetEv
__ZNK8Security14ExecutableTool6encodeEv
