_fde_single_encoding_compare
_read_encoded_value_with_base
__Z20MapAttrToNetInfoTypePKc
__ZN10CMessaging10GetMsgDataEv
__ZN14CSrvrMessaging21Get_tDataList_FromMsgEP8sComDataPP9tDataList10eValueType
_base_from_object
_frame_heapsort
_classify_object_over_fdes
__Znwm
__ZN14CSrvrMessaging17Get_Value_FromMsgEP8sComDataPm10eValueType
__ZN15CRequestHandler16HandlePluginCallEPP8sComData
__ZN14CLDAPv3Configs14ExtractAttrMapEPKcS1_PK14__CFDictionaryi
__ZdlPv
_read_uleb128
_execute_cfa_program
__ZN9CRefTable11GetTableRefEm
__ZN15CRequestHandler10GetMsgTypeEP8sComData
__ZN15CRequestHandler13HandleRequestEPP8sComData
__ZN14CLDAPv3Configs22ConfigWithNodeNameLockEPc
_size_of_encoded_value
__ZN9CRefTable23UpdateClientPIDRefCountElmbm
__ZN14CSrvrMessaging10GetThisObjEP8sComData10eValueTypePP7sObject
__ZN9CRefTable12GetThisTableEm
__ZN15CRequestHandler12PackageReplyEPvPP8sComData
__ZN13CSrvrEndPoint16GetClientMessageEv
__ZN9CListener12QueueMessageEv
__ZN13CSrvrEndPoint15SendClientReplyEPv
_search_object
__ZN11CDSRefTable11GetTableRefEm
__ZN15CRequestHandler16SetRequestResultEP8sComDatal
__ZN9CRefTable12GetReferenceEmPP9sRefEntry
__ZN10CMessaging38IsThreadUsingInternalDispatchBufferingEm
__ZN15CRequestHandler16HandleServerCallEPP8sComData
__ZN14CSrvrMessaging15Add_Value_ToMsgEP8sComDatam10eValueType
__ZN11CPlugInList8GetStateEPKcPm
__ZN11CDSRefTable12GetThisTableEm
__ZNSsC4EPKcRKSaIcE
__ZN10CMessaging15Add_Value_ToMsgEm10eValueType
__ZN15CRequestHandler15DoGetRecordListEP8sComDataPl
__ZN10CMessaging19Add_tDataList_ToMsgEP9tDataList10eValueType
__ZN13CLDAPv3Plugin18GetTheseAttributesEPcP14CAttributeListP7ldapmsgbP16sLDAPContextDataRlP9CDataBuff
__ZN13CSrvrEndPoint13AddNewMessageEP8sComDataP7sIPCMsg
__ZN14CLDAPv3Configs28CreateNormalizedAttributeMapEPK9__CFArrayPK14__CFDictionary
__ZN15CRequestHandler12DoFreeMemoryEPv
__ZN14CLDAPv3Configs12ConfigUnlockEP15sLDAPConfigData
__ZNSs4_Rep9_S_createEmRKSaIcE
__ZN14CSrvrMessagingC1Ev
__ZN14CSrvrMessagingC4Ev
__ZN14CSrvrMessagingD1Ev
__ZN14CSrvrMessagingD4Ev
__ZNSs12_S_constructIPKcEEPcT_S3_RKSaIcESt20forward_iterator_tag
__ZNSs4_Rep10_M_destroyERKSaIcE
__Znam
__ZN15CRequestHandler30DoAttributeValueSearchWithDataEP8sComDataPl
__ZN13CSrvrEndPoint13MakeNewMsgPtrEP7sIPCMsg
__ZN13CSrvrEndPoint19GetNextCompletedMsgEv
__ZN9CListener10ThreadMainEv
__ZN14CSrvrMessaging11GetEmptyObjEP8sComData10eValueTypePP7sObject
__ZN9CRefTable15VerifyReferenceEmmPP13CServerPluginlm
__ZN13CLDAPv3Plugin17MapAttrToLDAPTypeEPKcS1_Pcib
_add_fdes
_dsGetRecordList
__Z19MapRecToNetInfoTypePKc
__ZN14CSrvrMessaging21Get_tDataBuff_FromMsgEP8sComDataPP11tDataBuffer10eValueType
__ZN13CLDAPv3Plugin26MapAttrListToLDAPTypeArrayEPcP14CAttributeListS0_
_dsDoAttributeValueSearchWithData
_uw_frame_state_for
__ZN11CDSRefTable12GetReferenceEmPP11sFWRefEntry
__Z7CalcCRCPKc
__ZN15CRequestHandler11GetCallNameEl
__ZN15CRequestHandler15IsServerRequestEP8sComData
_fde_split
__ZN13CSearchPlugin16AddDataToOutBuffEP19sSearchContinueDataP5CBuffP18sSearchContextData
__ZN15CRequestHandler14GetRequestDataEP8sComDataPlPb
__ZN10CMessaging17SendInlineMessageEm
__ZN10CMessaging11GetEmptyObjEP8sComData10eValueTypePP7sObject
__ZN14CSrvrMessaging19Add_tDataBuff_ToMsgEPP8sComDataP11tDataBuffer10eValueType
__ZN13CLDAPv3Plugin25BuildLDAPQueryMultiFilterEPcPS0_16tDirPatternMatchS0_bPKcS0_bPK9__CFArray
__ZN13CSrvrEndPoint16AddDataToMessageEP7sIPCMsg
__ZN9CListener16ListenForMessageEv
__ZN10CMessaging17Get_Value_FromMsgEPm10eValueType
__ZN9CNodeList22AddNodePathToTDataBuffEP9tDataListP11tDataBuffer
__ZN9CRefTable9RemoveRefEmmlmb
__ZN15CRequestHandler13DoOpenDirNodeEP8sComDataPl
_extract_cie_info
___gxx_personality_v0
__ZN14CLDAPv3Configs13ExtractRecMapEPKcPK14__CFDictionaryiPbPPK9__CFArrayPi
__ZN14CNetInfoPlugin14ProcessRequestEPv
__ZN15CRequestHandler15IsPluginRequestEP8sComData
__ZN13CLDAPv3Plugin13GetRecordListEP14sGetRecordList
__ZN14CLDAPv3Configs13AttrMapsCountEPKcS1_PK14__CFDictionary
_get_cie_encoding
__ZN9CRefTable9GetNewRefEPmm9eRefTypesP13CServerPluginlm
__ZN10CMessaging4GrowEmm
__ZN13CSearchPlugin20AttributeValueSearchEP26sDoAttrValueSearchWithData
__Z22MapNetInfoAttrToDSTypePKc
__ZN15CRequestHandlerC1Ev
__ZN15CRequestHandlerC4Ev
__ZN9CRefTable13VerifyNodeRefEmPP13CServerPluginlm
__ZN13CLDAPv3Plugin16MapRecToLDAPTypeEPKcPciPbPPK9__CFArrayPi
__Unwind_Find_FDE
__Unwind_Find_registered_FDE
__ZN11CDSRefTable15VerifyReferenceEmml
__ZN10CMessaging4LockEv
__ZN14CSrvrMessaging17ClearMessageBlockEP8sComData
__ZN15CRequestHandler10LogAPICallEdPcl
__ZN15CRequestHandler12FindDirNodesEP8sComDataPlPc
__ZNSsC1EPKcRKSaIcE
__ZNSs12_Alloc_hiderC4EPcRKSaIcE
__ZN10CMessaging6UnlockEv
__ZN14CLDAPv3Configs29CreateNormalizedRecordAttrMapEPK9__CFArrayS2_
__ZN14CSrvrMessaging4GrowEPP8sComDatamm
__ZN13CSearchPlugin13GetRecordListEP14sGetRecordList
__Z15VerifyTNodeListP9tDataList10tDirStatusS1_
_dsGetDataLength
__ZN10CMessaging19Add_tDataBuff_ToMsgEP11tDataBuffer10eValueType
__ZN10CMessaging17ClearMessageBlockEv
__ZN9CRefTable12VerifyDirRefEmPP13CServerPluginlm
__ZN13CSearchPlugin14ProcessRequestEPv
__ZN9CNodeList15GetPluginHandleEPKcPP13CServerPlugin
__ZN13CSearchPlugin23CheckSearchPolicyChangeEP18sSearchContextDatamPv
__ZN13CSearchPlugin14GetDirNodeInfoEP15sGetDirNodeInfo
__ZN13CLDAPv3Plugin15GetTheseRecordsEPcPS0_S0_S0_16tDirPatternMatchP14CAttributeListP16sLDAPContextDataP17sLDAPContinueDatabP5CBuffRmbPK9__CFArrayi
__ZN10CMessaging21Get_tDataBuff_FromMsgEPP11tDataBuffer10eValueType
__ZN13CLDAPv3Plugin22DoAttributeValueSearchEP26sDoAttrValueSearchWithData
__Z19BuildRecordNamePathPKcS0_
__ZN10CMessaging10GetThisObjEP8sComData10eValueTypePP7sObject
__ZN13CServerPlugin13GetPluginNameEv
__ZN9CRefTable12LinkToParentEmmmlm
__ZN9CRefTable16UnlinkFromParentEm
__ZN13CLDAPv3Plugin13HandleRequestEPv
__ZN9CLDAPNode11LockSessionEP16sLDAPContextData
__ZN15CRequestHandler14DoCloseDirNodeEP8sComDataPl
__Unwind_RaiseException
__Z18ExtractRecordEntryP11tDataBuffermPmPP12tRecordEntry
__ZN9CRefTable12GetNextTableEP9sRefTable
__ZN14CSrvrMessaging14ClearDataBlockEP8sComData
__ZN13CSearchPlugin23FindSearchConfigWithKeyEm
__ZN15CRequestHandler22DebugAPIPluginResponseEPvPcl
_dsOpenDirNode
__Z10DSDoSearchPcS_P14CAttributeListP16sLDAPContextDataP17sLDAPContinueDataiR9CLDAPNodeS_RiiRP7ldapmsg
_read_uleb128
__Z21DSGetSearchLDAPResultR9CLDAPNodeP16sLDAPContextDataiRP7ldapmsgiRiS6_b
__ZN13CLDAPv3Plugin16FindTheseRecordsEPcPS0_S0_S0_16tDirPatternMatchP14CAttributeListP16sLDAPContextDataP17sLDAPContinueDatabP5CBuffRmbPK9__CFArrayi
_read_sleb128
__ZN11CDSRefTable9GetNewRefEPmm9eRefTypesl
__Z21ExtractAttributeEntryP11tDataBuffermmPmPP15tAttributeEntry
__ZN11CDSRefTable9GetOffsetEmmPml
__ZN11CDSRefTable9RemoveRefEmml
__ZN14CLDAPv3Configs18ExtractStdAttrNameEPcPK14__CFDictionaryRi
__ZN9CNodeList8GetNodesEPc16tDirPatternMatchP11tDataBuffer
__ZN9CNodeList13CompareCStringEPKcS1_
__ZN13CSearchPlugin13HandleRequestEPv
__ZN13CLDAPv3Plugin14ProcessRequestEPv
__Z15VerifyTDataBuffP11tDataBuffer10tDirStatusS1_
__Z13DoesThisMatchPKcS0_16tDirPatternMatch
__ZN9CLDAPNode8SafeOpenEPcPP15sLDAPNodeStruct
__ZN13CLDAPv3Plugin11OpenDirNodeEP12sOpenDirNode
__ZN9CLDAPNode13UnLockSessionEP16sLDAPContextDatab
__Z17IsValidRecordNamePKcS0_PvR5ni_id
__ZN11CDSRefTable12GetNextTableEP11sRefFWTable
__ZN11CDSRefTable9SetOffsetEmmml
__ZN11CDSRefTable9SetBufTagEmmml
__ZN11CDSRefTable9GetBufTagEmmPml
__Z21ExtractAttributeValueP11tDataBuffermmPP20tAttributeValueEntry
_uw_update_context_1
__Z21base_of_encoded_valuehP15_Unwind_Context
__Z28read_encoded_value_with_basehjPKhPj
__Z17ReadHashStateFilePKcP10sHashState
__Z18WriteHashStateFilePKcP10sHashState
_dsCloseDirNode
__ZN9CRefTable17DoCleanClientRefsEmm
__ZN9CDSRefMap20GetMessageTableIndexEmml
__ZN9CDSRefMap9GetRefNumEmml
__ZN10CMessaging15GetReplyMessageEv
__Z31CheckToCleanUpLostTCPConnectionP10tDirStatusmm
__ZN11CPlugInList8SetStateEPKcm
__ZN14CNetInfoPlugin11WaitForInitEv
__ZN13CSearchPlugin19CleanSearchListDataEP11sSearchList
__ZN13CSearchPlugin11WaitForInitEv
__Z21MapNetInfoRecToDSTypePKc
__ZN15CRequestHandler19GetUIDsForProcessIDEiPjS0_
__ZN9CRefTable10NewNodeRefEPmP13CServerPluginmlm
__ZN13CSearchPlugin11OpenDirNodeEP12sOpenDirNode
__ZN13CSearchPlugin24DupSearchListWithNewRefsEP11sSearchList
__ZN13CSearchPlugin14GetNextNodeRefEmPmP18sSearchContextData
__ZN15CRequestHandler16DoGetDirNodeInfoEP8sComDataPl
__ZN15CRequestHandler19DoGetAttributeValueEP8sComDataPl
__ZN9CNodeList9DoGetNodeEPNS_9sTreeNodeEPc16tDirPatternMatchP11tDataBufferPS1_
_dsAllocStringsFromList
__Z12DSSearchLDAPR9CLDAPNodeP16sLDAPContextDataPciS3_PS3_RiS5_i
__ZN13CLDAPv3Plugin20BuildLDAPQueryFilterEPcPKc16tDirPatternMatchS0_bS2_S0_bPK9__CFArray
__ZN13CLDAPv3Plugin19ContinueDeallocProcEPv
__ZN9CRefTable13RemoveNodeRefEmlm
___cxa_allocate_exception
___cxa_get_globals
_uw_init_context_1
_read_sleb128
__ZN13CSearchPlugin19ContinueDeallocProcEPv
__Z11IsStdBufferP11tDataBuffer
_dsGetAttributeEntry
__Z13IsFWReferencem
_dsGetAttributeValue
_dsCloseAttributeValueList
__ZN11CDSRefTable16UnlinkFromParentEm
_size_of_encoded_value
_base_of_encoded_value
_read_encoded_value_with_base
__Unwind_GetLanguageSpecificData
_uw_update_context
__Z17parse_lsda_headerP15_Unwind_ContextPKhP16lsda_header_info
__Z12read_uleb128PKhPj
__Z15get_ttype_entryP16lsda_header_infoj
__Z16get_adjusted_ptrPKSt9type_infoS1_PPv
__Unwind_RaiseException_Phase2
_uw_install_context_1
__ZN15CRequestHandler26DoCheckUserNameAndPasswordEPKcS1_16tDirPatternMatchPjPPc
_dsDoDirNodeAuthOnRecordType
__ZN11CPlugInList4NextEPm
__ZN11CPlugInList13GetPlugInInfoEm
__Z14DoPeriodicTaskP16__CFRunLoopTimerPv
__ZN13CLDAPv3Plugin13GetRecordNameEPcP7ldapmsgP16sLDAPContextDataRl
__ZN13CLDAPv3Plugin10DoAnyMatchEPKcPPc16tDirPatternMatch
__Z9_DebugLogPKcPc
__Z29dsAllocListNodeFromStringPrivPKc
start
__start
__dyld_init_check
dyld_stub_binding_helper
___darwin_gcc3_preregister_frame_info
__call_mod_init_funcs
__dyld_func_lookup
__ZNSt24__default_alloc_templateILb1ELi0EE8allocateEm
__ZNSt24__default_alloc_templateILb1ELi0EE5_LockC4Ev
__ZNSt24__default_alloc_templateILb1ELi0EE9_S_refillEm
__ZNSt24__default_alloc_templateILb1ELi0EE14_S_chunk_allocEmRi
__ZNSt24__default_alloc_templateILb1ELi0EE5_LockD4Ev
__ZN9CLDAPNodeC1Ev
__ZN9CLDAPNodeC4Ev
__call_objcInit
_crt_basename
_crt_strbeginswith
_main
__ZN13ServerControlC1Ev
__ZN13ServerControlC4Ev
__ZN13ServerControl13StartUpServerEv
__ZN9CNodeListC1Ev
__ZN9CNodeListC4Ev
__ZN9CRefTableC1EPFlmmP13CServerPluginE
__ZN9CRefTableC4EPFlmmP13CServerPluginE
__ZN13CPluginConfigC1Ev
__ZN13CPluginConfigC4Ev
__ZN13CPluginConfig10InitializeEv
__ZN11CPlugInListC1Ev
__ZN11CPlugInListC4Ev
__ZN13ServerControl13StartListenerEv
__ZN9CListenerC1Ev
__ZN9CListenerC4Ev
__ZN9CListener11StartThreadEv
__ZN9CListener14CreateEndpointEv
__ZN13CSrvrEndPointC1EPc
__ZN13CSrvrEndPointC4EPc
__ZN13CSrvrEndPoint10InitializeEv
__ZN14CPluginHandlerC1Ev
__ZN14CPluginHandlerC4Ev
__ZN14CPluginHandler10ThreadMainEv
__ZN14CPluginHandler11LoadPluginsEv
__ZN13CServerPlugin19ProcessStaticPluginEPKcS1_
__ZN16CConfigurePluginC1EmPKc
__ZN16CConfigurePluginC4EmPKc
__ZN13CServerPluginC2EmPKc
__ZN13CServerPluginC4EmPKc
__ZN11CPlugInList9AddPlugInEPKcS1_S1_S1_mP13CServerPluginP10__CFBundlePK8__CFUUIDm
__ZN13CPluginConfig14GetPluginStateEPKc
__ZN16CConfigurePlugin8ValidateEPKcm
__ZN14CNetInfoPluginC1EmPKc
__ZN14CNetInfoPluginC4EmPKc
__ZN14CNetInfoPlugin8ValidateEPKcm
__ZN13CLDAPv3PluginC1EmPKc
__ZN13CLDAPv3PluginC4EmPKc
__ZN13CLDAPv3Plugin8ValidateEPKcm
__ZN13CSearchPluginC1EmPKc
__ZN13CSearchPluginC4EmPKc
_dsOpenDirService
_dsIsDirServiceRunning
__ZN10CMessagingC1Eh
__ZN10CMessagingC4Eh
__ZN10CMessaging12OpenCommPortEv
__ZN11CDSRefTableC1EPFlmP11sFWRefEntryE
__ZN11CDSRefTableC4EPFlmP11sFWRefEntryE
__ZN9CDSRefMapC1EPFlmP14sFWRefMapEntryE
__ZN9CDSRefMapC4EPFlmP14sFWRefMapEntryE
__ZN9CRefTable9NewDirRefEPmlm
__ZN13ServerControl24RegisterForNetworkChangeEv
__ZN13ServerControl17SetUpPeriodicTaskEv
__ZN13ServerControl47HandleMultipleNetworkTransitionsForNIAutoSwitchEv
__ZN9CNodeList16WaitForLocalNodeEv
__ZN13CServerPlugin10ProcessURLEPK7__CFURL
__ZN13ServerControl18NotifyDirNodeAddedEPKc
__ZN13CServerPluginC4EP10__CFBundlePK8__CFUUIDmmPKc
__ZN13CServerPlugin8ValidateEPKcm
__ZN9CNodeList7AddNodeEPKcP9tDataList12eDirNodeTypeP13CServerPluginm
__ZN13CServerPlugin20InternalRegisterNodeEmP9tDataList12eDirNodeTypeb
__ZN9CNodeList9IsPresentEPKc12eDirNodeType
__ZN9CNodeList13AddNodeToTreeEPPNS_9sTreeNodeEPKcP9tDataList12eDirNodeTypeP13CServerPluginm
__ZN11CPlugInList9IsPresentEPKc
__ZN9CLauncher10ThreadMainEv
__ZN16CConfigurePlugin10InitializeEv
__ZN13CServerPlugin13_RegisterNodeEmP9tDataList12eDirNodeType
__ZN11CPlugInList12GetPlugInPtrEmb
__ZN11CPlugInList11InitPlugInsEv
__ZN9CLauncherC1EP13CServerPlugin
__ZN9CLauncherC4EP13CServerPlugin
__ZN9CLauncher11StartThreadEv
__ZN14CNetInfoPlugin10InitializeEv
__Z7do_openPcS_PPvbiS_S_
__Z19ni_parse_server_tagPcP11sockaddr_inPS_
__ZNSsC1ERKSs
__ZNSsC4ERKSs
__ZNKSs13get_allocatorEv
__ZN13CLDAPv3Plugin10InitializeEv
__ZN14CLDAPv3ConfigsC1Ev
__ZN14CLDAPv3ConfigsC4Ev
__ZN14CLDAPv3Configs4InitEv
__ZN14CLDAPv3Configs13XMLConfigLockEv
__ZN14CLDAPv3Configs13ReadXMLConfigEv
__ZN14CLDAPv3Configs18CreatePrefFilenameEv
__ZN13CSearchPlugin10InitializeEv
_dsVerifyDirRefNum
__ZN8CConfigsC1Ev
__ZN8CConfigsC4Ev
__ZN8CConfigs4InitEPKcRm
__ZN8CConfigs18ConfigSearchPolicyEv
__ZN13CServerPlugin10InitializeEv
__ZN9CNodeList16AddConfigureNodeEPKcP9tDataList12eDirNodeTypeP13CServerPluginm
__ZN16CConfigurePlugin14SetPluginStateEm
__ZN16CConfigurePlugin14ProcessRequestEPv
__ZN16CConfigurePlugin11WaitForInitEv
__ZN16CConfigurePlugin13HandleRequestEPv
__ZN9CLauncherD0Ev
__ZN9CLauncherD4Ev
__ZN9CNodeList12AddLocalNodeEPKcP9tDataList12eDirNodeTypeP13CServerPluginm
__ZN13CNodeRegisterC1EmP11CNiNodeListbP14CNetInfoPlugin
__ZN13CNodeRegisterC4EmP11CNiNodeListbP14CNetInfoPlugin
__ZN13CNodeRegister11StartThreadEv
__ZN14CNetInfoPlugin14WakeUpRequestsEv
__ZN14CNetInfoPlugin14SetPluginStateEm
__ZN14CNetInfoPlugin8SafeOpenEPKclP5ni_idPPvPPc
__ZN13CServerPlugin14ProcessRequestEPv
__ZN13CServerPlugin14SetPluginStateEm
__ZN13CNodeRegister29RegisterLocalNetInfoHierarchyEb
_my_ni_pwdomain
__ni_pwdomain
__ni_connect_parent
_my_rparent
__ZN14CNetInfoPlugin9SafeCloseEPKc
__ZN13CNodeRegister10ThreadMainEv
__ZN14CNetInfoPlugin20NodeRegisterCompleteEP13CNodeRegister
__ZN13CNodeRegisterD0Ev
__ZN13CNodeRegisterD4Ev
__ZN8CConfigs10GetVersionEPK14__CFDictionary
__ZN8CConfigs15GetSearchPolicyEPK14__CFDictionary
__ZN8CConfigs9GetCustomEv
__ZN8CConfigs10ConfigListEv
__ZN8CConfigs12GetListArrayEPK14__CFDictionary
__ZN8CConfigs12MakeListDataEPc
__ZN8CConfigs13CleanListDataEP11sSearchList
__ZN13CSearchPlugin25AddLocalNodesAsFirstPathsEPP11sSearchList
__ZN13CSearchPlugin13GetLocalPathsEPPc
__ZN13CSearchPlugin20MakeSearchConfigDataEP11sSearchListmP8CConfigsPcS4_12eDirNodeTypem
__ZN13CSearchPlugin21CleanSearchConfigDataEP13sSearchConfig
__ZN13CSearchPlugin21AddSearchConfigToListEP13sSearchConfig
__ZN13CSearchPlugin28SetSearchPolicyIndicatorFileEmm
__ZN13CSearchPlugin31RemoveSearchPolicyIndicatorFileEv
__ZN13CSearchPlugin14WakeUpRequestsEv
__ZN14CLDAPv3Configs9VerifyXMLEv
__ZN13ServerControl23NodeSearchPolicyChangedEv
__ZN13ServerControl28LaunchKerberosAutoConfigToolEv
__ZN13CSearchPlugin14SetPluginStateEm
__ZN9CLDAPNode13NetTransitionEv
__ZN14CLDAPv3Configs32SetAllConfigBuildReplicaFlagTrueEv
__ZN9CNodeList17AddDHCPLDAPv3NodeEPKcP9tDataList12eDirNodeTypeP13CServerPluginm
__ZN13CLDAPv3Plugin14WakeUpRequestsEv
__ZNSt24__default_alloc_templateILb1ELi0EE10deallocateEPvm
__ZN13CLDAPv3Plugin14SetPluginStateEm
__ZN9CRefTable12RemoveDirRefEmlm
__ZN9CNodeList12GetPluginPtrEPNS_9sTreeNodeE
__ZN13CSearchPlugin15MakeContextDataEv
__ZN10CMessaging16GetServerVersionEv
__ZN9CLDAPNode15ResolveHostNameEPK10__CFStringi
__ZN9CLDAPNode24BuildReplicaInfoLinkListEPP12sReplicaInfoPK9__CFArrayS5_i
__ZN9CLDAPNode18InitLDAPConnectionEP15sLDAPNodeStructP15sLDAPConfigDatab
__ZN9CRefTable14NewAttrListRefEPmP13CServerPluginmlm
__ZN15CRequestHandler19DoGetAttributeEntryEP8sComDataPl
__ZN9CRefTable17VerifyAttrListRefEmPP13CServerPluginlm
__ZN9CRefTable15NewAttrValueRefEPmP13CServerPluginmlm
__ZN9CRefTable18VerifyAttrValueRefEmPP13CServerPluginlm
__ZN13CSearchPlugin17GetAttributeValueEP18sGetAttributeValue
__ZN14CSrvrMessaging25Add_tAttrValueEntry_ToMsgEPP8sComDataP20tAttributeValueEntry
__ZN15CRequestHandler20DoCloseAttributeListEP8sComDataPl
__ZN9CRefTable17RemoveAttrListRefEmlm
__ZN13CSearchPlugin18CloseAttributeListEP19sCloseAttributeList
__ZN13CSearchPlugin18ContextDeallocProcEPv
__ZN13CSearchPlugin16CleanContextDataEP18sSearchContextData
__ZN15CRequestHandler25DoCloseAttributeValueListEP8sComDataPl
__ZN9CRefTable18RemoveAttrValueRefEmlm
__ZN13CSearchPlugin23CloseAttributeValueListEP24sCloseAttributeValueList
__ZN9CLDAPNode16CheckSASLMethodsEP15sLDAPNodeStruct
__ZN9CLDAPNode8BindProcEP15sLDAPNodeStructbbb
__ZN9CLDAPNode32RetrieveServerMappingsIfRequiredEP15sLDAPNodeStruct
__ZN14CLDAPv3Configs34UpdateLDAPConfigWithServerMappingsEPcS0_ibbbbP4ldap
__ZN14CLDAPv3Configs22RetrieveServerMappingsEPcS0_ibbP4ldap
__ZN14CLDAPv3Configs29VerifyAndUpdateServerLocationEPcibbbPK8__CFData
__ZN14CLDAPv3Configs12BuildLDAPMapEP15sLDAPConfigDataPK14__CFDictionaryb
__ZN14CLDAPv3Configs32UpdateConfigWithSecuritySettingsEPcP15sLDAPConfigDataP4ldap
__ZN14CLDAPv3Configs14WriteXMLConfigEv
__ZN14CLDAPv3Configs15XMLConfigUnlockEv
__ZN14CLDAPv3Configs12SetXMLConfigEPK8__CFData
__ZN9CLDAPNode23RetrieveDefinedReplicasEP15sLDAPNodeStructRP9__CFArrayS4_iPP12sReplicaInfo
__ZN9CLDAPNode19EstablishNewConnectionEP15sLDAPNodeStructP12sReplicaInfoiib
__Z11SetSockListPiib
__ZN9CLDAPNode16ReachableAddressEP8addrinfo
__ZN9CLDAPNode14IsLocalAddressEP8addrinfo
__Z17checkReachabilityP8sockaddr
__ZN9CLDAPNode18ConvertToIPAddressEP8addrinfo
__Z27doSASLBindAttemptIfPossibleP4ldapP15sLDAPConfigDataPcS3_S3_
__ZN9CLDAPNode30GetReplicaListFromConfigRecordEP4ldapiP15sLDAPNodeStructP9__CFArrayS5_
__ZN9CLDAPNode27GetReplicaListFromAltServerEP4ldapiP9__CFArray
__ZN9CLDAPNode21GetReplicaListFromDNSEP15sLDAPNodeStructP9__CFArray
__ZN14CLDAPv3Configs17UpdateReplicaListEPcP9__CFArrayS2_
__ZN13CLDAPv3Plugin11WaitForInitEv
__ZN13CLDAPv3Plugin13GetAllRecordsEPcS0_P14CAttributeListP16sLDAPContextDataP17sLDAPContinueDatabP5CBuffRmbPK9__CFArrayi
__Z16MapNetInfoErrorsl
___cxa_throw
__Z21get_globals_init_oncev
__Z16get_globals_initv
save_world
_examine_objects
_init_object
__ZN16sLDAPContextDataC1Ev
__ZN16sLDAPContextDataC4Ev
__ZN15CRequestHandler12DoOpenRecordEP8sComDataPl
__ZN9CRefTable12NewRecordRefEPmP13CServerPluginmlm
__ZN15CRequestHandler21DoReleaseContinueDataEP8sComDataPl
_dsGetRecordEntry
__ZN11CDSRefTable14NewAttrListRefEPmml
_dsGetRecordTypeFromEntry
_dsGetRecordNameFromEntry
__ZN11CDSRefTable15NewAttrValueRefEPmml
_dsDeallocAttributeValueEntry
__ZN11CDSRefTable18RemoveAttrValueRefEml
_dsDeallocAttributeEntry
__ZN13CSearchPlugin17GetAttributeEntryEP18sGetAttributeEntry
__ZN14CSrvrMessaging20Add_tAttrEntry_ToMsgEPP8sComDataP15tAttributeEntry
__Unwind_GetRegionStart
__Unwind_GetIP
__Z12read_sleb128PKhPi
__Z21size_of_encoded_valueh
__ZNKSt9type_info14__is_pointer_pEv
__ZNKSt9type_info10__do_catchEPKS_PPvj
__ZNKSt9type_infoeqERKS_
__Unwind_SetGR
__Unwind_SetIP
eh_rest_world_r10
rest_world_eh_r7r8
___cxa_begin_catch
___cxa_end_catch
___cxa_get_globals_fast
__Unwind_DeleteException
__Z23__gxx_exception_cleanup19_Unwind_Reason_CodeP17_Unwind_Exception
___cxa_free_exception
_dsCloseAttributeList
__ZN11CDSRefTable17RemoveAttrListRefEml
_dsDeallocRecordEntry
__ZN15CRequestHandler20FailedCallRefCleanUpEPvlmm
__ZN9CRefTable15RemoveRecordRefEmlm
__ZN15CRequestHandler14DoAddAttributeEP8sComDataPl
__ZN9CRefTable15VerifyRecordRefEmPP13CServerPluginlm
__ZN15CRequestHandler13DoCloseRecordEP8sComDataPl
__ZN15CRequestHandler32DoGetRecordAttributeValueByIndexEP8sComDataPl
__ZN15CRequestHandler16DoAuthenticationEP8sComDataPl
__Z26GetHashSecurityLevelConfigPvPj
__Z25GetUserNameFromAuthBufferP11tDataBuffermPPc
_dsParseAuthAuthority
__Z14Get2FromBufferP11tDataBufferPP9tDataListPPcS5_Pj
__Z18NIGetStateFilePathPKcPPc
__Z20GenerateShadowHashesPKcliPKhPhPm
__Z13NIHashesEqualPKhS0_
__Z11UserIsAdminPKcPv
_digest_dispose
_dsDataNodeAllocateString
_dsDataBufferAllocate
_dsDataNodeSetLength
_dsDoDirNodeAuth
_dsDataListDeallocate
_dsDataBufferDeAllocate
_dsDataNodeDeAllocate
__ZN13CSearchPlugin12CloseDirNodeEP13sCloseDirNode
__ZN9CDSRefMap13RemoveNodeRefEml
__ZN9CDSRefMap9RemoveRefEmml
__ZN9CDSRefMap15VerifyReferenceEmml
__ZN13CLDAPv3Plugin12CloseDirNodeEP13sCloseDirNode
__ZN13CLDAPv3Plugin18ContextDeallocProcEPv
__ZN16sLDAPContextDataD1Ev
__ZN16sLDAPContextDataD4Ev
__ZN15CRequestHandler11GetNodeListEP8sComDataPl
__ZN9CNodeList17BuildNodeListBuffEP15sGetDirNodeList
__ZN9CNodeList19DoBuildNodeListBuffEPNS_9sTreeNodeEP11tDataBufferPm
__ZN13CLDAPv3Plugin18GetNextStdAttrTypeEPcS0_Ri
__ZN9CNodeList12GetNodeCountEv
__ZN9CNodeList18GetNodeChangeTokenEv
__ZN11CPlugInList12GetPlugInPtrEPKcb
__ZN9CRefTable16SetNodePluginPtrEmP13CServerPlugin
__ZN9CRefTable12SetPluginPtrEmmP13CServerPlugin
__ZN11CPlugInList10LoadPluginEPNS_10sTableDataE
__ZN13CServerPluginC1EP10__CFBundlePK8__CFUUIDmmPKc
__Z27DoNIAutoSwitchNetworkChangeP16__CFRunLoopTimerPv
__ZN13ServerControl17NIAutoSwitchCheckEv
__ZN9CNodeList31WaitForAuthenticationSearchNodeEv
__ZN13CSearchPlugin20CheckForNIAutoSwitchEv
__ZN13CSearchPlugin28FindNIAutoSwitchToLDAPRecordEv
__ZN13CSrvrEndPointD0Ev
__ZN13CSrvrEndPointD4Ev
__Z16get_globals_dtorPv
__ZN13ServerControl15GetHandlerCountEm
__ZN9CRefTable15CleanClientRefsEmm
__ZN9CRefTable14RemoveChildrenEP9sListInfolm
__ZdaPv
__ZN16CConfigurePlugin12PeriodicTaskEv
__ZN14CNetInfoPlugin12PeriodicTaskEv
__ZN13CLDAPv3Plugin12PeriodicTaskEv
__ZN9CLDAPNode10CheckIdlesEv
__ZN13CSearchPlugin12PeriodicTaskEv
__ZN13CServerPlugin12PeriodicTaskEv
__ZN13CLDAPv3Plugin27DoAnyOfTheseAttributesMatchEP16sLDAPContextDataPPc16tDirPatternMatchP7ldapmsg
__ZN13CLDAPv3Plugin10OpenRecordEP11sOpenRecord
__ZN13CLDAPv3Plugin22MapAttrToLDAPTypeArrayEPKcS1_Pc
__ZN13CLDAPv3Plugin22GetRecAttrValueByIndexEP31sGetRecordAttributeValueByIndex
__ZN13CLDAPv3Plugin20GetRecRefLDAPMessageEP16sLDAPContextDataRiPPcPP7ldapmsg
__Z13DSDoRetrievalPcPS_P16sLDAPContextDataiR9CLDAPNodeS_RiiRP7ldapmsgRbS5_
__ZN13CLDAPv3Plugin16DoAuthenticationEP14sDoDirNodeAuth
__ZN13CLDAPv3Plugin28DoAuthenticationOnRecordTypeEP26sDoDirNodeAuthOnRecordTypePKc
__ZN13CLDAPv3Plugin16GetAuthAuthorityEP16sLDAPContextDataPKcR9CLDAPNodePmPPPcS3_
__ZN13CLDAPv3Plugin15LookupAttributeEP16sLDAPContextDataPKcS3_S3_R9CLDAPNodePmPPPc
__ZN13CLDAPv3Plugin20DoPasswordServerAuthEmP11tDataBufferP16sLDAPContextDataPP17sLDAPContinueDataS1_S1_bPcS7_R9CLDAPNodePKc
__Z13PWOpenDirNodemPcPm
_dsBuildListFromStrings
_dsDataListAllocate
_dsBuildListFromStringsAllocV
__ZN13CLDAPv3Plugin18IsWriteAuthRequestEm
__ZN13CLDAPv3Plugin18ParseAuthAuthorityEPKcPPcS3_S3_
__ZNSs6assignEPKcm
__ZNKSs9_M_ibeginEv
__ZNKSs7_M_iendEv
__ZNSs15_M_replace_safeIPKcEERSsN9__gnu_cxx17__normal_iteratorIPcSsEES6_T_S7_
__ZNSs9_M_mutateEmmm
__ZN13CLDAPv3Plugin29GetLDAPv3AuthAuthorityHandlerEPKc
__Z23RepackBufferForPWServerP11tDataBufferPKcmPS0_
_dsCloseDirService
__ZN9CDSRefMap12RemoveDirRefEml
