_SecCertificateCreateWithData
__ZN8Security12KeychainCore11CertificatenwEm
__ZN8Security12KeychainCore6gTypesEv
__ZN8Security11ModuleNexusINS_12KeychainCore10SecCFTypesEEclEv
__ZN8Security17ModuleNexusCommon6createEPFPvvE
__ZN8Security5MutexC1Ev
__ZN8Security5MutexC2Ev
__ZN8Security5Mutex4lockEv
__ZN8Security11ModuleNexusINS_12KeychainCore10SecCFTypesEE4makeEv
__ZN8Security12KeychainCore10SecCFTypesC2Ev
__ZN8Security7CFClassC1EPKc
__ZN8Security5Mutex6unlockEv
__ZN8Security5MutexD1Ev
__ZN8Security5MutexD2Ev
__ZN8Security11SecCFObject8allocateEmRKNS_7CFClassE
__ZN8Security12KeychainCore11CertificateC1ERK9cssm_datajj
__ZN8Security12KeychainCore11CertificateC2ERK9cssm_datajj
__ZN8Security12KeychainCore8ItemImplC2EjP24SecKeychainAttributeListjPKv
__ZN8Security11SecCFObjectC2Ev
__ZN8Security10CssmClient12DbAttributesC1Ev
__ZN8Security10CssmClient12DbAttributesC2Ev
__ZN8Security9Allocator8standardEj
__ZN8Security11ModuleNexusI17DefaultAllocatorsEclEv
__ZN16DefaultAllocator6mallocEm
__ZN8Security14SecPointerBaseC2EPNS_11SecCFObjectE
__ZN8Security5MutexC1ENS0_4TypeE
__ZN8Security5MutexC2ENS0_4TypeE
__ZN8Security11ModuleNexusI15MutexAttributesEclEv
__ZN8Security11ModuleNexusI15MutexAttributesE4makeEv
__ZN8Security17CssmDataContainerC2IvEEPKT_mRNS_9AllocatorE
__ZN8Security10RefPointerINS_17CssmDataContainerEE10setPointerEPS1_
__ZNK8Security8RefCount3refEv
__ZN8Security10RefPointerINS_17CssmDataContainerEE7releaseEv
__ZN8Security12KeychainCore6Schema13recordTypeForEj
__ZN8Security10CssmClient2CLC2ERKNS_4GuidE
__ZN8Security10CssmClient6CLImplC1ERKNS_4GuidE
__ZN8Security10CssmClient14AttachmentImplC2ERKNS_4GuidEj
__ZN8Security10CssmClient8CssmImpl8standardEv
__ZN8Security11ModuleNexusINS_10CssmClient8CssmImpl12StandardCssmEEclEv
__ZN8Security11ModuleNexusINS_10CssmClient8CssmImpl12StandardCssmEE4makeEv
__ZN8Security10CssmClient8CssmImpl12StandardCssm3getEv
__ZN8Security10CssmClient8CssmImplC1Eb
__ZNK8Security10CssmClient6Object4implINS0_8CssmImplEEERT_v
__ZN8Security10CssmClient8CssmImpl10autoModuleERKNS_4GuidE
__ZNSt8_Rb_treeIN8Security4GuidESt4pairIKS1_NS0_10CssmClient6ModuleEESt10_Select1stIS6_ESt4lessIS1_ESaIS6_EE4findERS3_
__ZN8Security10CssmClient6ModuleC2ERKNS_4GuidERKNS0_4CssmE
__ZN8Security10CssmClient10ModuleImplC1ERKNS_4GuidERKNS0_4CssmE
__ZN8Security10CssmClient10ObjectImplC2ERKNS0_6ObjectE
__ZN8Security10RefPointerINS_10CssmClient10ObjectImplEE7releaseEv
__ZNK8Security8RefCount5unrefEv
__ZNSt8_Rb_treeIN8Security4GuidESt4pairIKS1_NS0_10CssmClient6ModuleEESt10_Select1stIS6_ESt4lessIS1_ESaIS6_EE16_M_insert_uniqueE
__ZNSt8_Rb_treeIN8Security4GuidESt4pairIKS1_NS0_10CssmClient6ModuleEESt10_Select1stIS6_ESt4lessIS1_ESaIS6_EE9_M_insertEPSt18_Rb
__ZNSt8_Rb_treeIN8Security4GuidESt4pairIKS1_NS0_10CssmClient6ModuleEESt10_Select1stIS6_ESt4lessIS1_ESaIS6_EE14_M_create_nodeERK
__ZN9__gnu_cxx13new_allocatorISt4pairIKN8Security4GuidENS2_10CssmClient6ModuleEEE9constructEPS7_RKS7_
__ZNSt4pairIKN8Security4GuidENS0_10CssmClient6ModuleEEC2ERKS5_
__ZN8Security11SecCFObject6handleEb
__ZN8Security7CFClass15refCountForTypeElPKv
__ZN8Security11SecCFObject8optionalEPKv
__ZN8Security12KeychainCore8ItemImpl17getMutexForObjectEv
__ZN8Security7CFClass13cleanupObjectElPKvRb
__ZN8Security11SecCFObject17updateRetainCountElPj
__ZN8Security14SecPointerBaseD2Ev
__ZL15CheckForReleasePN8Security11SecCFObjectE
_SecCertificateGetCLHandle
__ZN8Security12KeychainCore11Certificate8requiredEP23OpaqueSecCertificateRef
__ZN8Security11SecCFObject8requiredEPKvi
__ZN8Security12KeychainCore11Certificate8clHandleEv
__ZNK8Security10CssmClient6Object4implINS0_6CLImplEEERT_v
__ZN8Security10CssmClient14AttachmentImpl8activateEv
__ZNK8Security10CssmClient6Object4implINS0_10ModuleImplEEERT_v
__ZN8Security10CssmClient10ModuleImpl8activateEv
__ZN8Security10CssmClient8CssmImpl8activateEv
_CSSM_Init
__ZN8Security11ModuleNexusI11CssmManagerEclEv
__ZN11CssmManager10initializeERK12cssm_versionjRKN8Security4GuidEjRj
__ZN11CssmManager12checkVersionERK12cssm_version
_CSSM_ModuleLoad
__ZN11CssmManager10loadModuleERKN8Security4GuidEjRKNS0_14ModuleCallbackE
__ZNSt8_Rb_treeIN8Security4GuidESt4pairIKS1_P6ModuleESt10_Select1stIS6_ESt4lessIS1_ESaIS6_EE4findERS3_
__ZN12MdsComponentC1ERKN8Security4GuidE
__ZN12MdsComponentC2ERKN8Security4GuidE
__ZN8Security11ModuleNexusINS_9MDSClient9DirectoryEEclEv
__ZN8Security10CssmClient9TableBaseC2ERNS0_8DLAccessEjb
__ZN8Security10CssmClient9AttributeC2EPKc
__ZN8Security10CssmClient10ComparisonC1ERKNS0_9AttributeEjRK9cssm_guid
__ZN8Security10CssmClient10ComparisonC2ERKNS0_9AttributeEjRK9cssm_guid
__ZNK8Security4Guid8toStringEv
__ZNK8Security4Guid8toStringEPc
__ZN8Security12CssmAutoDataC2INS_10StringDataEEERNS_9AllocatorERKT_
__ZN8Security13CssmOwnedData4copyIvEEvPKT_m
__ZN8Security12CssmAutoData5resetEv
__ZN16DefaultAllocator4freeEPv
__ZN8Security11CssmAutoPtrIvED1Ev
__ZN8Security10CssmClient5QueryC2ENS0_10ComparisonE
__ZNSt6vectorIN8Security10CssmClient10ComparisonESaIS2_EE9push_backERKS2_
__ZNSt6vectorIN8Security10CssmClient10ComparisonESaIS2_EE13_M_insert_auxEN9__gnu_cxx17__normal_iteratorIPS2_S4_EERKS2_
__ZNSt12_Vector_baseIN8Security10CssmClient10ComparisonESaIS2_EE11_M_allocateEm
__ZSt24__uninitialized_copy_auxIPN8Security10CssmClient10ComparisonES3_ET0_T_S5_S4_St12__false_type
__ZN9__gnu_cxx13new_allocatorIN8Security10CssmClient10ComparisonEE9constructEPS3_RKS3_
__ZN8Security10CssmClient10ComparisonC1ERKS1_
__ZN8Security10CssmClient10ComparisonC2ERKS1_
__ZNK8Security13CssmOwnedData3getEv
__ZN8Security10CssmClient5TableINS_9MDSClient6CommonEE5fetchERKNS0_5QueryEi
__ZN8Security10CssmClient5TableINS_9MDSClient6CommonEE4findERKNS0_5QueryE
__ZNK8Security10CssmClient5Query9cssmQueryEv
__ZN8Security19CssmDbAttributeInfoC1EPKcj
__ZNSt6vectorIN8Security22CssmSelectionPredicateESaIS1_EE9push_backERKS1_
__ZNSt6vectorIN8Security22CssmSelectionPredicateESaIS1_EE13_M_insert_auxEN9__gnu_cxx17__normal_iteratorIPS1_S3_EERKS1_
__ZNSt12_Vector_baseIN8Security22CssmSelectionPredicateESaIS1_EE11_M_allocateEm
__ZN8Security10CssmClient5TableINS_9MDSClient6CommonEE10startQueryERKNS_9CssmQueryEb
__ZN8Security10CssmClient6RecordC2EPKPKc
__ZN8Security29CssmAutoDbRecordAttributeDataC2EjRNS_9AllocatorES2_
__ZN8Security10CssmClient6Record13addAttributesEPKPKc
__ZN8Security29CssmAutoDbRecordAttributeData3addERK22cssm_db_attribute_info
__ZN8Security29CssmAutoDbRecordAttributeData21getAttributeReferenceERK22cssm_db_attribute_info
__ZN8Security29CssmAutoDbRecordAttributeData13findAttributeERK22cssm_db_attribute_info
__ZN8Security12ArrayBuilderINS_19CssmDbAttributeDataEE3addEv
__ZN8Security12ArrayBuilderINS_19CssmDbAttributeDataEE7reserveEj
__ZN16DefaultAllocator7reallocEPvm
__ZN8Security9MDSClient9Directory9allocatorEv
__ZN8Security9MDSClient9Directory10dlGetFirstERK10cssm_queryR29cssm_db_record_attribute_dataP9cssm_dataRP21cssm_db_unique_recor
__ZNK8Security9MDSClient9Directory4cdsaEv
__ZL16mds_DataGetFirst17cssm_dl_db_handlePK10cssm_queryPlP29cssm_db_record_attribute_dataP9cssm_dataPP21cssm_db_unique_record
__ZN8Security11ModuleNexusINS_5MutexEEclEv
__ZN8Security11ModuleNexusINS_13MappingHandleIlE5StateEEclEv
__ZN8Security13MappingHandleIlE5State4findEli
__ZN9__gnu_cxx9hashtableISt4pairIKlPN8Security13MappingHandleIlEEElNS_4hashIlEESt10_Select1stIS7_ESt8equal_toIlESaIS6_EE4findER
__ZN8Security10MDSSession12DataGetFirstElPKNS_9CssmQueryEP29cssm_db_record_attribute_dataPNS_8CssmDataERP21cssm_db_unique_recor
__ZN8Security10MDSSession15updateDataBasesEv
__ZN8Security9MDSModule17timeSinceLastScanEv
__ZN8Security4Time3nowEv
__ZN8SecurityL11GetMDSDBDirEv
__ZN8SecurityL9createDirEPKcjt
__ZN8Security10MDSSession10obtainLockEPKcRii
__ZN8SecurityL12doFilesExistEPKcS1_jbR4statS3_
__ZN8SecurityL13doesFileExistEPKcjbR4stat
__ZN8SecurityL12safeCopyFileEPKcjS1_t
__ZN8Security10MDSSession11DbFilesInfoC2ERS0_PKc
__ZN8Security10MDSSession11DbFilesInfo21removeOutdatedPluginsEv
__ZN8Security10MDSSession11DbFilesInfo9objDbHandEv
__ZN8Security10MDSSession6dbOpenEPKcb
__ZN8Security15DatabaseSession6DbOpenEPKcPK16cssm_net_addressjPKNS_17AccessCredentialsEPKvRl
__ZN8Security6DbNameC1EPKcPK16cssm_net_address
__ZN8Security6DbNameC2EPKcPK16cssm_net_address
__ZN8Security6DbName16CanonicalizeNameEv
__ZN8Security15DatabaseManager6dbOpenERNS_15DatabaseSessionERKNS_6DbNameEjPKNS_17AccessCredentialsEPKv
__ZN8Security15DatabaseManager3getERKNS_6DbNameE
__ZNSt8_Rb_treeIN8Security6DbNameESt4pairIKS1_PNS0_8DatabaseEESt10_Select1stIS6_ESt4lessIS1_ESaIS6_EE4findERS3_
__ZNK8Security6DbNameltERKS0_
__ZN8Security20AppleDatabaseManager4makeERKNS_6DbNameE
__ZN8Security13AppleDatabaseC2ERKNS_6DbNameEPKNS_22AppleDatabaseTableNameE
__ZN8Security8DatabaseC2ERKNS_6DbNameE
__ZN8Security6DbNameC1ERKS0_
__ZN8Security6DbNameC2ERKS0_
__ZN8Security10AtomicFileC1ERKSs
__ZN8Security10AtomicFileC2ERKSs
__ZN8Security10AtomicFile9pathSplitERKSsRSsS3_
__ZN8Security10DbModifierC2ERNS_10AtomicFileERKNS_13AppleDatabaseE
__ZNSt8_Rb_treeIN8Security6DbNameESt4pairIKS1_PNS0_8DatabaseEESt10_Select1stIS6_ESt4lessIS1_ESaIS6_EE16_M_insert_uniqueERKS6_
__ZNSt8_Rb_treeIN8Security6DbNameESt4pairIKS1_PNS0_8DatabaseEESt10_Select1stIS6_ESt4lessIS1_ESaIS6_EE9_M_insertEPSt18_Rb_tree_n
__ZNSt8_Rb_treeIN8Security6DbNameESt4pairIKS1_PNS0_8DatabaseEESt10_Select1stIS6_ESt4lessIS1_ESaIS6_EE14_M_create_nodeERKS6_
__ZN9__gnu_cxx13new_allocatorISt4pairIKN8Security6DbNameEPNS2_8DatabaseEEE9constructEPS7_RKS7_
__ZN8Security6DbNameD1Ev
__ZN8Security6DbNameD2Ev
__ZN8Security8Database7_dbOpenERNS_15DatabaseSessionEjPKNS_17AccessCredentialsEPKv
__ZN8Security13AppleDatabase13makeDbContextERNS_15DatabaseSessionEjPKNS_17AccessCredentialsEPKv
__ZN8Security14AppleDbContextC2ERNS_8DatabaseERNS_15DatabaseSessionEjPKNS_17AccessCredentialsEPKv
__ZN8Security9DbContextC2ERNS_8DatabaseERNS_15DatabaseSessionEjPK23cssm_access_credentials
__ZN8Security13MappingHandleIlEC2Ev
__ZN8Security13MappingHandleIlE4makeEv
__ZN9__gnu_cxx9hashtableISt4pairIKlPN8Security13MappingHandleIlEEElNS_4hashIlEESt10_Select1stIS7_ESt8equal_toIlESaIS6_EE14find_
__ZN9__gnu_cxx9hashtableISt4pairIKlPN8Security13MappingHandleIlEEElNS_4hashIlEESt10_Select1stIS7_ESt8equal_toIlESaIS6_EE6resize
__ZNSt8_Rb_treeIPN8Security9DbContextES2_St9_IdentityIS2_ESt4lessIS2_ESaIS2_EE16_M_insert_uniqueERKS2_
__ZNSt8_Rb_treeIPN8Security9DbContextES2_St9_IdentityIS2_ESt4lessIS2_ESaIS2_EE9_M_insertEPSt18_Rb_tree_node_baseSA_RKS2_
__ZN8Security13AppleDatabase6dbOpenERNS_9DbContextE
__ZN8Security10DbModifier12openDatabaseEv
__ZN8Security10DbModifier12getDbVersionEb
__ZN8Security10AtomicFile4readEv
__ZN8Security18AtomicBufferedFileC2ERKSsb
__ZN8Security18AtomicBufferedFile4openEv
__ZN8Security10AtomicFile5ropenEPKcit
__ZN8Security9DbVersionC2ERKNS_13AppleDatabaseERKNS_10RefPointerINS_18AtomicBufferedFileEEE
__ZN8Security18AtomicBufferedFile4readExxRx
__ZN8Security18AtomicBufferedFile10loadBufferEv
__ZN8Security18AtomicBufferedFile5closeEv
__ZN8Security10AtomicFile6rcloseEi
__ZN8Security9DbVersion4openEv
__ZNK8Security11ReadSection10subsectionEjj
__ZNK8Security11ReadSection10subsectionEj
__ZN8Security5TableC2ERKNS_11ReadSectionE
__ZN8Security10MetaRecordC1Ej
__ZNSt8_Rb_treeIjSt4pairIKjPN8Security5TableEESt10_Select1stIS5_ESt4lessIjESaIS5_EE16_M_insert_uniqueERKS5_
__ZNSt8_Rb_treeIjSt4pairIKjPN8Security5TableEESt10_Select1stIS5_ESt4lessIjESaIS5_EE9_M_insertEPSt18_Rb_tree_node_baseSD_RKS5_
__ZNSt8auto_ptrIN8Security5TableEED2Ev
__ZN8Security9DbVersion9findTableEj
__ZNSt8_Rb_treeIjSt4pairIKjPN8Security5TableEESt10_Select1stIS5_ESt4lessIjESaIS5_EE4findERS1_
__ZN8Security10MetaRecord22setRecordAttributeInfoERK29cssm_db_record_attribute_info
__ZN8Security10MetaRecord15createAttributeEPKSsPKNS_8CssmDataEjj
__ZNSt8_Rb_treeISsSt4pairIKSsjESt10_Select1stIS2_ESt4lessISsESaIS2_EE16_M_insert_uniqueERKS2_
__ZNSt8_Rb_treeISsSt4pairIKSsjESt10_Select1stIS2_ESt4lessISsESaIS2_EE9_M_insertEPSt18_Rb_tree_node_baseSA_RKS2_
__ZNSt8_Rb_treeISsSt4pairIKSsjESt10_Select1stIS2_ESt4lessISsESaIS2_EE14_M_create_nodeERKS2_
__ZN9__gnu_cxx13new_allocatorISt4pairIKSsjEE9constructEPS3_RKS3_
__ZNSt8_Rb_treeIjSt4pairIKjjESt10_Select1stIS2_ESt4lessIjESaIS2_EE16_M_insert_uniqueERKS2_
__ZNSt8_Rb_treeIjSt4pairIKjjESt10_Select1stIS2_ESt4lessIjESaIS2_EE9_M_insertEPSt18_Rb_tree_node_baseSA_RKS2_
__ZN8Security13MetaAttribute6createEjjj
__ZNSt6vectorIPN8Security13MetaAttributeESaIS2_EE9push_backERKS2_
__ZNSt6vectorIPN8Security13MetaAttributeESaIS2_EE13_M_insert_auxEN9__gnu_cxx17__normal_iteratorIPS2_S4_EERKS2_
__ZNSt12_Vector_baseIPN8Security13MetaAttributeESaIS2_EE11_M_allocateEm
__ZNK8Security5Table17getRecordsSectionEv
__ZN8Security10MetaRecord11readSectionERKNS_11ReadSectionEj
__ZNK8Security10MetaRecord12unpackRecordERKNS_11ReadSectionERNS_9AllocatorEP29cssm_db_record_attribute_dataPNS_8CssmDataEj
__ZNK8Security10MetaRecord14attributeIndexERK22cssm_db_attribute_info
__ZNKSt8_Rb_treeISsSt4pairIKSsjESt10_Select1stIS2_ESt4lessISsESaIS2_EE4findERS1_
__ZNK8Security13MetaAttribute15unpackAttributeERKNS_11ReadSectionERNS_9AllocatorERjRP9cssm_data
__ZNK8Security13MetaAttribute20unpackNumberOfValuesERKNS_11ReadSectionERjS4_
__ZN8Security17TrackingAllocator6mallocEm
__ZNSt8_Rb_treeIPvS0_St9_IdentityIS0_ESt4lessIS0_ESaIS0_EE16_M_insert_uniqueERKS0_
__ZNSt8_Rb_treeIPvS0_St9_IdentityIS0_ESt4lessIS0_ESaIS0_EE9_M_insertEPSt18_Rb_tree_node_baseS8_RKS0_
__ZNK8Security18TypedMetaAttributeINS_11UInt32ValueEE11unpackValueERKNS_11ReadSectionERjR9cssm_dataRNS_9AllocatorE
__ZN8Security11UInt32ValueC1ERKNS_11ReadSectionERj
__ZN8Security11UInt32ValueC2ERKNS_11ReadSectionERj
__ZN8Security11UInt32ValueD1Ev
__ZNK8Security18TypedMetaAttributeINS_11StringValueEE11unpackValueERKNS_11ReadSectionERjR9cssm_dataRNS_9AllocatorE
__ZN8Security11StringValueC1ERKNS_11ReadSectionERj
__ZN8Security9BlobValueC2ERKNS_11ReadSectionERj
__ZNK8Security11ReadSection5rangeERKNS_5RangeE
__ZN8Security11ReadSection5alignEj
__ZN8Security11StringValueD1Ev
__ZN8Security17TrackingAllocator6commitEv
__ZNSt8_Rb_treeIPvS0_St9_IdentityIS0_ESt4lessIS0_ESaIS0_EE8_M_eraseEPSt13_Rb_tree_nodeIS0_E
__ZN8Security17TrackingAllocatorD1Ev
__ZN8Security17TrackingAllocatorD2Ev
__ZN8Security17TrackingAllocator5resetEv
__ZN8Security9AllocatorD2Ev
__ZNK8Security19CssmDbAttributeDatacvjEv
__ZNK8Security19CssmDbAttributeDatacvSsEv
__ZNK8Security8CssmData8toStringEv
__ZNSt8auto_ptrISsE5resetEPSs
__ZNSt8auto_ptrISsED2Ev
__ZN8Security5Table16readIndexSectionEv
__ZN8Security12DbConstIndexC1ERKNS_5TableERKNS_11ReadSectionE
__ZN8Security12DbConstIndexC2ERKNS_5TableERKNS_11ReadSectionE
__ZNK8Security10MetaRecord13metaAttributeERK22cssm_db_attribute_info
__ZNKSt8_Rb_treeIjSt4pairIKjjESt10_Select1stIS2_ESt4lessIjESaIS2_EE4findERS1_
__ZNSt6vectorIPKN8Security13MetaAttributeESaIS3_EE9push_backERKS3_
__ZNSt6vectorIPKN8Security13MetaAttributeESaIS3_EE13_M_insert_auxEN9__gnu_cxx17__normal_iteratorIPS3_S5_EERKS3_
__ZNSt12_Vector_baseIPKN8Security13MetaAttributeESaIS3_EE11_M_allocateEm
__ZNSt8_Rb_treeIjSt4pairIKjPN8Security12DbConstIndexEESt10_Select1stIS5_ESt4lessIjESaIS5_EE16_M_insert_uniqueERKS5_
__ZNSt8_Rb_treeIjSt4pairIKjPN8Security12DbConstIndexEESt10_Select1stIS5_ESt4lessIjESaIS5_EE9_M_insertEPSt18_Rb_tree_node_baseSD
__ZNSt8auto_ptrIN8Security12DbConstIndexEED2Ev
__ZN8Security10RefPointerIKNS_9DbVersionEE10setPointerEPS2_
__ZN8Security10RefPointerIKNS_9DbVersionEE7releaseEv
__ZN8Security10RefPointerINS_18AtomicBufferedFileEE7releaseEv
__ZN8Security15DatabaseSession15insertDbContextERNS_9DbContextE
__ZNSt8_Rb_treeIlSt4pairIKlPN8Security9DbContextEESt10_Select1stIS5_ESt4lessIlESaIS5_EE16_M_insert_uniqueERKS5_
__ZNSt8_Rb_treeIlSt4pairIKlPN8Security9DbContextEESt10_Select1stIS5_ESt4lessIlESaIS5_EE9_M_insertEPSt18_Rb_tree_node_baseSD_RKS
__ZN8Security15DatabaseSession12DataGetFirstElPKNS_9CssmQueryEP29cssm_db_record_attribute_dataPNS_8CssmDataERP21cssm_db_unique_
__ZN8Security15DatabaseSession13findDbContextEl
__ZNSt8_Rb_treeIlSt4pairIKlPN8Security9DbContextEESt10_Select1stIS5_ESt4lessIlESaIS5_EE4findERS1_
__ZN8Security13AppleDatabase12dataGetFirstERNS_9DbContextEPKNS_9CssmQueryEP29cssm_db_record_attribute_dataPNS_8CssmDataERP21css
__ZN8Security10DbModifier12createCursorEPK10cssm_query
__ZNK8Security9DbVersion12createCursorEPK10cssm_query
__ZNK8Security9DbVersion9findTableEj
__ZNKSt8_Rb_treeIjSt4pairIKjPN8Security5TableEESt10_Select1stIS5_ESt4lessIjESaIS5_EE4findERS1_
__ZNK8Security5Table12createCursorEPK10cssm_queryRKNS_9DbVersionE
__ZNK8Security12DbConstIndex12matchesQueryERK10cssm_queryRPNS_10DbQueryKeyE
__ZN8Security12LinearCursorC2EPK10cssm_queryRKNS_9DbVersionERKNS_5TableE
__ZN8Security6CursorC2ERKNS_9DbVersionE
__ZNSt6vectorIPN8Security18SelectionPredicateESaIS2_EE6resizeEmS2_
__ZNSt6vectorIPN8Security18SelectionPredicateESaIS2_EE14_M_fill_insertEN9__gnu_cxx17__normal_iteratorIPS2_S4_EEmRKS2_
__ZN8Security12LinearCursor4nextERjP29cssm_db_record_attribute_dataPNS_8CssmDataERNS_9AllocatorERNS_8RecordIdE
__ZThn8_N8Security10MDSSession6mallocEm
__ZN8Security10MDSSession6mallocEm
__ZN8Security28CssmAllocatorMemoryFunctions11relayMallocEmPv
__ZN8Security10MetaRecord14unpackRecordIdERKNS_11ReadSectionE
__ZN8Security13AppleDatabase18createUniqueRecordERNS_9DbContextEjRKNS_8RecordIdE
__ZN8Security9Allocator5allocI21cssm_db_unique_recordEEPT_v
__ZN8Security9Allocator5allocIhEEPT_j
__ZN8Security15DatabaseSession16FreeUniqueRecordElR21cssm_db_unique_record
__ZN8Security13AppleDatabase16freeUniqueRecordERNS_9DbContextER21cssm_db_unique_record
__ZThn8_N8Security10MDSSession4freeEPv
__ZNK8Security19CssmMemoryFunctions4freeEPv
__ZN8Security28CssmAllocatorMemoryFunctions9relayFreeEPvS1_
__ZN8Security10MDSSession11DbFilesInfo19checkOutdatedPluginERK9cssm_dataS4_RSt6vectorIPNS1_9TbdRecordESaIS7_EE
__ZN8Security10MDSSession4freeEPv
__ZN8Security15DatabaseSession11DataGetNextEllP29cssm_db_record_attribute_dataPNS_8CssmDataERP21cssm_db_unique_record
__ZN8Security13AppleDatabase11dataGetNextERNS_9DbContextElP29cssm_db_record_attribute_dataPNS_8CssmDataERP21cssm_db_unique_reco
__ZN8Security12LinearCursorD0Ev
__ZN8Security6CursorD2Ev
__ZN8Security13MappingHandleIlED2Ev
__ZN8Security10MDSSession11DbFilesInfo18updateSystemDbInfoEPKcS3_
__ZN8Security10MDSSession11DbFilesInfo18updateForBundleDirEPKc
__ZN8SecurityL8isBundleEPK6dirent
__ZN8Security10MDSSession11DbFilesInfo15updateForBundleEPKc
__ZN8Security10MDSSession11DbFilesInfo13lookupForPathEPKc
__ZNSt12_Vector_baseIPN8Security18SelectionPredicateESaIS2_EE11_M_allocateEm
__ZN8Security18SelectionPredicateC1ERKNS_10MetaRecordERK24cssm_selection_predicate
__ZN8Security18SelectionPredicateC2ERKNS_10MetaRecordERK24cssm_selection_predicate
__ZN8Security17CssmDataContaineraSERK9cssm_data
__ZN8Security17CssmDataContainer5clearEv
__ZNK8Security18TypedMetaAttributeINS_11StringValueEE11createValueERK9cssm_data
__ZN8Security11StringValueC1ERK9cssm_data
__ZNK8Security18SelectionPredicate8evaluateERKNS_11ReadSectionE
__ZNK8Security18TypedMetaAttributeINS_11StringValueEE8evaluateEPKNS_7DbValueERKNS_11ReadSectionEj
__ZNK8Security11StringValue8evaluateERKS0_j
__ZN8Security9BlobValue8evaluateERKNS_8CssmDataES3_jNS0_10ComparatorE
__ZN8Security15DatabaseSession14DataAbortQueryEll
__ZN8Security13AppleDatabase14dataAbortQueryERNS_9DbContextEl
__ZN8Security18SelectionPredicateD1Ev
__ZN8Security18SelectionPredicateD2Ev
__ZN8Security11StringValueD0Ev
__ZN8Security17CssmDataContainerD1Ev
__ZN8Security9MDSModule9setDbPathEPKc
__ZN8Security10MDSSession11DbFilesInfoD2Ev
__ZN8Security15DatabaseSession11PassThroughEljPKvPPv
__ZN8Security13AppleDatabase11passThroughERNS_9DbContextEjPKvPPv
__ZN8Security10DbModifier6commitEv
__ZN8Security15DatabaseSession7DbCloseEl
__ZN8Security15DatabaseManager7dbCloseERNS_9DbContextE
__ZN8Security8Database8_dbCloseERNS_9DbContextE
__ZNSt8_Rb_treeIPN8Security9DbContextES2_St9_IdentityIS2_ESt4lessIS2_ESaIS2_EE5eraseERKS2_
__ZNSt8_Rb_treeIPN8Security9DbContextES2_St9_IdentityIS2_ESt4lessIS2_ESaIS2_EE5eraseESt17_Rb_tree_iteratorIS2_ESA_
__ZNSt8_Rb_treeIPN8Security9DbContextES2_St9_IdentityIS2_ESt4lessIS2_ESaIS2_EE8_M_eraseEPSt13_Rb_tree_nodeIS2_E
__ZN8Security13AppleDatabase7dbCloseEv
__ZN8Security10DbModifier13closeDatabaseEv
__ZN8Security9DbVersionD2Ev
__ZN8Security5TableD2Ev
__ZNSt8_Rb_treeIjSt4pairIKjPN8Security12DbConstIndexEESt10_Select1stIS5_ESt4lessIjESaIS5_EE8_M_eraseEPSt13_Rb_tree_nodeIS5_E
__ZN8Security10MetaRecordD1Ev
__ZN8Security10MetaRecordD2Ev
__ZN8Security18TypedMetaAttributeINS_11UInt32ValueEED0Ev
__ZN8Security18TypedMetaAttributeINS_11StringValueEED0Ev
__ZNSt8_Rb_treeIjSt4pairIKjjESt10_Select1stIS2_ESt4lessIjESaIS2_EE8_M_eraseEPSt13_Rb_tree_nodeIS2_E
__ZNSt8_Rb_treeIN8Security10CssmBufferINS0_17CssmDataContainerEEESt4pairIKS3_jESt10_Select1stIS6_ESt4lessIS3_ESaIS6_EED2Ev
__ZNSt8_Rb_treeIN8Security10CssmBufferINS0_17CssmDataContainerEEESt4pairIKS3_jESt10_Select1stIS6_ESt4lessIS3_ESaIS6_EE8_M_erase
__ZNSt8_Rb_treeISsSt4pairIKSsjESt10_Select1stIS2_ESt4lessISsESaIS2_EED2Ev
__ZNSt8_Rb_treeISsSt4pairIKSsjESt10_Select1stIS2_ESt4lessISsESaIS2_EE8_M_eraseEPSt13_Rb_tree_nodeIS2_E
__ZNSt8_Rb_treeISsSt4pairIKSsjESt10_Select1stIS2_ESt4lessISsESaIS2_EE15_M_destroy_nodeEPSt13_Rb_tree_nodeIS2_E
__ZN8Security18TypedMetaAttributeINS_9BlobValueEED0Ev
__ZN8Security18AtomicBufferedFileD1Ev
__ZN8Security18AtomicBufferedFileD2Ev
__ZN8Security18AtomicBufferedFile12unloadBufferEv
__ZNSt8_Rb_treeIjSt4pairIKjPN8Security5TableEESt10_Select1stIS5_ESt4lessIjESaIS5_EE8_M_eraseEPSt13_Rb_tree_nodeIS5_E
__ZN8Security15DatabaseManager14removeIfUnusedERNS_8DatabaseE
__ZN8Security8Database13hasDbContextsEv
__ZNSt8_Rb_treeIN8Security6DbNameESt4pairIKS1_PNS0_8DatabaseEESt10_Select1stIS6_ESt4lessIS1_ESaIS6_EE5eraseERS3_
__ZNSt8_Rb_treeIN8Security6DbNameESt4pairIKS1_PNS0_8DatabaseEESt10_Select1stIS6_ESt4lessIS1_ESaIS6_EE11upper_boundERS3_
__ZNSt8_Rb_treeIN8Security6DbNameESt4pairIKS1_PNS0_8DatabaseEESt10_Select1stIS6_ESt4lessIS1_ESaIS6_EE11lower_boundERS3_
__ZNSt8_Rb_treeIN8Security6DbNameESt4pairIKS1_PNS0_8DatabaseEESt10_Select1stIS6_ESt4lessIS1_ESaIS6_EE5eraseESt17_Rb_tree_iterat
__ZNSt8_Rb_treeIN8Security6DbNameESt4pairIKS1_PNS0_8DatabaseEESt10_Select1stIS6_ESt4lessIS1_ESaIS6_EE15_M_destroy_nodeEPSt13_Rb
__ZN8Security13AppleDatabaseD0Ev
__ZN8Security10DbModifierD2Ev
__ZNSt8_Rb_treeIjSt4pairIKjPN8Security13ModifiedTableEESt10_Select1stIS5_ESt4lessIjESaIS5_EE8_M_eraseEPSt13_Rb_tree_nodeIS5_E
__ZN8Security10RefPointerINS_14AtomicTempFileEE7releaseEv
__ZN8Security10AtomicFileD1Ev
__ZN8Security10AtomicFileD2Ev
__ZN8Security8DatabaseD2Ev
__ZN8Security14AppleDbContextD0Ev
__ZN8Security9DbContextD2Ev
__ZN8Security9MDSModule13lastScanIsNowEv
__ZN8Security10MDSSession11releaseLockERi
__ZN8Security12WriteSectionC2ERNS_9AllocatorE
__ZNK8Security18TypedMetaAttributeINS_11StringValueEE9packValueERNS_12WriteSectionERjRK9cssm_data
__ZNK8Security9BlobValue4packERNS_12WriteSectionERj
__ZN8Security12WriteSection3putEjj
__ZN8Security12WriteSection3putEjjPKh
__ZN8Security11IndexCursorC2EPNS_10DbQueryKeyERKNS_9DbVersionERKNS_5TableEPKNS_12DbConstIndexE
__ZNK8Security12DbConstIndex12performQueryERKNS_10DbQueryKeyERPKNS_6EndianIjEES8_
__ZSt11equal_rangeIPKN8Security6EndianIjEEjNS0_15DbKeyComparatorEESt4pairIT_S7_ES7_S7_RKT0_T1_
__ZNK8Security15DbKeyComparatorclEjj
__ZNK8Security18TypedMetaAttributeINS_11StringValueEE11createValueERKNS_11ReadSectionERj
__ZNK8Security18TypedMetaAttributeINS_11StringValueEE8evaluateEPKNS_7DbValueES5_j
__ZSt11lower_boundIPKN8Security6EndianIjEEjNS0_15DbKeyComparatorEET_S6_S6_RKT0_T1_
__ZSt11upper_boundIPKN8Security6EndianIjEEjNS0_15DbKeyComparatorEET_S6_S6_RKT0_T1_
__ZN8Security11IndexCursor4nextERjP29cssm_db_record_attribute_dataPNS_8CssmDataERNS_9AllocatorERNS_8RecordIdE
__ZNK8Security12DbConstIndex16getRecordSectionEPKNS_6EndianIjEE
__ZNK8Security5Table16getRecordSectionEj
__ZN8Security13CssmOwnedData3setERNS_15CssmManagedDataE
__ZN18SensitiveAllocator4freeEPv
__ZN8Security10CssmClient9TableBase8IteratorC2EPNS0_8DLAccessElP21cssm_db_unique_recordPNS0_6RecordEb
__ZN8Security12CssmAutoDataD2Ev
__ZN8Security15CssmManagedDataD2Ev
__ZN8Security10RefPointerINS_9MDSClient6CommonEE7releaseEv
__ZN8Security10CssmClient5TableINS_9MDSClient6CommonEE10fetchFirstENS4_8iteratorEi
__ZN8Security10CssmClient9TableBase8IteratorD2Ev
__ZN8Security10RefPointerINS_10CssmClient6RecordEE7releaseEv
__ZN8Security10RefPointerINS_10CssmClient9TableBase3UidEE7releaseEv
__ZN8Security10RefPointerINS_10CssmClient9TableBase6HandleEE7releaseEv
__ZN8Security10CssmClient9TableBase3UidD1Ev
__ZN8Security9MDSClient9Directory14dlFreeUniqueIdEP21cssm_db_unique_record
__ZL20mds_FreeUniqueRecord17cssm_dl_db_handleP21cssm_db_unique_record
__ZN8Security10CssmClient9TableBase6HandleD1Ev
__ZN8Security9MDSClient9Directory12dlAbortQueryEl
__ZL18mds_DataAbortQuery17cssm_dl_db_handlel
__ZN8Security11IndexCursorD0Ev
__ZNSt8auto_ptrIN8Security10DbQueryKeyEED2Ev
__ZN8Security10RefPointerINS_9MDSClient6CommonEE10setPointerEPS2_
__ZN8Security10CssmClient5QueryD2Ev
__ZNSt6vectorIN8Security10CssmClient10ComparisonESaIS2_EED2Ev
__ZN8Security10CssmClient10ComparisonD2Ev
__ZNK8Security9MDSClient6Common4pathEv
__ZN8Security12ModuleLoaderclERKSs
__ZNSt3mapISsPN8Security6PluginESt4lessISsESaISt4pairIKSsS2_EEEixERS6_
__ZNSt8_Rb_treeISsSt4pairIKSsPN8Security6PluginEESt10_Select1stIS5_ESt4lessISsESaIS5_EE11lower_boundERS1_
__ZNK8Security12StaticPlugin8isLoadedEv
__ZN6ModuleC1EP11CssmManagerRK12MdsComponentPN8Security6PluginE
__ZN6ModuleC2EP11CssmManagerRK12MdsComponentPN8Security6PluginE
__ZN9__gnu_cxx8hash_mapIlP10AttachmentNS_4hashIlEESt8equal_toIlESaIS2_EEC2Ev
__ZN9__gnu_cxx9hashtableISt4pairIKlP10AttachmentElNS_4hashIlEESt10_Select1stIS5_ESt8equal_toIlESaIS4_EEC2EmRKS7_RKSB_RKSaIS5_E
__ZN9__gnu_cxx9hashtableISt4pairIKlP10AttachmentElNS_4hashIlEESt10_Select1stIS5_ESt8equal_toIlESaIS4_EE21_M_initialize_bucketsE
__ZNK9__gnu_cxx9hashtableISt4pairIKlP10AttachmentElNS_4hashIlEESt10_Select1stIS5_ESt8equal_toIlESaIS4_EE12_M_next_sizeEm
__ZNSt6vectorIPN9__gnu_cxx15_Hashtable_nodeISt4pairIKlP10AttachmentEEESaIS8_EE7reserveEm
__ZNSt12_Vector_baseIPN9__gnu_cxx15_Hashtable_nodeISt4pairIKlP10AttachmentEEESaIS8_EE11_M_allocateEm
__ZNSt6vectorIPN9__gnu_cxx15_Hashtable_nodeISt4pairIKlP10AttachmentEEESaIS8_EE14_M_fill_insertENS0_17__normal_iteratorIPS8_SA_E
__ZN8Security12StaticPlugin4loadEPK9cssm_guidS3_PFiS3_PvjjjES4_
_CSSM_SPI_ModuleLoad__apple_x509_cl
__ZN8Security11ModuleNexusI11AppleX509CLEclEv
__ZN8Security11ModuleNexusI11AppleX509CLE4makeEv
__ZN11AppleX509CLC1Ev
__ZN8Security10CssmPluginC2Ev
__ZN8Security10CssmPlugin10moduleLoadERKNS_4GuidES3_RKNS_14ModuleCallbackE
__ZN8Security10CssmPlugin4loadEv
__ZNSt3mapIN8Security4GuidEP6ModuleSt4lessIS1_ESaISt4pairIKS1_S3_EEEixERS7_
__ZNSt8_Rb_treeIN8Security4GuidESt4pairIKS1_P6ModuleESt10_Select1stIS6_ESt4lessIS1_ESaIS6_EE11lower_boundERS3_
__ZNSt8_Rb_treeIN8Security4GuidESt4pairIKS1_P6ModuleESt10_Select1stIS6_ESt4lessIS1_ESaIS6_EE16_M_insert_uniqueESt17_Rb_tree_ite
__ZNSt8_Rb_treeIN8Security4GuidESt4pairIKS1_P6ModuleESt10_Select1stIS6_ESt4lessIS1_ESaIS6_EE9_M_insertEPSt18_Rb_tree_node_baseS
__ZN12MdsComponentD1Ev
__ZN8Security17ModuleCallbackSet6insertERKNS_14ModuleCallbackE
__ZNSt8_Rb_treeIN8Security14ModuleCallbackESt4pairIKS1_PNS0_13CountingMutexEESt10_Select1stIS6_ESt4lessIS1_ESaIS6_EE15_M_insert
__ZNSt8_Rb_treeIN8Security14ModuleCallbackESt4pairIKS1_PNS0_13CountingMutexEESt10_Select1stIS6_ESt4lessIS1_ESaIS6_EE9_M_insertE
__ZNSt8_Rb_treeIN8Security14ModuleCallbackESt4pairIKS1_PNS0_13CountingMutexEESt10_Select1stIS6_ESt4lessIS1_ESaIS6_EE14_M_create
__ZNK8Security10CssmClient10ObjectImpl9allocatorEv
__ZN8Security28CssmAllocatorMemoryFunctionsC1ERNS_9AllocatorE
__ZNK8Security10CssmClient14AttachmentImpl4guidEv
__ZNK8Security10CssmClient14AttachmentImpl6moduleEv
_CSSM_ModuleAttach
__ZN11CssmManager9getModuleERKN8Security4GuidE
__ZN6Module6attachERK12cssm_versionjjRK17cssm_memory_funcsjjP19cssm_func_name_addrj
__ZNK8Security9MDSClient6Common11serviceMaskEv
__ZNK17AttachmentFactory18attachmentMakerForEj
__ZNKSt8_Rb_treeIjSt4pairIKjP15AttachmentMakerESt10_Select1stIS4_ESt4lessIjESaIS4_EE4findERS1_
__ZN23StandardAttachmentMakerILj8E17cssm_spi_cl_funcsXadL_Z11CLNameTableEEE4makeEP6ModuleRK12cssm_versionjjRK17cssm_memory_func
__ZN18StandardAttachmentILj8E17cssm_spi_cl_funcsEC2EP6ModuleRKSt3mapIPKcjSt4lessIS6_ESaISt4pairIKS6_jEEERK12cssm_versionjjRK17c
__ZN10AttachmentC2EP6ModuleRK12cssm_versionjjRK17cssm_memory_funcsjj
__ZN8Security12StaticPlugin6attachEPK9cssm_guidPK12cssm_versionjjjljS3_S3_S3_PK12cssm_upcallsPP17cssm_module_funcs
_CSSM_SPI_ModuleAttach__apple_x509_cl
__ZN8Security10CssmPlugin12moduleAttachElRKNS_4GuidES3_S3_S3_RK12cssm_versionjjjjRK12cssm_upcallsRP17cssm_module_funcs
__ZN11AppleX509CL11makeSessionElRK12cssm_versionjjjRK12cssm_upcalls
__ZN18AppleX509CLSessionC1ElRN8Security10CssmPluginERK12cssm_versionjjjRK12cssm_upcalls
__ZN18AppleX509CLSessionC2ElRN8Security10CssmPluginERK12cssm_versionjjjRK12cssm_upcalls
__ZN8Security13PluginSessionC2ElRNS_10CssmPluginERK12cssm_versionjjjRK12cssm_upcalls
__ZN8Security11TypedHandleIlEC2El
__ZN9LockedMapIl13CLCachedEntryEC2Ev
__ZN9LockedMapIl7CLQueryEC2Ev
__ZN8Security15CLPluginSession9constructEv
__ZN8Security11ModuleNexusINS_10CssmPlugin10SessionMapEEclEv
__ZN9__gnu_cxx9hashtableISt4pairIKlPN8Security13PluginSessionEElNS_4hashIlEESt10_Select1stIS6_ESt8equal_toIlESaIS5_EE14find_or_
__ZN9__gnu_cxx9hashtableISt4pairIKlPN8Security13PluginSessionEElNS_4hashIlEESt10_Select1stIS6_ESt8equal_toIlESaIS5_EE6resizeEm
__ZN18StandardAttachmentILj8E17cssm_spi_cl_funcsE14resolveSymbolsEP19cssm_func_name_addrj
__ZN9__gnu_cxx9hashtableISt4pairIKlP10AttachmentElNS_4hashIlEESt10_Select1stIS5_ESt8equal_toIlESaIS4_EE6resizeEm
__ZN9__gnu_cxx9hashtableISt4pairIKlP10AttachmentElNS_4hashIlEESt10_Select1stIS5_ESt8equal_toIlESaIS4_EE22insert_unique_noresize
_SecCertificateGetData
__ZN8Security12KeychainCore11Certificate4dataEv
_CSSM_CL_CertGetFirstFieldValue
__ZN8Security13MappingHandleIlE11findAndLockI18StandardAttachmentILj8E17cssm_spi_cl_funcsEEERT_li
__ZN8Security13MappingHandleIlE5State6locateEli
__ZN10Attachment7tryLockEv
__ZN8Security5Mutex7tryLockEv
__ZN8Security13CountingMutex11finishEnterEv
__ZN6Module8safeLockEv
__ZNK8Security9MDSClient6Common14singleThreadedEv
__ZNK8Security19CssmDbAttributeDatacvbEv
__ZL27cssm_CertGetFirstFieldValuelPK9cssm_dataS1_PlPjPPS_
__ZN8Security10CssmPlugin4findEl
__ZN9__gnu_cxx9hashtableISt4pairIKlPN8Security13PluginSessionEElNS_4hashIlEESt10_Select1stIS6_ESt8equal_toIlESaIS5_EE4findERS2_
__ZThn64_N18AppleX509CLSession22CertGetFirstFieldValueERKN8Security8CssmDataES3_RjRP9cssm_data
__ZN18AppleX509CLSession22CertGetFirstFieldValueERKN8Security8CssmDataES3_RjRP9cssm_data
__ZN11DecodedCertC1ER18AppleX509CLSessionRKN8Security8CssmDataE
__ZN11DecodedCertC2ER18AppleX509CLSessionRKN8Security8CssmDataE
__ZN11DecodedItemC2ER18AppleX509CLSession
__ZN11SecNssCoderC1Em
__ZN11SecNssCoderC2Em
_PORT_NewArena
_PORT_ZAlloc
_PR_Calloc
_PL_InitArenaPool
_PR_CeilingLog2
__ZN17DecodedExtensionsC1ER11SecNssCoderRN8Security9AllocatorE
__ZN11SecNssCoder6decodeEPKvmPK22SecAsn1Template_structPv
_SEC_ASN1Decode
_SEC_ASN1DecoderStart
_PORT_ArenaZAlloc
_PORT_ArenaAlloc
_PL_ArenaAllocate
_PR_Malloc
_sec_asn1d_push_state
_sec_asn1d_zalloc
_sec_asn1d_alloc
_sec_asn1d_init_state_based_on_template
_SEC_ASN1DecoderUpdate
_PORT_ArenaMark
_sec_asn1d_notify_before
_SEC_ASN1GetSubtemplate
_sec_asn1d_parse_leaf
_sec_asn1d_free_child
_PORT_ArenaRelease
_sec_asn1d_notify_after
_sec_asn1d_record_any_header
_sec_asn1d_add_to_subitems
_NSS_ATVChooser
_SecAsn1TaggedTemplateChooser
_NSS_TimeChooser
_SEC_ASN1DecoderFinish
_PORT_FreeArena
_PL_FinishArenaPool
_FreeArenaList
_PR_Free
_PORT_ZFree
__ZN17DecodedExtensions13decodeFromNssEPP17NSS_CertExtension
__Z14clNssArraySizePPKv
_clOidToNssInfo
__Z17clCompareCssmDataPK9cssm_dataS1_
__ZN11SecNssCoder6mallocEm
__Z15clNssBoolToCssmRK9cssm_data
__ZN17DecodedExtensions12addExtensionERK9cssm_databPvbPK22SecAsn1Template_structPS1_
__ZN8Security13PluginSession7reallocEPvm
__ZN10Attachment13upcallReallocElPvj
__ZN8Security28CssmMemoryFunctionsAllocator7reallocEPvm
__ZN8Security28CssmAllocatorMemoryFunctions12relayReallocEPvmS1_
__ZN12DecodedExtenC2ERK9cssm_databPvbPK22SecAsn1Template_structR11SecNssCoderPS1_
__ZN11SecNssCoder13allocCopyItemEPKvmR9cssm_data
__ZN11DecodedCert16getCertFieldDataERKN8Security8CssmDataEjRjRNS0_13CssmOwnedDataE
__ZL11oidToFieldsRKN8Security8CssmDataE
__ZNK8Security8CssmDataeqERKS0_
_getFieldCertPolicies
__ZNK11DecodedItem11GetExtenTopI16NSS_CertPolicies17__CE_CertPoliciesEEbjRjRN8Security9AllocatorERK9cssm_dataRPT_RPT0_RPK12Deco
__ZNK11DecodedItem14findDecodedExtERK9cssm_databjRj
__ZNK17DecodedExtensions12getExtensionEj
__ZN8Security13PluginSession6mallocEm
__ZN10Attachment12upcallMallocElj
__ZN8Security28CssmMemoryFunctionsAllocator6mallocEm
__Z15clAllocCopyDataRN8Security9AllocatorERK9cssm_dataRS2_
_getFieldExtenCommon
__ZNK12DecodedExten13convertToCdsaEPvP19cssm_x509_extensionRN8Security9AllocatorE
__ZN13CLCachedEntryC2Ev
__ZN9LockedMapIl13CLCachedEntryE8addEntryERS0_l
__ZNSt3mapIlP13CLCachedEntrySt4lessIlESaISt4pairIKlS1_EEEixERS5_
__ZNSt8_Rb_treeIlSt4pairIKlP13CLCachedEntryESt10_Select1stIS4_ESt4lessIlESaIS4_EE16_M_insert_uniqueESt17_Rb_tree_iteratorIS4_ER
__ZNSt8_Rb_treeIlSt4pairIKlP13CLCachedEntryESt10_Select1stIS4_ESt4lessIlESaIS4_EE16_M_insert_uniqueERKS4_
__ZNSt8_Rb_treeIlSt4pairIKlP13CLCachedEntryESt10_Select1stIS4_ESt4lessIlESaIS4_EE9_M_insertEPSt18_Rb_tree_node_baseSC_RKS4_
__ZN7CLQueryC1E11CLQueryTypeRKN8Security8CssmDataEjbl
__ZN7CLQueryC2E11CLQueryTypeRKN8Security8CssmDataEjbl
__ZN9LockedMapIl7CLQueryE8addEntryERS0_l
__ZNSt3mapIlP7CLQuerySt4lessIlESaISt4pairIKlS1_EEEixERS5_
__ZNSt8_Rb_treeIlSt4pairIKlP7CLQueryESt10_Select1stIS4_ESt4lessIlESaIS4_EE16_M_insert_uniqueESt17_Rb_tree_iteratorIS4_ERKS4_
__ZNSt8_Rb_treeIlSt4pairIKlP7CLQueryESt10_Select1stIS4_ESt4lessIlESaIS4_EE16_M_insert_uniqueERKS4_
__ZNSt8_Rb_treeIlSt4pairIKlP7CLQueryESt10_Select1stIS4_ESt4lessIlESaIS4_EE9_M_insertEPSt18_Rb_tree_node_baseSC_RKS4_
__ZN8Security12CssmAutoData7releaseEv
__ZN8Security13PluginSession4freeEPv
__ZN10Attachment10upcallFreeElPv
__ZN8Security28CssmMemoryFunctionsAllocator4freeEPv
__ZN6Module10safeUnlockEv
__ZN8Security13CountingMutex4exitEv
_CSSM_CL_CertAbortQuery
__ZL19cssm_CertAbortQueryll
__ZThn64_N18AppleX509CLSession14CertAbortQueryEl
__ZN18AppleX509CLSession14CertAbortQueryEl
__ZN9LockedMapIl7CLQueryE11lookupEntryEl
__ZNSt8_Rb_treeIlSt4pairIKlP7CLQueryESt10_Select1stIS4_ESt4lessIlESaIS4_EE4findERS1_
__ZN18AppleX509CLSession16lookupCachedCertEl
__ZN9LockedMapIl13CLCachedEntryE11lookupEntryEl
__ZNSt8_Rb_treeIlSt4pairIKlP13CLCachedEntryESt10_Select1stIS4_ESt4lessIlESaIS4_EE4findERS1_
__ZN9LockedMapIl13CLCachedEntryE11removeEntryEl
__ZNSt8_Rb_treeIlSt4pairIKlP13CLCachedEntryESt10_Select1stIS4_ESt4lessIlESaIS4_EE5eraseERS1_
__ZNSt8_Rb_treeIlSt4pairIKlP13CLCachedEntryESt10_Select1stIS4_ESt4lessIlESaIS4_EE5eraseESt17_Rb_tree_iteratorIS4_ESC_
__ZNSt8_Rb_treeIlSt4pairIKlP13CLCachedEntryESt10_Select1stIS4_ESt4lessIlESaIS4_EE8_M_eraseEPSt13_Rb_tree_nodeIS4_E
__ZN12CLCachedCertD0Ev
__ZN11DecodedCertD0Ev
__ZN11DecodedItemD2Ev
__ZN17DecodedExtensionsD1Ev
__ZN17DecodedExtensionsD2Ev
__ZN11SecNssCoderD1Ev
__ZN9LockedMapIl7CLQueryE11removeEntryEl
__ZNSt8_Rb_treeIlSt4pairIKlP7CLQueryESt10_Select1stIS4_ESt4lessIlESaIS4_EE5eraseERS1_
__ZNSt8_Rb_treeIlSt4pairIKlP7CLQueryESt10_Select1stIS4_ESt4lessIlESaIS4_EE5eraseESt17_Rb_tree_iteratorIS4_ESC_
__ZNSt8_Rb_treeIlSt4pairIKlP7CLQueryESt10_Select1stIS4_ESt4lessIlESaIS4_EE8_M_eraseEPSt13_Rb_tree_nodeIS4_E
__ZN7CLQueryD1Ev
_SecKeychainOpen
__ZN8Security11ModuleNexusINS_12KeychainCore7GlobalsEEclEv
__ZN8Security11ModuleNexusINS_12KeychainCore7GlobalsEE4makeEv
__ZN8Security12KeychainCore7GlobalsC1Ev
__ZN8Security12KeychainCore7GlobalsC2Ev
__ZN8Security12KeychainCore14StorageManagerC1Ev
__ZN8Security12KeychainCore14StorageManagerC2Ev
__ZN8Security12KeychainCore15DynamicDLDBListC1Ev
_SessionGetInfo
__ZN8Security14CommonCriteria9AuditInfo3getEv
__ZN8Security9UnixError5checkEi
__ZN8Security14DLDbListCFPrefC1E20SecPreferencesDomain
__ZN8Security14DLDbListCFPrefC2E20SecPreferencesDomain
__ZN8Security14DLDbListCFPref16loadPropertyListEb
__ZN8Security14DLDbListCFPref18ExpandTildesInPathERKSs
___ExpandTildesInPath_block_invoke_3
__ZN8Security14DLDbListCFPref9getPwInfoENS0_10PwInfoTypeE
__ZStplIcSt11char_traitsIcESaIcEESbIT_T0_T1_ERKS6_S8_
__ZN8Security10CssmClient10AclFactoryC1Ev
__ZN8Security12KeychainCore14StorageManager4makeEPKcb
__ZN8Security17CssmSubserviceUidC1ERK9cssm_guidPK12cssm_versionjj
__ZN8Security14DLDbIdentifierC2ERK19cssm_subservice_uidPKcPK16cssm_net_address
__ZN8Security14DLDbIdentifier4ImplC2ERK19cssm_subservice_uidPKcPK16cssm_net_address
__ZN8Security12KeychainCore14StorageManager12makeKeychainERKNS_14DLDbIdentifierEb
__ZN8Security12KeychainCore14StorageManager8keychainERKNS_14DLDbIdentifierE
__ZN8Security10CssmClient6ModuleC2ERKNS_4GuidE
__ZN8Security10CssmClient10ModuleImplC1ERKNS_4GuidE
__ZN8Security10CssmClient7SSCSPDLC2ERKNS0_6ModuleE
__ZN8Security10CssmClient11SSCSPDLImplC1ERKNS0_6ModuleE
__ZN8Security10CssmClient9CSPDLImplC2ERKNS0_6ModuleE
__ZN8Security10CssmClient7CSPImplC2ERKNS0_6ModuleE
__ZN8Security10CssmClient14AttachmentImplC2ERKNS0_6ModuleEj
__ZN8Security10CssmClient6DLImplC2ERKNS0_6ModuleE
__ZN8Security10CssmClient5CSPDLC2EPNS0_9CSPDLImplE
__ZN8Security10RefPointerINS_10CssmClient10ObjectImplEE10setPointerEPS2_
__ZN8Security10CssmClient5CSPDLD2Ev
__ZNK8Security10CssmClient6Object4implINS0_6DLImplEEERT_v
__ZThn112_N8Security10CssmClient9CSPDLImpl12subserviceIdEj
__ZN8Security10CssmClient14AttachmentImpl12subserviceIdEj
__ZN8Security10CssmClient2DbC2ERNS0_7DbMakerEPKcPK16cssm_net_address
__ZThn224_N8Security10CssmClient11SSCSPDLImpl5newDbEPKcPK16cssm_net_address
__ZN8Security10CssmClient11SSCSPDLImpl5newDbEPKcPK16cssm_net_address
__ZN8Security10CssmClient8SSDbImplC1ERKNS0_7SSCSPDLEPKcPK16cssm_net_address
__ZN8Security10CssmClient6DbImplC2ERKNS0_2DLEPKcPK16cssm_net_address
__ZN8Security12KeychainCore8KeychainC2ERKNS_10CssmClient2DbE
__ZN8Security12KeychainCore12KeychainImplnwEm
__ZN8Security12KeychainCore12KeychainImplC1ERKNS_10CssmClient2DbE
__ZN8Security12KeychainCore12KeychainImplC2ERKNS_10CssmClient2DbE
__ZN8Security10CssmClient2DbC2ERKS1_
__ZN8Security12KeychainCore18DefaultCredentialsC1EPNS0_12KeychainImplERNS_9AllocatorE
__ZN8Security12KeychainCore18DefaultCredentialsC2EPNS0_12KeychainImplERNS_9AllocatorE
__ZN8Security15AutoCredentialsC2ERNS_9AllocatorE
___KeychainImpl_block_invoke_2
__ZL21check_system_keychainv
__ZNK8Security10CssmClient6Object4implINS0_6DbImplEEERT_v
__ZN8Security10CssmClient6DbImpl18defaultCredentialsEPNS1_23DefaultCredentialsMakerE
__ZN9__gnu_cxx13new_allocatorISt4pairIKN8Security14DLDbIdentifierEPNS2_12KeychainCore12KeychainImplEEE9constructEPS8_RKS8_
__ZN8Security10RefPointerINS_14DLDbIdentifier4ImplEE7releaseEv
__ZN8Security14SecPointerBaseC2ERKS0_
__ZN8Security12KeychainCore12KeychainImpl17getMutexForObjectEv
__ZN8Security12KeychainCore14StorageManager22getStorageManagerMutexEv
__ZN8Security10CssmClient2DbD2Ev
__ZN8Security10CssmClient8DLAccessD2Ev
_SecKeychainGetStatus
__ZN8Security12KeychainCore8Keychain8optionalEP20OpaqueSecKeychainRef
__ZN8Security12KeychainCore12KeychainImpl8requiredEP20OpaqueSecKeychainRef
__ZNK8Security12KeychainCore12KeychainImpl6statusEv
__ZN8Security10CssmClient6DbImpl8isLockedEv
__ZN8Security10CssmClient6DbImpl8activateEv
__ZN8Security10CssmClient8SSDbImpl4openEv
__ZN8Security10CssmClient6DbImpl4openEv
_CSSM_SPI_ModuleLoad__apple_cspdl
__ZN8Security11ModuleNexusI11CSPDLPluginEclEv
__ZN8Security11ModuleNexusI11CSPDLPluginE4makeEv
__ZN11CSPDLPluginC1Ev
__ZN11CSPDLPluginC2Ev
__ZN14SSCSPDLSessionC1Ev
__ZN8Security7KeyPoolC2Ev
__ZN8Security15DatabaseManagerC2Ev
__ZN8Security10CssmClient3CSPC2ERKNS_4GuidE
__ZN8Security10CssmClient7CSPImplC1ERKNS_4GuidE
__ZThn112_NK8Security10CssmClient9CSPDLImpl9allocatorEv
__ZN23StandardAttachmentMakerILj4E17cssm_spi_dl_funcsXadL_Z11DLNameTableEEE4makeEP6ModuleRK12cssm_versionjjRK17cssm_memory_func
__ZN18StandardAttachmentILj4E17cssm_spi_dl_funcsEC2EP6ModuleRKSt3mapIPKcjSt4lessIS6_ESaISt4pairIKS6_jEEERK12cssm_versionjjRK17c
_CSSM_SPI_ModuleAttach__apple_cspdl
__ZN11CSPDLPlugin11makeSessionElRK12cssm_versionjjjRK12cssm_upcalls
__ZN11SSDLSessionC1ElR11CSPDLPluginRK12cssm_versionjjjRK12cssm_upcallsRN8Security15DatabaseManagerER14SSCSPDLSession
__ZN11SSDLSessionC2ElR11CSPDLPluginRK12cssm_versionjjjRK12cssm_upcallsRN8Security15DatabaseManagerER14SSCSPDLSession
__ZN8Security15DLPluginSessionC2ElRNS_10CssmPluginERK12cssm_versionjjjRK12cssm_upcallsRNS_15DatabaseManagerE
__ZN8Security15DatabaseSessionC2ERNS_15DatabaseManagerE
__ZN8Security10CssmClient2DLC2ERKNS0_6ModuleE
__ZN8Security10CssmClient6DLImplC1ERKNS0_6ModuleE
__ZN8Security14SecurityServer13ClientSessionC1ERNS_9AllocatorES3_
__ZN8Security14SecurityServer13ClientSession19registerForAclEditsEPFvPvRS1_jiES2_
__ZN8Security10CssmClient10ObjectImpl9allocatorERNS_9AllocatorE
__ZN8Security15DLPluginSession9constructEv
__ZN18StandardAttachmentILj4E17cssm_spi_dl_funcsE14resolveSymbolsEP19cssm_func_name_addrj
_CSSM_DL_DbOpen
__ZN8Security13MappingHandleIlE11findAndLockI18StandardAttachmentILj4E17cssm_spi_dl_funcsEEERT_li
__ZL11cssm_DbOpenlPKcPK16cssm_net_addressjPK23cssm_access_credentialsPKvPl
__ZThn64_N11SSDLSession6DbOpenEPKcPK16cssm_net_addressjPKN8Security17AccessCredentialsEPKvRl
__ZN11SSDLSession6DbOpenEPKcPK16cssm_net_addressjPKN8Security17AccessCredentialsEPKvRl
__ZN10SSDatabaseC2ERN8Security14SecurityServer13ClientSessionERKNS0_10CssmClient2DLEPKcPK16cssm_net_address
__ZN14SSDatabaseImplC1ERN8Security14SecurityServer13ClientSessionERKNS0_10CssmClient2DLEPKcPK16cssm_net_address
__ZNK8Security10CssmClient6Object4implI14SSDatabaseImplEERT_v
__ZN14SSDatabaseImpl4openERKN8Security14DLDbIdentifierE
__ZN8Security10RefPointerINS_14DLDbIdentifier4ImplEE10setPointerEPS2_
_CSSM_SPI_ModuleLoad__apple_file_dl
__ZN8Security11ModuleNexusI11AppleFileDLEclEv
__ZN8Security11ModuleNexusI11AppleFileDLE4makeEv
__ZN11AppleFileDLC1Ev
__ZN11AppleFileDLC2Ev
__ZN8Security20AppleDatabaseManagerC1EPKNS_22AppleDatabaseTableNameE
__ZN8Security20AppleDatabaseManagerC2EPKNS_22AppleDatabaseTableNameE
_CSSM_SPI_ModuleAttach__apple_file_dl
__ZN11AppleFileDL11makeSessionElRK12cssm_versionjjjRK12cssm_upcalls
__ZN8Security15DLPluginSessionC1ElRNS_10CssmPluginERK12cssm_versionjjjRK12cssm_upcallsRNS_15DatabaseManagerE
__ZN8Security10CssmClient10ObjectImpl5checkEi
__ZN14SSDatabaseImpl11getDbBlobIdEPN8Security17CssmDataContainerE
__ZN8Security10CssmClient8DbCursorC2ERNS0_13DbCursorMakerEjRNS_9AllocatorE
__ZThn48_N8Security10CssmClient6DbImpl11newDbCursorEjRNS_9AllocatorE
__ZN8Security10CssmClient6DbImpl11newDbCursorEjRNS_9AllocatorE
__ZN8Security10CssmClient14DbDbCursorImplC1ERKNS0_2DbEjRNS_9AllocatorE
__ZN8Security10CssmClient12DbCursorImplC2ERKNS0_6ObjectEjRNS_9AllocatorE
__ZN8Security13CssmAutoQueryC2EjRNS_9AllocatorE
__ZNK8Security10CssmClient6Object4implINS0_12DbCursorImplEEERT_v
__ZN8Security10CssmClient14DbDbCursorImpl4nextEPNS0_12DbAttributesEPNS_17CssmDataContainerERNS0_14DbUniqueRecordE
__ZN8Security10CssmClient14DbUniqueRecordC2ERNS0_19DbUniqueRecordMakerE
__ZThn56_N14SSDatabaseImpl17newDbUniqueRecordEv
__ZN14SSDatabaseImpl17newDbUniqueRecordEv
__ZN18SSUniqueRecordImplC1ERK10SSDatabase
__ZN8Security10CssmClient18DbUniqueRecordImplC2ERKNS0_2DbE
_CSSM_DL_PassThrough
__ZL16cssm_PassThrough17cssm_dl_db_handlejPKvPPv
__ZN8Security10DbModifier8hasTableEj
__ZN8Security10CssmClient14DbUniqueRecordcvPP21cssm_db_unique_recordEv
__ZNK8Security10CssmClient6Object4implINS0_18DbUniqueRecordImplEEERT_v
_CSSM_DL_DataGetFirst
__ZL17cssm_DataGetFirst17cssm_dl_db_handlePK10cssm_queryPlP29cssm_db_record_attribute_dataP9cssm_dataPP21cssm_db_unique_record
__ZNK8Security10MetaRecord9dataRangeERKNS_11ReadSectionE
__ZNK8Security11ReadSection14allocCopyRangeERKNS_5RangeERNS_9AllocatorE
__ZThn72_N8Security15DLPluginSession6mallocEm
__ZN8Security15DLPluginSession6mallocEm
__ZN8Security10CssmClient18DbUniqueRecordImpl8activateEv
__ZN8Security10CssmClient14DbDbCursorImplD0Ev
__ZN8Security10CssmClient14DbDbCursorImpl10deactivateEv
_CSSM_DL_DataAbortQuery
__ZL19cssm_DataAbortQuery17cssm_dl_db_handlel
__ZN8Security10CssmClient12DbCursorImplD2Ev
__ZN8Security13CssmAutoQueryD2Ev
__ZN8Security13CssmAutoQuery5clearEv
__ZN8Security9CssmQuery12deleteValuesERNS_9AllocatorE
__ZN8Security10CssmClient10ObjectImplD2Ev
__ZN18SSUniqueRecordImplD0Ev
__ZN8Security10CssmClient18DbUniqueRecordImplD2Ev
__ZN8Security10CssmClient18DbUniqueRecordImpl10deactivateEv
_CSSM_DL_FreeUniqueRecord
__ZL21cssm_FreeUniqueRecord17cssm_dl_db_handleP21cssm_db_unique_record
__ZThn72_N8Security15DLPluginSession4freeEPv
__ZN8Security14SecurityServer13ClientSession8decodeDbERKNS_14DLDbIdentifierEPKNS_17AccessCredentialsERKNS_8CssmDataE
__ZN8Security14SecurityServer25DatabaseAccessCredentialsC1EPKNS_17AccessCredentialsERNS_9AllocatorE
__ZN8Security14SecurityServer25DatabaseAccessCredentialsC2EPKNS_17AccessCredentialsERNS_9AllocatorE
__ZN8Security11DataWalkers6CopierINS_17AccessCredentialsEEC2EPKS2_RNS_9AllocatorE
__ZN6CopyInC2EPKvPFiP9__rpc_xdrzE
__ZN8Security11DataWalkers18DLDbFlatIdentifierC2ERKNS_14DLDbIdentifierE
_copyin
_sec_xdr_sizeof_in
_sec_xdr_arena_init_size_alloc
__Z22xdr_DLDbFlatIdentifierP9__rpc_xdrPN8Security11DataWalkers18DLDbFlatIdentifierE
_sec_xdr_pointer
_sec_x_putlong
_sec_xdr_arena_size_allocator
_sec_xdr_reference
_xdr_CSSM_SUBSERVICE_UID
_sec_x_putbytes
_xdr_CSSM_VERSION
_sec_xdr_charp
_sec_xdr_bytes
_sec_xdrmem_create
_sec_xdrmem_putlong_aligned
_sec_xdrmem_putbytes
__ZN8Security14SecurityServer13ClientSession8activateEv
__ZNK8Security12UnixPlusPlus17StaticForkMonitorclEv
__ZN8Security11ModuleNexusINS_14SecurityServer13ClientSession6GlobalEEclEv
__ZN8Security11ThreadNexusINS_14SecurityServer13ClientSession6ThreadEEclEv
_ucsp_client_decodeDb
__ZN8Security12MachPlusPlus5Error5checkEi
__ZN11SSDLSession12makeDbHandleER10SSDatabase
__ZNSt8_Rb_treeIlSt4pairIKl10SSDatabaseESt10_Select1stIS3_ESt4lessIlESaIS3_EE16_M_insert_uniqueERKS3_
__ZNSt8_Rb_treeIlSt4pairIKl10SSDatabaseESt10_Select1stIS3_ESt4lessIlESaIS3_EE9_M_insertEPSt18_Rb_tree_node_baseSB_RKS3_
__ZNSt8_Rb_treeIlSt4pairIKl10SSDatabaseESt10_Select1stIS3_ESt4lessIlESaIS3_EE14_M_create_nodeERKS3_
__ZN9__gnu_cxx13new_allocatorISt4pairIKl10SSDatabaseEE9constructEPS4_RKS4_
__ZThn16_N8Security12KeychainCore12KeychainImpl15makeCredentialsEv
__ZN8Security12KeychainCore12KeychainImpl18defaultCredentialsEv
__ZN8Security12KeychainCore18DefaultCredentialsclENS_10CssmClient2DbE
__ZN8Security12KeychainCore12KeychainImpl14keychainSchemaEv
__ZN8Security12KeychainCore14KeychainSchemaC2ERKNS_10CssmClient2DbE
__ZN8Security12KeychainCore18KeychainSchemaImplC2ERKNS_10CssmClient2DbE
__ZThn48_N8Security10CssmClient8SSDbImpl11newDbCursorEjRNS_9AllocatorE
__ZN8Security10CssmClient8SSDbImpl11newDbCursorEjRNS_9AllocatorE
__ZN8Security10CssmClient14SSDbCursorImplC1ERKNS0_2DbEjRNS_9AllocatorE
__ZN8Security10CssmClient14DbDbCursorImplC2ERKNS0_2DbEjRNS_9AllocatorE
__ZN8Security10CssmClient12DbAttributesC1ERKNS0_2DbEjRNS_9AllocatorE
__ZThn56_N8Security10CssmClient8SSDbImpl17newDbUniqueRecordEv
__ZN8Security10CssmClient8SSDbImpl17newDbUniqueRecordEv
__ZN8Security10CssmClient20SSDbUniqueRecordImplC1ERKNS0_2DbE
__ZN8Security10CssmClient14SSDbCursorImpl4nextEPNS0_12DbAttributesEPNS_17CssmDataContainerERNS0_14DbUniqueRecordE
__ZN8Security10CssmClient14SSDbCursorImpl4nextEPNS0_12DbAttributesEPNS_17CssmDataContainerERNS0_14DbUniqueRecordEPK23cssm_acces
__ZN8Security25CssmDbRecordAttributeData12deleteValuesERNS_9AllocatorE
__ZN8Security19CssmDbAttributeData12deleteValuesERNS_9AllocatorE
__ZThn64_N11SSDLSession11PassThroughEljPKvPPv
__ZN11SSDLSession11PassThroughEljPKvPPv
__ZN11SSDLSession12findDbHandleEl
__ZNSt8_Rb_treeIlSt4pairIKl10SSDatabaseESt10_Select1stIS3_ESt4lessIlESaIS3_EE4findERS1_
__ZThn64_N11SSDLSession12DataGetFirstElPKN8Security9CssmQueryEP29cssm_db_record_attribute_dataPNS0_8CssmDataERP21cssm_db_unique
__ZN11SSDLSession12DataGetFirstElPKN8Security9CssmQueryEP29cssm_db_record_attribute_dataPNS0_8CssmDataERP21cssm_db_unique_recor
__ZN14SSUniqueRecordC2ERK10SSDatabase
__ZNK8Security10CssmClient6Object4implI18SSUniqueRecordImplEERT_v
__ZN11SSDLSession18makeSSUniqueRecordER14SSUniqueRecord
__ZNSt4pairIKl14SSUniqueRecordEC2ERS0_RKS1_
__ZNSt8_Rb_treeIlSt4pairIKl14SSUniqueRecordESt10_Select1stIS3_ESt4lessIlESaIS3_EE16_M_insert_uniqueERKS3_
__ZNSt8_Rb_treeIlSt4pairIKl14SSUniqueRecordESt10_Select1stIS3_ESt4lessIlESaIS3_EE9_M_insertEPSt18_Rb_tree_node_baseSB_RKS3_
__ZNSt8_Rb_treeIlSt4pairIKl14SSUniqueRecordESt10_Select1stIS3_ESt4lessIlESaIS3_EE14_M_create_nodeERKS3_
__ZN9__gnu_cxx13new_allocatorISt4pairIKl14SSUniqueRecordEE9constructEPS4_RKS4_
__ZNSt4pairIKl14SSUniqueRecordEC2ERKS2_
__ZN11SSDLSession18createUniqueRecordEl
__ZN8Security10CssmClient20SSDbUniqueRecordImplD0Ev
_CSSM_DL_DataGetNext
__ZL16cssm_DataGetNext17cssm_dl_db_handlelP29cssm_db_record_attribute_dataP9cssm_dataPP21cssm_db_unique_record
__ZThn64_N11SSDLSession11DataGetNextEllP29cssm_db_record_attribute_dataPN8Security8CssmDataERP21cssm_db_unique_record
__ZN11SSDLSession11DataGetNextEllP29cssm_db_record_attribute_dataPN8Security8CssmDataERP21cssm_db_unique_record
__ZThn64_N11SSDLSession16FreeUniqueRecordElR21cssm_db_unique_record
__ZN11SSDLSession18killSSUniqueRecordER21cssm_db_unique_record
__ZNSt8_Rb_treeIlSt4pairIKl14SSUniqueRecordESt10_Select1stIS3_ESt4lessIlESaIS3_EE4findERS1_
__ZNSt8_Rb_treeIlSt4pairIKl14SSUniqueRecordESt10_Select1stIS3_ESt4lessIlESaIS3_EE15_M_destroy_nodeEPSt13_Rb_tree_nodeIS3_E
__ZN11SSDLSession16freeUniqueRecordER21cssm_db_unique_record
__ZN8Security13CssmAutoQuery3addEjRK22cssm_db_attribute_infoRKNS_12CssmPolyDataE
__ZN8Security12ArrayBuilderINS_22CssmSelectionPredicateEE3addEv
__ZN8Security12ArrayBuilderINS_22CssmSelectionPredicateEE7reserveEj
__ZN8Security19CssmDbAttributeData3setERK22cssm_db_attribute_infoRKNS_12CssmPolyDataERNS_9AllocatorE
__ZN8Security9Allocator5allocI9cssm_dataEEPT_v
__ZNSt3mapIjS_IjjSt4lessIjESaISt4pairIKjjEEES1_SaIS2_IS3_S6_EEEixERS3_
__ZNSt8_Rb_treeIjSt4pairIKjjESt10_Select1stIS2_ESt4lessIjESaIS2_EEC2ERKS8_
__ZNSt8_Rb_treeIjSt4pairIKjSt3mapIjjSt4lessIjESaIS0_IS1_jEEEESt10_Select1stIS8_ES4_SaIS8_EE16_M_insert_uniqueESt17_Rb_tree_iter
__ZNSt8_Rb_treeIjSt4pairIKjSt3mapIjjSt4lessIjESaIS0_IS1_jEEEESt10_Select1stIS8_ES4_SaIS8_EE16_M_insert_uniqueERKS8_
__ZNSt8_Rb_treeIjSt4pairIKjSt3mapIjjSt4lessIjESaIS0_IS1_jEEEESt10_Select1stIS8_ES4_SaIS8_EE9_M_insertEPSt18_Rb_tree_node_baseSE
__ZNSt8_Rb_treeIjSt4pairIKjSt3mapIjjSt4lessIjESaIS0_IS1_jEEEESt10_Select1stIS8_ES4_SaIS8_EE14_M_create_nodeERKS8_
__ZN9__gnu_cxx13new_allocatorISt4pairIKjSt3mapIjjSt4lessIjESaIS1_IS2_jEEEEE9constructEPS9_RKS9_
__ZNK8Security18TypedMetaAttributeINS_11UInt32ValueEE11createValueERK9cssm_data
__ZN8Security11UInt32ValueC1ERK9cssm_data
__ZN8Security11UInt32ValueC2ERK9cssm_data
__ZNK8Security18TypedMetaAttributeINS_11UInt32ValueEE8evaluateEPKNS_7DbValueERKNS_11ReadSectionEj
__ZNK8Security10BasicValueIjE8evaluateERKS1_j
__ZNSt3mapIjjSt4lessIjESaISt4pairIKjjEEEixERS3_
__ZNSt8_Rb_treeIjSt4pairIKjjESt10_Select1stIS2_ESt4lessIjESaIS2_EE16_M_insert_uniqueESt17_Rb_tree_iteratorIS2_ERKS2_
__ZN8Security11UInt32ValueD0Ev
__ZN8Security29CssmAutoDbRecordAttributeData10invalidateEv
__ZN8Security29CssmAutoDbRecordAttributeInfoC2EjRNS_9AllocatorE
__ZNSt8_Rb_treeIjSt4pairIKjPN8Security29CssmAutoDbRecordAttributeInfoEESt10_Select1stIS5_ESt4lessIjESaIS5_EE16_M_insert_uniqueE
__ZNSt8_Rb_treeIjSt4pairIKjPN8Security29CssmAutoDbRecordAttributeInfoEESt10_Select1stIS5_ESt4lessIjESaIS5_EE9_M_insertEPSt18_Rb
__ZN8Security12ArrayBuilderINS_19CssmDbAttributeInfoEE3addEv
__ZN8Security12ArrayBuilderINS_19CssmDbAttributeInfoEE7reserveEj
__ZN8Security29CssmAutoDbRecordAttributeDataD2Ev
__ZN8Security29CssmAutoDbRecordAttributeData5clearEv
__ZN8Security10CssmClient14SSDbCursorImplD0Ev
__ZN8Security10CssmClient14DbDbCursorImplD2Ev
__ZN8Security10RefPointerINS_12KeychainCore18KeychainSchemaImplEE10setPointerEPS2_
__ZN8Security10RefPointerINS_12KeychainCore18KeychainSchemaImplEE7releaseEv
__ZNK8Security12KeychainCore18KeychainSchemaImpl13hasRecordTypeEj
__ZNKSt8_Rb_treeIjSt4pairIKjSt3mapIjjSt4lessIjESaIS0_IS1_jEEEESt10_Select1stIS8_ES4_SaIS8_EE4findERS1_
__ZN8Security12KeychainCore7Globals19keychainCredentialsEv
__ZNK8Security10CssmClient10AclFactory10unlockCredEv
__ZN8Security11ModuleNexusINS_10CssmClient7StaticsEEclEv
__ZN8Security11ModuleNexusINS_10CssmClient7StaticsEE4makeEv
__ZN8Security10CssmClient7StaticsC2Ev
__ZN8Security15AutoCredentialsC1ERNS_9AllocatorEj
__ZN8Security15AutoCredentials9getSampleEj
__ZN8Security9Allocator5allocINS_10CssmSampleEEEPT_S4_j
__ZN8Security9TypedListC1ERNS_9AllocatorEi
__ZN8Security9TypedListC2ERNS_9AllocatorEi
__ZN8Security11ListElementC1ERKNS_8CssmListE
__ZN8Security9TypedListC1ERNS_9AllocatorEiPNS_11ListElementE
__ZN8Security9TypedListC2ERNS_9AllocatorEiPNS_11ListElementE
__ZN8Security11ListElementC1ERNS_9AllocatorERKNS_8CssmDataE
__ZN8Security11ListElementC2ERNS_9AllocatorERKNS_8CssmDataE
__ZN8Security12CssmAutoDataC2INS_8CssmDataEEERNS_9AllocatorERKT_
__ZN8Security11ListElementC1Ei
__ZN8Security17AccessCredentials3tagEPKc
_CSSM_DL_Authenticate
__ZL17cssm_Authenticate17cssm_dl_db_handlejPK23cssm_access_credentials
__ZThn64_N11SSDLSession12AuthenticateEljRKN8Security17AccessCredentialsE
__ZN11SSDLSession12AuthenticateEljRKN8Security17AccessCredentialsE
__ZN14SSDatabaseImpl12authenticateEjPK23cssm_access_credentials
__ZN14SSDatabaseImpl8dbHandleEv
__ZN8Security14SecurityServer13ClientSession14authenticateDbEjjPKNS_17AccessCredentialsE
__ZN8Security11DataWalkers14enumerateArrayINS0_10SizeWalkerENS_11SampleGroupENS_10CssmSampleEEEvRT_RT0_MS7_FRPT1_vE
__ZN8Security11SampleGroup7samplesEv
__ZN8Security11DataWalkers4walkINS0_10SizeWalkerEEEvRT_RNS_10CssmSampleE
__ZN8Security11DataWalkers4walkINS0_10SizeWalkerEEEPNS_11ListElementERT_RS4_
__ZN8Security11DataWalkers4copyINS_17AccessCredentialsEEEPT_PKS3_Pv
__ZN8Security11DataWalkers4walkINS0_10CopyWalkerEEEPNS_17AccessCredentialsERT_RS4_
__ZN8Security11DataWalkers14enumerateArrayINS0_10CopyWalkerENS_11SampleGroupENS_10CssmSampleEEEvRT_RT0_MS7_FRPT1_vE
__ZN8Security11DataWalkers4walkINS0_10CopyWalkerEEEvRT_RNS_10CssmSampleE
__ZN8Security11DataWalkers9enumerateINS0_10CopyWalkerEEEvRT_RNS_8CssmListE
__ZN8Security11DataWalkers4walkINS0_10CopyWalkerEEEPNS_11ListElementERT_RS4_
__ZN8Security11ListElement4lastEv
__ZNK8Security9TypedList11checkProperEi
__ZNK8Security11ListElement4wordEv
__ZN8Security8CssmList4snipEv
_xdr_CSSM_ACCESS_CREDENTIALS
_xdr_CSSM_BASE_CERTS
_sec_xdr_clip_long
_xdr_CSSM_CERTGROUP
_sec_xdr_array
_xdr_CSSM_SAMPLE
_xdr_CSSM_LIST
_xdr_CSSM_LIST_ELEMENT
_ucsp_client_authenticateDb
__ZN8Security9Allocator5allocI39cssm_applecspdl_db_is_locked_parametersEEPT_v
__ZN14SSDatabaseImpl8isLockedEv
__ZN8Security14SecurityServer13ClientSession8isLockedEj
_ucsp_client_isLocked
_SecKeychainSearchCreateFromAttributes
__ZN8Security12KeychainCore14StorageManager18optionalSearchListEPKvRSt6vectorINS0_8KeychainESaIS5_EE
__ZNSt6vectorIN8Security12KeychainCore8KeychainESaIS2_EE9push_backERKS2_
__ZNSt6vectorIN8Security12KeychainCore8KeychainESaIS2_EE13_M_insert_auxEN9__gnu_cxx17__normal_iteratorIPS2_S4_EERKS2_
__ZNSt12_Vector_baseIN8Security12KeychainCore8KeychainESaIS2_EE11_M_allocateEm
__ZSt24__uninitialized_copy_auxIPN8Security12KeychainCore8KeychainES3_ET0_T_S5_S4_St12__false_type
__ZN9__gnu_cxx13new_allocatorIN8Security12KeychainCore8KeychainEE9constructEPS3_RKS3_
__ZN8Security12KeychainCore8KCCursorC2ERKSt6vectorINS0_8KeychainESaIS3_EEjPK24SecKeychainAttributeListjj
__ZN8Security12KeychainCore12KCCursorImplnwEm
__ZN8Security12KeychainCore12KCCursorImplC1ERKSt6vectorINS0_8KeychainESaIS3_EEjPK24SecKeychainAttributeListjj
__ZN8Security12KeychainCore12KCCursorImplC2ERKSt6vectorINS0_8KeychainESaIS3_EEjPK24SecKeychainAttributeListjj
__ZNSt6vectorIN8Security12KeychainCore8KeychainESaIS2_EEC2ERKS4_
__ZNSt12_Vector_baseIN8Security12KeychainCore8KeychainESaIS2_EEC2EmRKS3_
__ZSt24__uninitialized_copy_auxIN9__gnu_cxx17__normal_iteratorIPKN8Security12KeychainCore8KeychainESt6vectorIS4_SaIS4_EEEEPS4_E
__ZN8Security11SecCFObject17getMutexForObjectEv
__ZNSt6vectorIN8Security12KeychainCore8KeychainESaIS2_EED2Ev
_SecKeychainSearchCopyNext
__ZN8Security12KeychainCore4ItemC1Ev
__ZN8Security12KeychainCore12KCCursorImpl8requiredEP26OpaqueSecKeychainSearchRef
__ZN8Security12KeychainCore12KCCursorImpl4nextERNS0_4ItemE
__ZN8Security10CssmClient8DbCursorC2ERNS0_13DbCursorMakerERK10cssm_queryRNS_9AllocatorE
__ZThn48_N8Security10CssmClient8SSDbImpl11newDbCursorERK10cssm_queryRNS_9AllocatorE
__ZN8Security10CssmClient8SSDbImpl11newDbCursorERK10cssm_queryRNS_9AllocatorE
__ZN8Security10CssmClient14SSDbCursorImplC1ERKNS0_2DbERK10cssm_queryRNS_9AllocatorE
__ZN8Security10CssmClient14DbDbCursorImplC2ERKNS0_2DbERK10cssm_queryRNS_9AllocatorE
__ZN8Security10CssmClient12DbCursorImplC2ERKNS0_6ObjectERK10cssm_queryRNS_9AllocatorE
__ZN8Security13CssmAutoQueryC2ERK10cssm_queryRNS_9AllocatorE
__ZN8Security12KeychainCore12KeychainImpl4itemEjRNS_10CssmClient14DbUniqueRecordE
__ZN8Security12KeychainCore12KeychainImpl14makePrimaryKeyEjRNS_10CssmClient14DbUniqueRecordE
__ZN8Security12KeychainCore12KeychainImpl26gatherPrimaryKeyAttributesERNS_10CssmClient12DbAttributesE
__ZN8Security12KeychainCore12KeychainImpl18primaryKeyInfosForEj
__ZNK8Security12KeychainCore18KeychainSchemaImpl18primaryKeyInfosForEj
__ZNKSt8_Rb_treeIjSt4pairIKjPN8Security29CssmAutoDbRecordAttributeInfoEESt10_Select1stIS5_ESt4lessIjESaIS5_EE4findERS1_
__ZN8Security10CssmClient20SSDbUniqueRecordImpl3getEPNS0_12DbAttributesEPNS_17CssmDataContainerE
__ZN8Security10CssmClient20SSDbUniqueRecordImpl3getEPNS0_12DbAttributesEPNS_17CssmDataContainerEPK23cssm_access_credentials
__ZN8Security10CssmClient18DbUniqueRecordImpl3getEPNS0_12DbAttributesEPNS_17CssmDataContainerE
_CSSM_DL_DataGetFromUniqueRecordId
__ZL30cssm_DataGetFromUniqueRecordId17cssm_dl_db_handlePK21cssm_db_unique_recordP29cssm_db_record_attribute_dataP9cssm_data
__ZThn64_N11SSDLSession25DataGetFromUniqueRecordIdElRK21cssm_db_unique_recordP29cssm_db_record_attribute_dataPN8Security8CssmDa
__ZN11SSDLSession25DataGetFromUniqueRecordIdElRK21cssm_db_unique_recordP29cssm_db_record_attribute_dataPN8Security8CssmDataE
__ZN11SSDLSession18findSSUniqueRecordERK21cssm_db_unique_record
__ZN8Security15DatabaseSession25DataGetFromUniqueRecordIdElRK21cssm_db_unique_recordP29cssm_db_record_attribute_dataPNS_8CssmDa
__ZN8Security13AppleDatabase25dataGetFromUniqueRecordIdERNS_9DbContextERK21cssm_db_unique_recordP29cssm_db_record_attribute_dat
__ZN8Security13AppleDatabase17parseUniqueRecordERK21cssm_db_unique_recordRj
__ZN8Security10DbModifier9getRecordEjRKNS_8RecordIdEP29cssm_db_record_attribute_dataPNS_8CssmDataERNS_9AllocatorE
__ZNK8Security5Table9getRecordERKNS_8RecordIdEP29cssm_db_record_attribute_dataPNS_8CssmDataERNS_9AllocatorE
__ZNK8Security18TypedMetaAttributeINS_9BlobValueEE11unpackValueERKNS_11ReadSectionERjR9cssm_dataRNS_9AllocatorE
__ZN8Security9BlobValueC1ERKNS_11ReadSectionERj
__ZN8Security9BlobValueD1Ev
__ZN8Security12KeychainCore10PrimaryKeyC2ERKNS_10CssmClient12DbAttributesE
__ZN8Security12KeychainCore14PrimaryKeyImplC1ERKNS_10CssmClient12DbAttributesE
__ZN8Security12KeychainCore14PrimaryKeyImplC2ERKNS_10CssmClient12DbAttributesE
__ZN8Security12KeychainCore12KeychainImpl11_lookupItemERKNS0_10PrimaryKeyE
__ZNSt8_Rb_treeIN8Security12KeychainCore10PrimaryKeyESt4pairIKS2_PNS1_8ItemImplEESt10_Select1stIS7_ESt4lessIS2_ESaIS7_EE4findER
__ZN8Security12KeychainCore4ItemC1ERKNS0_8KeychainERKNS0_10PrimaryKeyERKNS_10CssmClient14DbUniqueRecordE
__ZN8Security12KeychainCore4ItemC2ERKNS0_8KeychainERKNS0_10PrimaryKeyERKNS_10CssmClient14DbUniqueRecordE
__ZNK8Security12KeychainCore14PrimaryKeyImpl10recordTypeEv
__ZNK8Security12KeychainCore14PrimaryKeyImpl9getUInt32ERPhRj
__ZN8Security12KeychainCore11Certificate4makeERKNS0_8KeychainERKNS0_10PrimaryKeyERKNS_10CssmClient14DbUniqueRecordE
__ZN8Security12KeychainCore8ItemImplC2ERKNS0_8KeychainERKNS0_10PrimaryKeyERKNS_10CssmClient14DbUniqueRecordE
__ZN8Security12KeychainCore12KeychainImpl7addItemERKNS0_10PrimaryKeyEPNS0_8ItemImplE
__ZNSt8_Rb_treeIN8Security12KeychainCore10PrimaryKeyESt4pairIKS2_PNS1_8ItemImplEESt10_Select1stIS7_ESt4lessIS2_ESaIS7_EE16_M_in
__ZNSt8_Rb_treeIN8Security12KeychainCore10PrimaryKeyESt4pairIKS2_PNS1_8ItemImplEESt10_Select1stIS7_ESt4lessIS2_ESaIS7_EE9_M_ins
__ZNSt8_Rb_treeIN8Security12KeychainCore10PrimaryKeyESt4pairIKS2_PNS1_8ItemImplEESt10_Select1stIS7_ESt4lessIS2_ESaIS7_EE14_M_cr
__ZN9__gnu_cxx13new_allocatorISt4pairIKN8Security12KeychainCore10PrimaryKeyEPNS3_8ItemImplEEE9constructEPS8_RKS8_
__ZN8Security10RefPointerINS_12KeychainCore14PrimaryKeyImplEE7releaseEv
__ZN8Security14SecPointerBaseaSERKS0_
__ZN8Security12KeychainCore12KeychainImpl16getKeychainMutexEv
__ZN8Security12KeychainCore8ItemImpl14dbUniqueRecordEv
__ZN8Security12KeychainCore8ItemImpl7setDataEjPKv
_SecDigestGetData
__ZN8Security10CssmClient6DigestC1ERKNS0_3CSPEj
__ZN8Security10CssmClient7ContextC2ERKNS0_3CSPEj
__ZN8Security10CssmClient6Digest6digestEPKNS_8CssmDataEjRS2_
__ZN8Security10CssmClient6Digest8activateEv
__ZNK8Security10CssmClient6Object4implINS0_7CSPImplEEERT_v
__ZN23StandardAttachmentMakerILj2E18cssm_spi_csp_funcsXadL_Z12CSPNameTableEEE4makeEP6ModuleRK12cssm_versionjjRK17cssm_memory_fu
__ZN18StandardAttachmentILj2E18cssm_spi_csp_funcsEC2EP6ModuleRKSt3mapIPKcjSt4lessIS6_ESaISt4pairIKS6_jEEERK12cssm_versionjjRK17
_CSSM_SPI_ModuleAttach__apple_csp
__ZN8Security11ModuleNexusI14AppleCSPPluginEclEv
__ZN14AppleCSPPlugin11makeSessionElRK12cssm_versionjjjRK12cssm_upcalls
__ZN15AppleCSPSessionC2ElR14AppleCSPPluginRK12cssm_versionjjjRK12cssm_upcalls
__ZN8Security16CSPPluginSessionC2ElRNS_10CssmPluginERK12cssm_versionjjjRK12cssm_upcalls
__ZN8Security16CSPPluginSession9constructEv
__ZN18StandardAttachmentILj2E18cssm_spi_csp_funcsE14resolveSymbolsEP19cssm_func_name_addrj
_CSSM_CSP_CreateDigestContext
__ZN13HandleContext5MakerC2El
__ZN8Security13MappingHandleIlE11findAndLockI18StandardAttachmentILj2E18cssm_spi_csp_funcsEEERT_li
__ZN8Security7Context7Builder4makeEv
__ZN13HandleContext5MakerclEjj
__ZN13HandleContextnwEmRN8Security9AllocatorE
__ZN13HandleContextC2ER18StandardAttachmentILj2E18cssm_spi_csp_funcsEjj
__ZN8Security7ContextC2Ejj
__ZN8Security7Context7Builder4doneERP22cssm_context_attributeRj
__ZN13HandleContext14validateChangeEj
__ZL16cssm_EventNotifyljyPK12cssm_context
__ZN8Security16CSPPluginSession11EventNotifyEjyRKNS_7ContextE
__ZN15AppleCSPSession13contextCreateEyRKN8Security7ContextE
__ZN13HandleContext5MakerD2Ev
_CSSM_DigestData
__ZN8Security13MappingHandleIlE11findAndLockI13HandleContextEERT_li
__ZN13HandleContext7tryLockEv
__ZN8Security13CountingMutex8tryEnterEv
__ZL15cssm_DigestDatalyPK12cssm_contextPK9cssm_datajPS2_
__ZThn64_N8Security20CSPFullPluginSession10DigestDataEyRKNS_7ContextEPKNS_8CssmDataEjRS4_
__ZN8Security20CSPFullPluginSession10DigestDataEyRKNS_7ContextEPKNS_8CssmDataEjRS4_
__ZN8Security20CSPFullPluginSession14DigestDataInitEyRKNS_7ContextE
__ZN8Security20CSPFullPluginSession4initEyjRKNS_7ContextEb
__ZN8Security16CSPPluginSession10getContextINS_20CSPFullPluginSession10CSPContextEEEPT_y
__ZNSt3mapIyPN8Security16CSPPluginSession13PluginContextESt4lessIyESaISt4pairIKyS3_EEEixERS7_
__ZNSt8_Rb_treeIySt4pairIKyPN8Security16CSPPluginSession13PluginContextEESt10_Select1stIS6_ESt4lessIyESaIS6_EE16_M_insert_uniqu
__ZNSt8_Rb_treeIySt4pairIKyPN8Security16CSPPluginSession13PluginContextEESt10_Select1stIS6_ESt4lessIyESaIS6_EE9_M_insertEPSt18_
__ZN15AppleCSPSession12setupContextERPN8Security20CSPFullPluginSession10CSPContextERKNS0_7ContextEb
__ZN15RSA_DSA_Factory5setupER15AppleCSPSessionRPN8Security20CSPFullPluginSession10CSPContextERKNS2_7ContextE
__ZN14MiscAlgFactory5setupER15AppleCSPSessionRPN8Security20CSPFullPluginSession10CSPContextERKNS2_7ContextE
__ZN8Security16CSPPluginSession10setContextEyPNS0_13PluginContextE
__ZN13DigestContext4initERKN8Security7ContextEb
__ZN10SHA1Object10digestInitEv
__ZN8Security20CSPFullPluginSession16DigestDataUpdateEyPKNS_8CssmDataEj
__ZN8Security20CSPFullPluginSession16getStagedContextEyjb
__ZN8Security20CSPFullPluginSession10CSPContext6updateEPKNS_8CssmDataEj
__ZN13DigestContext6updateERKN8Security8CssmDataE
__ZN10SHA1Object12digestUpdateEPKvm
__ZN8Security20CSPFullPluginSession15DigestDataFinalEyRNS_8CssmDataE
__ZN8Security20CSPFullPluginSession10CSPContext5finalERNS_8CssmDataERNS_9AllocatorE
__ZN13DigestContext10outputSizeEbm
__ZNK10SHA1Object17digestSizeInBytesEv
__ZN13DigestContext5finalERN8Security8CssmDataE
__ZN10SHA1Object11digestFinalEPv
__ZN8Security10CssmClient7ContextD2Ev
__ZN8Security10CssmClient7Context10deactivateEv
_CSSM_DeleteContext
__ZN8Security16CSPPluginSession13contextDeleteEyRKNS_7ContextEPNS0_13PluginContextE
__ZN13DigestContextD0Ev
__ZN10SHA1ObjectD0Ev
__ZN15AppleCSPContextD2Ev
__ZN8Security16CSPPluginSession13PluginContextD2Ev
__ZNSt8_Rb_treeIySt4pairIKyPN8Security16CSPPluginSession13PluginContextEESt10_Select1stIS6_ESt4lessIyESaIS6_EE5eraseERS1_
__ZNSt8_Rb_treeIySt4pairIKyPN8Security16CSPPluginSession13PluginContextEESt10_Select1stIS6_ESt4lessIyESaIS6_EE5eraseESt17_Rb_tr
__ZNSt8_Rb_treeIySt4pairIKyPN8Security16CSPPluginSession13PluginContextEESt10_Select1stIS6_ESt4lessIyESaIS6_EE8_M_eraseEPSt13_R
__ZN13HandleContext7destroyEPS_RN8Security9AllocatorE
__ZN13HandleContextD1Ev
__ZN13HandleContextD2Ev
__ZN8Security10CssmClient7CSPImplD0Ev
__ZN8Security10CssmClient14AttachmentImplD2Ev
__ZN8Security10CssmClient14AttachmentImpl10deactivateEv
_CSSM_ModuleDetach
__ZN8Security13MappingHandleIlE11findAndKillI10AttachmentEERT_li
__ZN8Security13MappingHandleIlE5State5eraseERN9__gnu_cxx19_Hashtable_iteratorISt4pairIKlPS1_ElNS3_4hashIlEESt10_Select1stIS8_ES
__ZN9__gnu_cxx9hashtableISt4pairIKlPN8Security13MappingHandleIlEEElNS_4hashIlEESt10_Select1stIS7_ESt8equal_toIlESaIS6_EE5eraseE
__ZN10Attachment6detachEb
__ZN8Security12StaticPlugin6detachEl
_CSSM_SPI_ModuleDetach__apple_csp
__ZN8Security10CssmPlugin12moduleDetachEl
__ZN9__gnu_cxx9hashtableISt4pairIKlPN8Security13PluginSessionEElNS_4hashIlEESt10_Select1stIS6_ESt8equal_toIlESaIS5_EE5eraseERKN
__ZN8Security13PluginSession6detachEv
__ZN15AppleCSPSessionD0Ev
__ZNSt8_Rb_treeIlSt4pairIKlPK9BinaryKeyESt10_Select1stIS5_ESt4lessIlESaIS5_EE8_M_eraseEPSt13_Rb_tree_nodeIS5_E
__ZN8Security16CSPPluginSessionD2Ev
__ZN8Security24CSPAbstractPluginSessionD2Ev
__ZN8Security13PluginSessionD2Ev
__ZN6Module6detachEP10Attachment
__ZN9__gnu_cxx9hashtableISt4pairIKlP10AttachmentElNS_4hashIlEESt10_Select1stIS5_ESt8equal_toIlESaIS4_EE5eraseERS2_
__ZN18StandardAttachmentILj2E18cssm_spi_csp_funcsED0Ev
__ZN10AttachmentD2Ev
__ZN8Security7CFClass12finalizeTypeEPKv
__ZN8Security12KeychainCore8ItemImpl15aboutToDestructEv
__ZN8Security12KeychainCore12KeychainImpl10removeItemERKNS0_10PrimaryKeyEPNS0_8ItemImplE
__ZN8SecurityltINS_12KeychainCore14PrimaryKeyImplEEEbRKNS_10RefPointerIT_EES7_
__ZNSt8_Rb_treeIN8Security12KeychainCore10PrimaryKeyESt4pairIKS2_PNS1_8ItemImplEESt10_Select1stIS7_ESt4lessIS2_ESaIS7_EE15_M_de
__ZN8Security12KeychainCore11CertificateD0Ev
__ZN8Security12KeychainCore8ItemImplD2Ev
__ZN8Security12KeychainCore14PrimaryKeyImplD2Ev
__ZN8Security17CssmDataContainerD2Ev
__ZNSt8auto_ptrIN8Security10CssmClient12DbAttributesEED2Ev
__ZN8Security11SecCFObjectD2Ev
__ZN8Security11SecCFObjectdlEPv
__ZN8Security11SecCFObject15aboutToDestructEv
__ZN8Security12KeychainCore12KCCursorImplD0Ev
__ZN8Security12KeychainCore4ItemC1EPNS0_8ItemImplE
_SecPolicySearchCreate
__ZN8Security12KeychainCore12PolicyCursornwEm
__ZN8Security12KeychainCore12PolicyCursorC1EPK9cssm_dataS4_
__ZN8Security12KeychainCore12PolicyCursorC2EPK9cssm_dataS4_
_SecPolicySearchCopyNext
__ZN8Security12KeychainCore12PolicyCursor8requiredEP21OpaquePolicySearchRef
__ZN8Security12KeychainCore12PolicyCursor4nextERNS_10SecPointerINS0_6PolicyEEE
__ZN8Security11ModuleNexusI8TheOneTPEclEv
__ZN8Security11ModuleNexusI8TheOneTPE4makeEv
__ZN8Security10CssmClient2TPC2ERKNS_4GuidE
__ZN8Security10CssmClient6TPImplC1ERKNS_4GuidE
__ZN8Security12KeychainCore6PolicynwEm
__ZN8Security12KeychainCore6PolicyC1ENS_10CssmClient2TPERKNS_8CssmDataE
__ZN8Security12KeychainCore6PolicyC2ENS_10CssmClient2TPERKNS_8CssmDataE
__ZN8Security14SecPointerBase6assignEPNS_11SecCFObjectE
_SecPolicySetValue
__ZN8Security12KeychainCore6Policy8requiredEP18OpaqueSecPolicyRef
__ZN8Security12KeychainCore6Policy8setValueERKNS_8CssmDataE
__ZNK8Security15CssmManagedDatacvRKNS_8CssmDataEEv
__ZN8SecurityeqERK9cssm_dataS2_
__ZN8Security12KeychainCore12PolicyCursorD0Ev
__ZN8Security13CssmOwnedData4copyIcEEvPKT_m
__ZNK8Security14DLDbIdentifierltERKS0_
__ZNK8Security14DLDbIdentifier4ImplltERKS1_
__ZNK8Security17CssmSubserviceUidltERK19cssm_subservice_uid
__ZNK8Security17CssmSubserviceUideqERK19cssm_subservice_uid
__ZL19getFieldSubjectNormR11DecodedItemjRjRN8Security13CssmOwnedDataE
_getField_normRDN_NSS
__Z23CL_normalizeX509NameNSSR8NSS_NameR11SecNssCoder
__Z18CL_normalizeStringPcRi
__Z21SecNssEncodeItemOdataPKvPK22SecAsn1Template_structRN8Security13CssmOwnedDataE
__Z16SecNssEncodeItemPKvPK22SecAsn1Template_structRN8Security9AllocatorER9cssm_data
_SEC_ASN1Encode
_SEC_ASN1EncoderStart
_sec_asn1e_push_state
_sec_asn1e_init_state_based_on_template
_SEC_ASN1EncoderUpdate
_sec_asn1e_contents_length
_SEC_ASN1LengthLength
_sec_asn1e_encode_item_count
_sec_asn1e_write_length_bytes
_SEC_ASN1EncodeLength
_sec_asn1e_notify_before
_sec_asn1e_encode_item_store
_SecCertificateCopyPublicKey
__ZN8Security12KeychainCore11Certificate9publicKeyEv
__ZN8Security12KeychainCore11Certificate19copyFirstFieldValueERK9cssm_data
__ZN8Security12KeychainCore11Certificate10certHandleEv
_CSSM_CL_CertCache
__ZL14cssm_CertCachelPK9cssm_dataPl
__ZThn64_N18AppleX509CLSession9CertCacheERKN8Security8CssmDataERl
__ZN18AppleX509CLSession9CertCacheERKN8Security8CssmDataERl
_CSSM_CL_CertGetFirstCachedFieldValue
__ZL33cssm_CertGetFirstCachedFieldValuellPK9cssm_dataPlPjPPS_
__ZThn64_N18AppleX509CLSession28CertGetFirstCachedFieldValueElRKN8Security8CssmDataERjRP9cssm_data
__ZN18AppleX509CLSession28CertGetFirstCachedFieldValueElRKN8Security8CssmDataERjRP9cssm_data
__ZL24getField_PublicKeyStructR11DecodedItemjRjRN8Security13CssmOwnedDataE
_tbsGetCheck
__ZNK11DecodedCert14extractCSSMKeyERN8Security9AllocatorE
__Z20CL_extractCSSMKeyNSSRK33cssm_x509_subject_public_key_infoRN8Security9AllocatorEPK11DecodedCert
__Z11CL_oidToAlgRK9cssm_data
_cssmOidToAlg
__ZNK11DecodedCert13inferKeyUsageEv
__Z21clBitStringToKeyUsageRK9cssm_data
__ZN8Security13CssmOwnedData4copyIhEEvPKT_m
__ZN8Security14CssmRemoteData5resetEv
_getGlobalCspHand
__ZN8Security11ModuleNexusI11CSPAttacherEclEv
__ZN8Security11ModuleNexusI11CSPAttacherE4makeEv
__ZN11CSPAttacher10getCspHandEb
_CSSM_QueryKeySizeInBits
__ZL23cssm_QueryKeySizeInBitslyPK12cssm_contextPK8cssm_keyP13cssm_key_size
__ZThn64_N8Security20CSPFullPluginSession18QueryKeySizeInBitsEyPKNS_7ContextEPKNS_7CssmKeyER13cssm_key_size
__ZN8Security20CSPFullPluginSession18QueryKeySizeInBitsEyPKNS_7ContextEPKNS_7CssmKeyER13cssm_key_size
__ZN15AppleCSPSession10getKeySizeERKN8Security7CssmKeyER13cssm_key_size
__ZN15AppleCSPSession12infoProviderERKN8Security7CssmKeyE
__ZN18RSAKeyInfoProvider8providerERKN8Security7CssmKeyER15AppleCSPSession
__ZN18RSAKeyInfoProvider18QueryKeySizeInBitsER13cssm_key_size
_rawCssmKeyToRsa
_RSA_new
_RSA_new_method
_CRYPTO_malloc
__ZL8osMallocm
_RSA_eay_init
_CRYPTO_new_ex_data
_RSAPublicKeyDecode
__ZL23RSAPublicKeyDecodePKCS1R11SecNssCoderP6rsa_stPvm
_cssmDataToBn
_BN_new
_BN_bin2bn
_bn_expand2
_RSA_size
_BN_num_bits
_BN_num_bits_word
__ZN8Security11ModuleNexusI11RSAKeySizesEclEv
_RSA_free
_CRYPTO_add_lock
_CRYPTO_free_ex_data
_RSA_eay_finish
_BN_clear_free
_CRYPTO_free
__ZL6osFreePv
_RSA_free_thread_blinding_ptr
__ZN18RSAKeyInfoProviderD0Ev
__ZN8Security14CssmRemoteData7releaseEv
__ZN8Security14CssmRemoteDataD2Ev
__ZN8Security10CssmClient3KeyC2ERKNS0_3CSPERK8cssm_keyb
__ZN8Security10CssmClient7KeyImplC1ERKNS0_3CSPERK8cssm_keyb
__ZN8Security7CssmKeyC2ERK8cssm_key
__ZN8Security12KeychainCore7KeyItemnwEm
__ZN8Security12KeychainCore7KeyItemC1ERKNS_10CssmClient3KeyE
__ZN8Security12KeychainCore7KeyItemC2ERKNS_10CssmClient3KeyE
__ZNK8Security10CssmClient6Object4implINS0_7KeyImplEEERT_v
__ZN8Security12KeychainCore8ItemImplC2EjjjPKvb
__ZN8Security12KeychainCore11Certificate17releaseFieldValueERK9cssm_dataPS2_
_CSSM_CL_FreeFieldValue
__ZL19cssm_FreeFieldValuelPK9cssm_dataPS_
__ZThn64_N18AppleX509CLSession14FreeFieldValueERKN8Security8CssmDataERS1_
__ZN18AppleX509CLSession14FreeFieldValueERKN8Security8CssmDataERS1_
__ZN11DecodedCert17freeCertFieldDataERKN8Security8CssmDataERNS0_13CssmOwnedDataE
__ZL25freeField_PublicKeyStructRN8Security13CssmOwnedDataE
__Z14CL_freeCSSMKeyP8cssm_keyRN8Security9AllocatorEb
_SecKeyGetCSSMKey
__ZN8Security12KeychainCore7KeyItem8requiredEP15OpaqueSecKeyRef
__ZN8Security12KeychainCore7KeyItem3keyEv
__ZN8Security12KeychainCore6Schema13attributeInfoEj
__ZN8Security19CssmDbAttributeData3setERK22cssm_db_attribute_dataRNS_9AllocatorE
__ZN8Security19CssmDbAttributeData10copyValuesERKS0_RNS_9AllocatorE
__ZN8Security9Allocator5allocINS_8CssmDataEEEPT_j
__ZNK8Security18TypedMetaAttributeINS_9BlobValueEE11createValueERK9cssm_data
__ZN8Security9BlobValueC1ERK9cssm_data
__ZNK8Security18TypedMetaAttributeINS_9BlobValueEE8evaluateEPKNS_7DbValueERKNS_11ReadSectionEj
__ZNK8Security9BlobValue8evaluateERKS0_j
__ZN8Security9BlobValueD0Ev
__ZN8Security12KeychainCore7KeyItemD0Ev
__ZN8Security10CssmClient7KeyImplD0Ev
__ZN8Security10CssmClient7KeyImpl10deactivateEv
_CSSM_FreeKey
__ZL12cssm_FreeKeylPK23cssm_access_credentialsP8cssm_keyi
__ZThn64_N15AppleCSPSession7FreeKeyEPKN8Security17AccessCredentialsERNS0_7CssmKeyEi
__ZN15AppleCSPSession7FreeKeyEPKN8Security17AccessCredentialsERNS0_7CssmKeyEi
__ZN8Security20CSPFullPluginSession7FreeKeyEPKNS_17AccessCredentialsERNS_7CssmKeyEi
__ZN8Security10CssmClient9AclBearerD2Ev
__ZThn64_N11SSDLSession14DataAbortQueryEll
__ZN11SSDLSession14DataAbortQueryEll
_SecTrustCreateWithCertificates
__ZN8Security12KeychainCore5TrustnwEm
__ZN8Security12KeychainCore5TrustC1EPKvS3_
__ZN8Security12KeychainCore5TrustC2EPKvS3_
__ZN8Security12KeychainCore14StorageManager13getSearchListERSt6vectorINS0_8KeychainESaIS3_EE
__ZN8Security14DLDbListCFPref6revertEb
__ZN8Security14DLDbListCFPref10searchListEv
__ZN8Security14DLDbListCFPref21defaultDLDbIdentifierEv
__ZN8Security14DLDbListCFPref19loginDLDbIdentifierEv
__ZN8Security14DLDbListCFPref19LoginDLDbIdentifierEv
__ZNSt6vectorIN8Security14DLDbIdentifierESaIS1_EE9push_backERKS1_
__ZNSt6vectorIN8Security14DLDbIdentifierESaIS1_EE13_M_insert_auxEN9__gnu_cxx17__normal_iteratorIPS1_S3_EERKS1_
__ZNSt12_Vector_baseIN8Security14DLDbIdentifierESaIS1_EE11_M_allocateEm
__ZSt24__uninitialized_copy_auxIPN8Security14DLDbIdentifierES2_ET0_T_S4_S3_St12__false_type
__ZN9__gnu_cxx13new_allocatorIN8Security14DLDbIdentifierEE9constructEPS2_RKS2_
__ZNSt6vectorIN8Security14DLDbIdentifierESaIS1_EEC2ERKS3_
__ZNSt12_Vector_baseIN8Security14DLDbIdentifierESaIS1_EEC2EmRKS2_
__ZSt24__uninitialized_copy_auxIN9__gnu_cxx17__normal_iteratorIPKN8Security14DLDbIdentifierESt6vectorIS3_SaIS3_EEEEPS3_ET0_T_SC
__ZN8Security12KeychainCore15DynamicDLDBList10searchListEv
__ZN8Security12KeychainCore15DynamicDLDBList5_loadEv
__ZN8Security10CssmClient10ComparisonC1ERKNS0_9AttributeEjb
__ZN8Security10CssmClient10ComparisonC2ERKNS0_9AttributeEjb
__ZNK8Security9MDSClient6Common8moduleIDEv
__ZN8Security4GuidC1ERKSs
__ZN8Security4Guid9parseGuidEPKc
__ZN8Security10CssmClient10ModuleImpl17appNotifyCallbackEPFiPK9cssm_guidPvjjjES5_
_CSSM_SPI_ModuleLoad__sd_cspdl
__ZN8Security11ModuleNexusI13SDCSPDLPluginEclEv
__ZN8Security11ModuleNexusI13SDCSPDLPluginE4makeEv
__ZN13SDCSPDLPluginC1Ev
__ZN13SDCSPDLPluginC2Ev
__ZN8Security14SecurityServer13EventListenerC2Ejj
__ZN8Security11ModuleNexusINS_11ThreadNexusINS_14SecurityServer14ThreadNotifierEEEEclEv
__ZN8Security11ThreadNexusINS_14SecurityServer14ThreadNotifierEEclEv
__ZN8Security11ModuleNexusISt4listINS_10RefPointerINS_14SecurityServer13EventListenerEEESaIS5_EEEclEv
__ZNSt4listIN8Security10RefPointerINS0_14SecurityServer13EventListenerEEESaIS4_EE14_M_create_nodeERKS4_
__ZN9__gnu_cxx13new_allocatorIN8Security10RefPointerINS1_14SecurityServer13EventListenerEEEE9constructEPS5_RKS5_
__ZN8Security10RefPointerINS_14SecurityServer13EventListenerEE7releaseEv
__ZN14SDCSPDLSessionC1Ev
__ZNSt6vectorIN8Security10CssmClient6ModuleESaIS2_EE9push_backERKS2_
__ZNSt6vectorIN8Security10CssmClient6ModuleESaIS2_EE13_M_insert_auxEN9__gnu_cxx17__normal_iteratorIPS2_S4_EERKS2_
__ZNSt12_Vector_baseIN8Security10CssmClient6ModuleESaIS2_EE11_M_allocateEm
__ZSt24__uninitialized_copy_auxIPN8Security10CssmClient6ModuleES3_ET0_T_S5_S4_St12__false_type
__ZN9__gnu_cxx13new_allocatorIN8Security10CssmClient6ModuleEE9constructEPS3_RKS3_
__ZN8Security10CssmClient10ComparisonC1ERKNS0_9AttributeEjRKSs
__ZN8Security10CssmClient10ComparisonC2ERKNS0_9AttributeEjRKSs
__ZN8Security10CssmClient5TableINS_9MDSClient2DLEE4findERKNS0_5QueryE
__ZN8Security10CssmClient5TableINS_9MDSClient2DLEE10startQueryERKNS_9CssmQueryEb
__ZN8Security9MDSClient2DLC1Ev
__ZN8Security9MDSClient13PrimaryRecordC2EPKPKc
__ZN8Security10RefPointerINS_9MDSClient2DLEE7releaseEv
__ZN8Security9MDSClient2DLD0Ev
__ZN8Security9MDSClient13PrimaryRecordD2Ev
__ZN8Security10CssmClient6RecordD2Ev
__ZN8Security29CssmAutoDbRecordAttributeDataD1Ev
__ZN8Security10CssmClient5TableINS_9MDSClient6CommonEE8iteratorppEv
__ZN8Security9MDSClient6CommonC1Ev
__ZN8Security10CssmClient9TableBase8Iterator7advanceEPNS0_6RecordE
__ZN8Security9MDSClient9Directory9dlGetNextElR29cssm_db_record_attribute_dataP9cssm_dataRP21cssm_db_unique_record
__ZL15mds_DataGetNext17cssm_dl_db_handlelP29cssm_db_record_attribute_dataP9cssm_dataPP21cssm_db_unique_record
__ZN8Security10RefPointerINS_10CssmClient9TableBase6HandleEE10setPointerEPS3_
__ZN8Security10RefPointerINS_10CssmClient9TableBase3UidEE10setPointerEPS3_
__ZN8Security10RefPointerINS_10CssmClient6RecordEE10setPointerEPS2_
__ZN8Security9MDSClient6CommonD0Ev
__ZN8Security10CssmClient9TableBase8IteratorC2ERKS2_
__ZNSt6vectorIN8Security12KeychainCore8KeychainESaIS2_EE7reserveEm
__ZNSt6vectorIN8Security12KeychainCore8KeychainESaIS2_EE20_M_allocate_and_copyIPS2_EES6_mT_S7_
__ZNSt6vectorIN8Security14DLDbIdentifierESaIS1_EED2Ev
_SecTrustSetAnchorCertificates
__ZN8Security12KeychainCore5Trust8requiredEP17OpaqueSecTrustRef
__ZN8Security12KeychainCore5Trust7anchorsEPK9__CFArray
_SecTrustEvaluate
__ZN8Security12KeychainCore5Trust8evaluateEb
__ZN8Security12KeychainCore5Trust12clearResultsEv
_allowedEVRootsForLeafCertificate
__ZL20_copyFieldDataForOidP9cssm_dataS0_l
__ZL32_oidStringForCertificatePoliciesPK17__CE_CertPolicies
__ZN8Security11ModuleNexusINS_5MutexEE4makeEv
__ZL12_evCAOidDictv
_freeFieldCertPolicies
_verifySetFreeExtension
_freeFieldExtenCommon
_SecTrustKeychainsGetMutex
__ZN8Security11ModuleNexusINS_14RecursiveMutexEEclEv
__ZN8Security11ModuleNexusINS_14RecursiveMutexEE4makeEv
__ZL15systemRootStorev
_potentialEVChainWithCertificates
__ZN8Security12KeychainCore11Certificate20subjectKeyIdentifierEv
_getFieldSubjectKeyId
__ZNK11DecodedItem11GetExtenTopI9cssm_dataS1_EEbjRjRN8Security9AllocatorERKS1_RPT_RPT0_RPK12DecodedExten
_freeFieldSubjectKeyId
__ZN8Security12KeychainCore11Certificate18findBySubjectKeyIDERKSt6vectorINS0_8KeychainESaIS3_EERKNS_8CssmDataE
__ZN8Security12KeychainCore11Certificate21cursorForSubjectKeyIDERKSt6vectorINS0_8KeychainESaIS3_EERKNS_8CssmDataE
__ZNK8Security18TypedMetaAttributeINS_9BlobValueEE9packValueERNS_12WriteSectionERjRK9cssm_data
__ZNK8Security18TypedMetaAttributeINS_9BlobValueEE11createValueERKNS_11ReadSectionERj
__ZNK8Security18TypedMetaAttributeINS_9BlobValueEE8evaluateEPKNS_7DbValueES5_j
__ZN8Security9CssmError7throwMeEi
__ZN8Security9CssmErrorC2Ei
__ZN8Security11CommonErrorC2Ev
__ZNK8Security9CssmError8osStatusEv
_SecKeychainErrFromOSStatus
__ZN8Security9CssmErrorD1Ev
__ZN8Security11CommonErrorD2Ev
__ZN8Security12KeychainCore11Certificate4typeEv
__ZN8Security12KeychainCore8ItemImpl12getAttributeER20SecKeychainAttributePj
__ZN8Security12KeychainCore8ItemImpl16getAttributeFromEPNS_19CssmDbAttributeDataER20SecKeychainAttributePj
__ZN8Security5CFRefIPK9__CFArrayEaSES3_
__ZN8Security10CFToVectorINS_8CssmDataEP23OpaqueSecCertificateRefXadL_Z17cfCertificateDataS3_EEEC2EPK9__CFArray
__ZN8Security9CertGroupC1Ejjj
__ZN8Security10CssmClient20TPBuildVerifyContextC1EjRNS_9AllocatorE
__ZN8Security12KeychainCore5Trust15policySpecifiedEPK9__CFArrayRK9cssm_data
__ZN8Security12KeychainCore5Trust23forceRevocationPoliciesERjRNS_9AllocatorEb
__ZN8Security10CFToVectorINS_9CssmFieldEP18OpaqueSecPolicyRefXadL_Z7cfFieldS3_EEEC2EPK9__CFArray
__Z7cfFieldP18OpaqueSecPolicyRef
__ZN8Security9CFCopyRefIPK9__CFArrayEC2IS3_EERKNS_5CFRefIT_EE
__ZN8Security15TPVerifyContext7anchorsEjP9cssm_data
_CSSM_GetModuleGUIDFromHandle
__ZN8Security13MappingHandleIlE11findAndLockI10AttachmentEERT_li
__ZNSt6vectorI17cssm_dl_db_handleSaIS0_EE9push_backERKS0_
__ZNSt6vectorI17cssm_dl_db_handleSaIS0_EE13_M_insert_auxEN9__gnu_cxx17__normal_iteratorIPS0_S2_EERKS0_
__ZNSt12_Vector_baseI17cssm_dl_db_handleSaIS0_EE11_M_allocateEm
__ZNK8Security10CssmClient6Object4implINS0_6TPImplEEERT_v
__ZN8Security10CssmClient6TPImpl15certGroupVerifyERKNS_9CertGroupERKNS_15TPVerifyContextEPNS_14TPVerifyResultE
__ZN8Security10CssmClient6TPImpl7setupCLEv
__ZN8Security10CssmClient6TPImpl8setupCSPEv
_CSSM_SPI_ModuleLoad__apple_x509_tp
__ZN8Security11ModuleNexusI7AppleTPEclEv
__ZN8Security11ModuleNexusI7AppleTPE4makeEv
__ZN7AppleTPC1Ev
__ZN23StandardAttachmentMakerILj16E17cssm_spi_tp_funcsXadL_Z11TPNameTableEEE4makeEP6ModuleRK12cssm_versionjjRK17cssm_memory_fun
__ZN18StandardAttachmentILj16E17cssm_spi_tp_funcsEC2EP6ModuleRKSt3mapIPKcjSt4lessIS6_ESaISt4pairIKS6_jEEERK12cssm_versionjjRK17
_CSSM_SPI_ModuleAttach__apple_x509_tp
__ZN7AppleTP11makeSessionElRK12cssm_versionjjjRK12cssm_upcalls
__ZN14AppleTPSessionC1ElRN8Security10CssmPluginERK12cssm_versionjjjRK12cssm_upcalls
__ZN14AppleTPSessionC2ElRN8Security10CssmPluginERK12cssm_versionjjjRK12cssm_upcalls
__ZN8Security15TPPluginSession9constructEv
__ZN18StandardAttachmentILj16E17cssm_spi_tp_funcsE14resolveSymbolsEP19cssm_func_name_addrj
_CSSM_TP_CertGroupVerify
__ZN8Security13MappingHandleIlE11findAndLockI18StandardAttachmentILj16E17cssm_spi_tp_funcsEEERT_li
__ZL20cssm_CertGroupVerifylllPK14cssm_certgroupPK22cssm_tp_verify_contextP29cssm_tp_verify_context_result
__ZThn64_N14AppleTPSession15CertGroupVerifyEllRK14cssm_certgroupPK22cssm_tp_verify_contextP29cssm_tp_verify_context_result
__ZN14AppleTPSession15CertGroupVerifyEllRK14cssm_certgroupPK22cssm_tp_verify_contextP29cssm_tp_verify_context_result
__ZN11TPCertGroupC1ERN8Security9AllocatorE12TPGroupOwner
__ZN11TPCertGroupC2ERN8Security9AllocatorE12TPGroupOwner
__ZN11TPCertGroupC1ERK14cssm_certgroupllRN8Security9AllocatorEPKcb12TPGroupOwner
__ZN11TPCertGroupC2ERK14cssm_certgroupllRN8Security9AllocatorEPKcb12TPGroupOwner
__ZN10TPCertInfoC2EllPK9cssm_data10TPItemCopyPKc
__ZN12TPClItemInfoC2EllRK13TPClItemCallsPK9cssm_data10TPItemCopyPKc
__ZN12TPClItemInfo9cacheItemEPK9cssm_data10TPItemCopy
__ZN12TPClItemInfo10fetchFieldEPK9cssm_dataPPS0_
__ZL18getFieldIssuerNormR11DecodedItemjRjRN8Security13CssmOwnedDataE
__ZL17getField_TbsAlgIdR11DecodedItemjRjRN8Security13CssmOwnedDataE
_getField_AlgIdNSS
__ZN8Security13CssmOwnedData6mallocEm
__ZN8Security9Allocator6mallocIhEEPT_m
__Z12CL_copyAlgIdRK30cssm_x509_algorithm_identifierRS_RN8Security9AllocatorE
_freeField_AlgId
__ZN12TPClItemInfo19fetchNotBeforeAfterEv
__ZL18getField_NotBeforeR11DecodedItemjRjRN8Security13CssmOwnedDataE
_getField_TimeNSS
__Z16CL_nssTimeToCssmRK14NSS_TaggedItemR14cssm_x509_timeRN8Security9AllocatorE
_timeStringToCfDate
__ZL17getField_NotAfterR11DecodedItemjRjRN8Security13CssmOwnedDataE
_freeField_Time
__Z15CL_freeCssmTimeP14cssm_x509_timeRN8Security9AllocatorE
__ZN12TPClItemInfo16calculateCurrentEPKc
_compareTimes
_tpCompareCssmData
__ZN11TPCertGroup10appendCertEP10TPCertInfo
__ZN14AppleTPSession22CertGroupConstructPrivEllR11TPCertGroupPK15cssm_dl_db_listPKcjPK9cssm_datajS9_S6_jjS1_RiSA_SA_S1_
__ZN11TPCertGroup11certAtIndexEj
__ZN11TPCertGroup12setAllUnusedEv
__ZN11TPCertGroup14buildCertGroupERK12TPClItemInfoPS_PK15cssm_dl_db_listllPKcjPK9cssm_dataRS_S3_ijSB_S8_jjRiSD_SD_
__ZN10TPCertInfo12isSelfSignedEb
_tp_CompareCerts
__ZN11TPCertGroup22findIssuerForCertOrCrlERK12TPClItemInfoRb
__ZNK12TPClItemInfo16verifyWithIssuerEP10TPCertInfoS1_
_CSSM_CSP_CreateSignatureContext
__ZN8Security7Context7Builder5setupIPK23cssm_access_credentialsEEvT_i
__ZN8Security7Context7Builder5setupIPK8cssm_keyEEvT_i
__ZN8Security7Context7Builder3putI23cssm_access_credentialsEEvjPKT_
__ZN8Security7Context7Builder3putI8cssm_keyEEvjPKT_
__ZN8Security11DataWalkers4walkINS0_10CopyWalkerEEEPNS_7CssmKeyERT_RS4_
_CSSM_CL_CertVerify
__ZL15cssm_CertVerifylyPK9cssm_dataS1_PK10cssm_fieldj
__ZThn64_N18AppleX509CLSession10CertVerifyEyRKN8Security8CssmDataEPS2_PK10cssm_fieldj
__ZN18AppleX509CLSession10CertVerifyEyRKN8Security8CssmDataEPS2_PK10cssm_fieldj
__Z26CL_certCrlDecodeComponentsRKN8Security8CssmDataERNS_13CssmOwnedDataES4_S4_
__ZN18AppleX509CLSession10verifyDataEyRKN8Security8CssmDataES3_
_CSSM_VerifyData
__ZL15cssm_VerifyDatalyPK12cssm_contextPK9cssm_datajjS4_
__ZThn64_N8Security20CSPFullPluginSession10VerifyDataEyRKNS_7ContextEPKNS_8CssmDataEjjRS5_
__ZN8Security20CSPFullPluginSession10VerifyDataEyRKNS_7ContextEPKNS_8CssmDataEjjRS5_
__ZN8Security20CSPFullPluginSession14VerifyDataInitEyRKNS_7ContextE
__ZN16SignatureContext4initERKN8Security7ContextEb
__ZN9RSASigner10signerInitERKN8Security7ContextEb
__ZN9RSASigner14keyFromContextERKN8Security7ContextE
_contextToRsaKey
__ZNK8Security7Context3getINS_7CssmKeyEEERT_ji
__ZN8Security7Context4findEjPK22cssm_context_attributej
_cspValidateIntendedKeyUsage
_cspValidateKeyUsageBits
_cspVerifyKeyTimes
__ZL17cspGetUniformDateRK9cssm_date
_cssmKeyToRsa
_RSA_blinding_off
__ZN8Security20CSPFullPluginSession16VerifyDataUpdateEyPKNS_8CssmDataEj
__ZN16SignatureContext6updateERKN8Security8CssmDataE
__ZN8Security20CSPFullPluginSession15VerifyDataFinalEyRKNS_8CssmDataE
__ZN16SignatureContext5finalERKN8Security8CssmDataE
__ZN9RSASigner6verifyEPKvmS1_m
_generateDigestInfo
_RSA_public_decrypt
_RSA_eay_public_decrypt
_BN_init
_BN_CTX_new
_BN_CTX_init
_BN_MONT_CTX_new
_BN_MONT_CTX_set
_BN_copy
_BN_set_word
_BN_set_bit
_BN_mod_inverse
_BN_CTX_start
_BN_CTX_get
_BN_div
_BN_ucmp
_BN_lshift
_bn_div_words
_bn_mul_words
_BN_sub
_BN_usub
_BN_rshift
_BN_CTX_end
_BN_mul
_BN_add
_BN_uadd
_bn_add_words
_bn_mul_normal
_BN_mod
_BN_sub_word
_BN_free
_BN_mod_exp_mont
_BN_mod_mul_montgomery
_bn_mul_recursive
_bn_cmp_words
_bn_sub_words
_bn_mul_comba8
_BN_from_montgomery
_bn_mul_add_words
_BN_value_one
_BN_is_bit_set
_BN_sqr
_bn_sqr_recursive
_bn_sqr_comba8
_BN_bn2bin
_RSA_padding_check_PKCS1_type_1
_BN_CTX_free
__ZN16SignatureContextD0Ev
__ZN9RSASignerD0Ev
_BN_MONT_CTX_free
_tpDbFindIssuerCert
__ZN8Security12WriteSection4growEm
__ZN8Security9CssmError9cssmErrorERKNS_11CommonErrorEi
__ZN10TPCertInfoD2Ev
__ZN10TPCertInfo16releaseResourcesEv
__ZN12TPClItemInfo16releaseResourcesEv
_CSSM_CL_CertAbortCache
__ZL19cssm_CertAbortCachell
__ZThn64_N18AppleX509CLSession14CertAbortCacheEl
__ZN18AppleX509CLSession14CertAbortCacheEl
__ZN12TPClItemInfoD2Ev
__ZN10TPCrlGroupC1EPK13cssm_crlgroupllRN8Security9AllocatorEPKc12TPGroupOwner
__ZN10TPCrlGroupC2EPK13cssm_crlgroupllRN8Security9AllocatorEPKc12TPGroupOwner
__ZL14checkPolicyOidRK9cssm_dataR8TPPolicy
_tpRevocationPolicyVerify
_tpVerifyCertGroupWithOCSP
__ZN10TPCertInfo18trustSettingsFoundEv
__ZL15tpOcspGetCertIdR10TPCertInfoS0_RP16OCSPClientCertID
__ZL21getField_SerialNumberR11DecodedItemjRjRN8Security13CssmOwnedDataE
__ZL17getFieldIssuerStdR11DecodedItemjRjRN8Security13CssmOwnedDataE
__ZN16OCSPClientCertIDC1ERK9cssm_dataS2_S2_
__ZL13allocCopyDataRK9cssm_dataRS_
__ZN12TPClItemInfo9freeFieldEPK9cssm_dataPS0_
_getFieldAuthInfoAccess
__ZNK11DecodedItem11GetExtenTopI23NSS_AuthorityInfoAccess24__CE_AuthorityInfoAccessEEbjRjRN8Security9AllocatorERK9cssm_dataRPT_
__Z19CL_infoAccessToCssmRK23NSS_AuthorityInfoAccessR24__CE_AuthorityInfoAccessR11SecNssCoderRN8Security9AllocatorE
_NSS_genNameChooser
__Z23CL_nssGeneralNameToCssmR14NSS_TaggedItemR16__CE_GeneralNameR11SecNssCoderRN8Security9AllocatorE
_freeFieldInfoAccess
__Z17CL_freeInfoAccessR24__CE_AuthorityInfoAccessRN8Security9AllocatorE
__Z22CL_freeCssmGeneralNameR16__CE_GeneralNameRN8Security9AllocatorE
_tpOcspCacheLookup
__ZN8Security11ModuleNexusI9OcspCacheEclEv
__ZN8Security11ModuleNexusI9OcspCacheE4makeEv
__ZN9OcspCache6lookupER16OCSPClientCertIDPK9cssm_data
__ZN9OcspCache12scanForStaleEv
__ZN9OcspCache10lookupPrivER16OCSPClientCertIDPK9cssm_dataRj
__ZN11OCSPRequestC1ER10TPCertInfoS1_b
_SecAsn1CoderCreate
__ZN11OCSPRequest6certIDEv
__ZN11OCSPRequest6encodeEv
_ocspdSha1
_SecAsn1EncodeItem
_SEC_ASN1EncodeItem
_sec_asn1e_allocate_item
_PORT_ArenaUnmark
__ZN16OCSPClientCertID6encodeEv
_SecAsn1CoderRelease
__ZN11OCSPRequestD1Ev
__ZN11OCSPRequestD2Ev
__ZN16OCSPClientCertIDD1Ev
__ZN16OCSPClientCertIDD2Ev
__ZN11SecNssCoder10encodeItemEPKvPK22SecAsn1Template_structR9cssm_data
_ocspdFetch
__ZN8Security11ModuleNexusI12ocspdGlobalsEclEv
__ZN8Security11ModuleNexusI12ocspdGlobalsE4makeEv
__ZN12ocspdGlobals10serverPortEv
__ZNK8Security12MachPlusPlus9Bootstrap7lookup2EPKc
_ocsp_client_ocspdFetch
_ocspdArraySize
__ZN12OCSPResponseC1ERK9cssm_datad
__ZN12OCSPResponseC2ERK9cssm_datad
_SecAsn1DecodeData
_SecAsn1Decode
_ocspdCompareCssmData
__ZN12OCSPResponse17calculateValidityEd
_genTimeToCFAbsTime
__ZN14OCSPExtensionsC1EPP17NSS_CertExtension
__ZN14OCSPExtensionsC2EPP17NSS_CertExtension
__ZN16OCSPClientCertID14compareToExistERK9cssm_data
__ZN16OCSPClientCertID14compareToExistERK17SecAsn1OCSPCertID
_tpVerifyOcspResp
__ZN12OCSPResponse14responseStatusEv
__ZN12OCSPResponse14numSignerCertsEv
__ZN12OCSPResponse10signerCertEj
__ZL14tpIsOcspIssuerR15TPVerifyContextR12OCSPResponsePK9cssm_dataP10TPCertInfo12OcspCertTypeS7_PS7_
__ZN10TPCertInfoC1EllPK9cssm_data10TPItemCopyPKc
_tpMallocCopyCssmData
__ZN10TPCertInfo10isIssuerOfERK12TPClItemInfo
_getFieldExtKeyUsage
__ZNK11DecodedItem11GetExtenTopI15NSS_ExtKeyUsage21__CE_ExtendedKeyUsageEEbjRjRN8Security9AllocatorERK9cssm_dataRPT_RPT0_RPK12D
_freeFieldExtKeyUsage
__ZN10TPCertInfoD1Ev
_tpFreeCssmData
__ZN11TPCertGroupD1Ev
__ZN11TPCertGroupD2Ev
_tpOcspCacheAdd
__ZN9OcspCache11addResponseERK9cssm_dataPS1_
__ZN14OcspCacheEntryC2E9cssm_dataPKS0_
__ZN12OCSPResponse17singleResponseForER16OCSPClientCertID
__ZN18OCSPSingleResponseC2EP25SecAsn1OCSPSingleResponse
__ZL17tpApplySingleRespR18OCSPSingleResponseR10TPCertInfojjRb
__ZN18OCSPSingleResponseD1Ev
__ZN18OCSPSingleResponseD2Ev
__ZN14OCSPExtensionsD1Ev
__ZN14OCSPExtensionsD2Ev
__ZN12OCSPResponseD1Ev
__ZN12OCSPResponseD2Ev
_tp_policyVerify
__ZN8Security9Allocator6callocEmj
__ZL19iSignFetchExtensionRN8Security9AllocatorEP10TPCertInfoPK9cssm_dataP14iSignExtenInfo
_getFieldAuthorityKeyId
__ZNK11DecodedItem11GetExtenTopI18NSS_AuthorityKeyId19__CE_AuthorityKeyIDEEbjRjRN8Security9AllocatorERK9cssm_dataRPT_RPT0_RPK12
__Z26CL_nssAuthorityKeyIdToCssmRK18NSS_AuthorityKeyIdR19__CE_AuthorityKeyIDR11SecNssCoderRN8Security9AllocatorE
_getFieldKeyUsage
__ZNK11DecodedItem11GetExtenTopI9cssm_datatEEbjRjRN8Security9AllocatorERKS1_RPT_RPT0_RPK12DecodedExten
__Z20clNssBitStringToCssmR9cssm_data
_getFieldBasicConstraints
__ZNK11DecodedItem11GetExtenTopI20NSS_BasicConstraints21__CE_BasicConstraintsEEbjRjRN8Security9AllocatorERK9cssm_dataRPT_RPT0_R
_getFieldNetscapeCertType
_getFieldSubjAltName
__ZNK11DecodedItem11GetExtenTopI16NSS_GeneralNames17__CE_GeneralNamesEEbjRjRN8Security9AllocatorERK9cssm_dataRPT_RPT0_RPK12Deco
_getFieldQualCertStatements
__ZNK11DecodedItem11GetExtenTopI17NSS_QC_Statements18__CE_QC_StatementsEEbjRjRN8Security9AllocatorERK9cssm_dataRPT_RPT0_RPK12De
_getFieldNameConstraints
__ZNK11DecodedItem11GetExtenTopI19NSS_NameConstraints20__CE_NameConstraintsEEbjRjRN8Security9AllocatorERK9cssm_dataRPT_RPT0_RPK
_getFieldPolicyMappings
__ZNK11DecodedItem11GetExtenTopI18NSS_PolicyMappings19__CE_PolicyMappingsEEbjRjRN8Security9AllocatorERK9cssm_dataRPT_RPT0_RPK12
_getFieldPolicyConstraints
__ZNK11DecodedItem11GetExtenTopI21NSS_PolicyConstraints22__CE_PolicyConstraintsEEbjRjRN8Security9AllocatorERK9cssm_dataRPT_RPT0
_getFieldInhibitAnyPolicy
__ZNK11DecodedItem11GetExtenTopI9cssm_datajEEbjRjRN8Security9AllocatorERKS1_RPT_RPT0_RPK12DecodedExten
_tp_CertGetAlgId
__ZL18getField_CertAlgIdR11DecodedItemjRjRN8Security13CssmOwnedDataE
_tp_CertFreeAlgId
_getFieldUnknownExt
__ZNK12DecodedExten17createTagAndValueERK9cssm_dataRN8Security9AllocatorE
__ZL28iSignVerifyCriticalExtensionP19cssm_x509_extension
_freeFieldUnknownExt
__Z11clDataToIntRK9cssm_datai
__Z24CL_nssGeneralNamesToCssmRK16NSS_GeneralNamesR17__CE_GeneralNamesR11SecNssCoderRN8Security9AllocatorE
__Z11clAllocDataRN8Security9AllocatorER9cssm_datam
__Z16CL_nssNameToCssmRK8NSS_NameR14cssm_x509_nameRN8Security9AllocatorE
__Z15CL_nssRdnToCssmRK7NSS_RDNR13cssm_x509_rdnRN8Security9AllocatorER11SecNssCoder
__ZN10TPCertInfo19hasEmptySubjectNameEv
__ZL11tpVerifyCPERK13iSignCertInfoRK9cssm_datab
_tpToLower
__ZL23tpCompareSubjectAltNameRK14iSignExtenInfoPKcj21SubjAltNameSearchTypebRbS5_
__ZL20tpCompareSubjectNameR10TPCertInfo22SubjSubjNameSearchTypebPKcjRb
__ZL16getField_SubjectR11DecodedItemjRjRN8Security13CssmOwnedDataE
_getField_RDN_NSS
_tpCompareHostNames
_freeField_RDN
__Z15CL_freeX509NameP14cssm_x509_nameRN8Security9AllocatorE
__Z14CL_freeX509RdnP13cssm_x509_rdnRN8Security9AllocatorE
_freeFieldAuthorityKeyId
__Z21CL_freeAuthorityKeyIdR19__CE_AuthorityKeyIDRN8Security9AllocatorE
__Z23CL_freeCssmGeneralNamesP17__CE_GeneralNamesRN8Security9AllocatorE
_freeFieldSimpleExtension
_freeFieldSubjIssuerAltName
_tpVerifyCertGroupWithCrls
__ZN10TPCrlGroupC1ERN8Security9AllocatorE12TPGroupOwner
__ZN11TPCertGroup13encodeIssuersER9cssm_data
_SecItemExport
_SecKeychainItemExport
__ZL21impExpAddToExportRepsPKvP9__CFArrayRjS3_
_SecIdentityGetTypeID
__ZN8Security12KeychainCore12SecExportRep4vendEPKv
_SecCertificateGetTypeID
__ZN9SecExport4Cert9exportRepEjjPK28SecKeyImportExportParametersP8__CFDataPPKc
_SecCertificateCopyData
_impExpPemEncodeExportRep
_cuEnc64WithLines
_encChunk
__ZN9SecExport4CertD0Ev
__ZN8Security12KeychainCore12SecExportRepD2Ev
__ZN8Security10CssmClient6CLImplD0Ev
__ZN10TPCrlGroupD1Ev
__ZN10TPCrlGroupD2Ev
__ZN11TPCertGroup18buildCssmCertGroupEv
_tpCopyCssmData
__ZN11TPCertGroup21buildCssmEvidenceInfoEv
__ZN11TPCertGroup13getReturnCodeEiij
__ZN8Security12KeychainCore5Trust15diagnoseOutcomeEv
__ZN8Security9CFCopyRefIPK9__CFArrayEC2ERKS4_
__ZN8Security12KeychainCore5Trust17evaluateUserTrustERKNS_9CertGroupEPK27CSSM_TP_APPLE_EVIDENCE_INFONS_9CFCopyRefIPK9__CFArrayE
__ZNSt6vectorIN8Security10SecPointerINS0_12KeychainCore11CertificateEEESaIS4_EE6resizeEmS4_
__ZNSt6vectorIN8Security10SecPointerINS0_12KeychainCore11CertificateEEESaIS4_EE14_M_fill_insertEN9__gnu_cxx17__normal_iteratorI
__ZNSt12_Vector_baseIN8Security10SecPointerINS0_12KeychainCore11CertificateEEESaIS4_EE11_M_allocateEm
__ZSt24__uninitialized_copy_auxIPN8Security10SecPointerINS0_12KeychainCore11CertificateEEES5_ET0_T_S7_S6_St12__false_type
__ZSt26__uninitialized_fill_n_auxIPN8Security10SecPointerINS0_12KeychainCore11CertificateEEEmS4_EvT_T0_RKT1_St12__false_type
__ZN8Security11ModuleNexusINS_12KeychainCore10TrustStoreEEclEv
__ZN8Security11ModuleNexusINS_12KeychainCore10TrustStoreEE4makeEv
__ZN8Security12KeychainCore10TrustStoreC1ERNS_9AllocatorE
__ZN8Security12KeychainCore10TrustStoreC2ERNS_9AllocatorE
__ZN8Security12KeychainCore10TrustStore4findEPNS0_11CertificateEPNS0_6PolicyERSt6vectorINS0_8KeychainESaIS7_EE
__ZN8Security12KeychainCore10TrustStore8findItemEPNS0_11CertificateEPNS0_6PolicyERSt6vectorINS0_8KeychainESaIS7_EE
__ZN8Security12KeychainCore13UserTrustItem13makeCertIndexEPNS0_11CertificateERNS_13CssmOwnedDataE
__ZN8Security11makeCFArrayIN9__gnu_cxx17__normal_iteratorIPKNS_10SecPointerINS_12KeychainCore11CertificateEEESt6vectorIS6_SaIS6
__ZL7convertRKN8Security10SecPointerINS_12KeychainCore11CertificateEEE
_extendedValidationResults
__ZN8Security12KeychainCore11Certificate17distinguishedNameEPK9cssm_dataS4_
__ZL18findPrintableFieldRK14cssm_x509_namePK9cssm_dataPj
__ZN8Security5CFRefIPK14__CFDictionaryEaSES3_
__ZN8Security12KeychainCore5Trust32freePreferenceRevocationPoliciesEPK9__CFArrayjRNS_9AllocatorE
__ZN8Security12KeychainCore6PolicyD0Ev
_SecTrustGetResult
__ZN8Security12KeychainCore5Trust13buildEvidenceERPK9__CFArrayRPNS_14TPEvidenceInfoE
_SecTrustCopyExtendedResult
__ZN8Security12KeychainCore5Trust14extendedResultERPK14__CFDictionary
__ZN8Security12KeychainCore5TrustD0Ev
__ZN8Security12KeychainCore5Trust17releaseTPEvidenceERNS_14TPVerifyResultERNS_9AllocatorE
__ZN8Security9CertGroup7destroyERNS_9AllocatorE
__ZNSt6vectorIN8Security10SecPointerINS0_12KeychainCore11CertificateEEESaIS4_EED2Ev
__ZN8Security12KeychainCore12KeychainImpl15aboutToDestructEv
__ZN8Security10CssmClient6DbImpl14dlDbIdentifierEv
__ZNK8Security10CssmClient14AttachmentImpl13subserviceUidEv
__ZThn112_NK8Security10CssmClient9CSPDLImpl14subserviceMaskEv
__ZN8Security12KeychainCore14StorageManager14removeKeychainERKNS_14DLDbIdentifierEPNS0_12KeychainImplE
__ZNSt8_Rb_treeIN8Security14DLDbIdentifierESt4pairIKS1_PNS0_12KeychainCore12KeychainImplEESt10_Select1stIS7_ESt4lessIS1_ESaIS7_
__ZN8Security12KeychainCore12KeychainImplD0Ev
__ZN11EventBufferD0Ev
__ZNSt10_List_baseI9EventItemSaIS0_EED2Ev
__ZNSt10_List_baseI9EventItemSaIS0_EE8_M_clearEv
__ZN8Security12KeychainCore18DefaultCredentialsD2Ev
__ZNSt8_Rb_treeIN8Security12KeychainCore4ItemES2_St9_IdentityIS2_ESt4lessIS2_ESaIS2_EED2Ev
__ZNSt8_Rb_treeIN8Security12KeychainCore4ItemES2_St9_IdentityIS2_ESt4lessIS2_ESaIS2_EE8_M_eraseEPSt13_Rb_tree_nodeIS2_E
__ZN8Security12KeychainCore18KeychainSchemaImplD0Ev
__ZNSt8_Rb_treeIjSt4pairIKjSt3mapIjjSt4lessIjESaIS0_IS1_jEEEESt10_Select1stIS8_ES4_SaIS8_EE8_M_eraseEPSt13_Rb_tree_nodeIS8_E
__ZNSt8_Rb_treeIjSt4pairIKjPN8Security29CssmAutoDbRecordAttributeInfoEESt10_Select1stIS5_ESt4lessIjESaIS5_EE8_M_eraseEPSt13_Rb_
__ZN8Security10CssmClient8SSDbImplD0Ev
__ZN8Security10CssmClient6DbImplD2Ev
__ZN8Security10CssmClient6DbImpl5closeEv
__ZThn112_N8Security10CssmClient11SSCSPDLImplD0Ev
__ZN8Security10CssmClient9CSPDLImplD2Ev
__ZN8Security10CssmClient6DLImplD2Ev
_CSSM_SPI_ModuleDetach__apple_cspdl
__ZN11SSDLSessionD0Ev
__ZNSt8_Rb_treeIlSt4pairIKl14SSUniqueRecordESt10_Select1stIS3_ESt4lessIlESaIS3_EE8_M_eraseEPSt13_Rb_tree_nodeIS3_E
_CSSM_DL_DbClose
__ZL12cssm_DbClose17cssm_dl_db_handle
__ZN8Security18TypedMetaAttributeINS_13TimeDateValueEED0Ev
__ZN8Security18TypedMetaAttributeINS_11SInt32ValueEED0Ev
__ZNSt8_Rb_treeIlSt4pairIKl10SSDatabaseESt10_Select1stIS3_ESt4lessIlESaIS3_EE8_M_eraseEPSt13_Rb_tree_nodeIS3_E
__ZNSt8_Rb_treeIlSt4pairIKl10SSDatabaseESt10_Select1stIS3_ESt4lessIlESaIS3_EE15_M_destroy_nodeEPSt13_Rb_tree_nodeIS3_E
__ZN14SSDatabaseImplD0Ev
__ZN8Security14SecurityServer13ClientSession9releaseDbEj
_ucsp_client_releaseDb
_CSSM_SPI_ModuleDetach__apple_file_dl
__ZN8Security15DLPluginSessionD0Ev
__ZN8Security15DatabaseSessionD2Ev
__ZNSt8_Rb_treeIlSt4pairIKlPN8Security9DbContextEESt10_Select1stIS5_ESt4lessIlESaIS5_EE8_M_eraseEPSt13_Rb_tree_nodeIS5_E
__ZN8Security23DLAbstractPluginSessionD2Ev
__ZN18StandardAttachmentILj4E17cssm_spi_dl_funcsED0Ev
__ZN8Security14SecurityServer13ClientSessionD1Ev
__ZN8Security10CssmClient6DLImplD0Ev
__ZN8Security10CssmClient10ModuleImplD0Ev
__ZN8Security10CssmClient10ModuleImpl10deactivateEv
_CSSM_ModuleUnload
__ZN11CssmManager12unloadModuleERKN8Security4GuidERKNS0_14ModuleCallbackE
__ZN6Module6unloadERKN8Security14ModuleCallbackE
__ZN8Security17ModuleCallbackSet5eraseERKNS_14ModuleCallbackE
__ZNSt8_Rb_treeIN8Security14ModuleCallbackESt4pairIKS1_PNS0_13CountingMutexEESt10_Select1stIS6_ESt4lessIS1_ESaIS6_EE4findERS3_
__ZNSt8_Rb_treeIlSt4pairIKl14SSUniqueRecordESt10_Select1stIS3_ESt4lessIlESaIS3_EED2Ev
__ZNSt8_Rb_treeIlSt4pairIKl10SSDatabaseESt10_Select1stIS3_ESt4lessIlESaIS3_EED2Ev
__ZN8Security15DLPluginSessionD2Ev
__ZN8Security10CssmClient7CSPImplD2Ev
__ZNSt8_Rb_treeIN8Security12KeychainCore10PrimaryKeyESt4pairIKS2_PNS1_8ItemImplEESt10_Select1stIS7_ESt4lessIS2_ESaIS7_EED2Ev
__ZNSt8_Rb_treeIN8Security12KeychainCore10PrimaryKeyESt4pairIKS2_PNS1_8ItemImplEESt10_Select1stIS7_ESt4lessIS2_ESaIS7_EE8_M_era
__ZN8Security10CssmClient6DbImpl23DefaultCredentialsMakerD2Ev
__ZN8Security10CssmClient6TPImplD0Ev
_CSSM_SPI_ModuleDetach__apple_x509_cl
__ZN18AppleX509CLSessionD0Ev
__ZN9LockedMapIl13CLCachedEntryE16removeFirstEntryEv
__ZN9LockedMapIl7CLQueryE16removeFirstEntryEv
__ZN9LockedMapIl7CLQueryED2Ev
__ZN9LockedMapIl13CLCachedEntryED2Ev
__ZN8Security15CLPluginSessionD2Ev
__ZN8Security23CLAbstractPluginSessionD2Ev
__ZN18StandardAttachmentILj8E17cssm_spi_cl_funcsED0Ev
_CSSM_SPI_ModuleDetach__apple_x509_tp
__ZN14AppleTPSessionD0Ev
__ZNSt8_Rb_treeIlSt4pairIKlPK9cssm_dataESt10_Select1stIS5_ESt4lessIlESaIS5_EE8_M_eraseEPSt13_Rb_tree_nodeIS5_E
__ZN8Security15TPPluginSessionD2Ev
__ZN8Security23TPAbstractPluginSessionD2Ev
__ZN18StandardAttachmentILj16E17cssm_spi_tp_funcsED0Ev
__ZNSt8_Rb_treeIN8Security6DbNameESt4pairIKS1_PNS0_8DatabaseEESt10_Select1stIS6_ESt4lessIS1_ESaIS6_EE8_M_eraseEPSt13_Rb_tree_no
__ZN8Security12StaticPlugin6unloadEPK9cssm_guidS3_PFiS3_PvjjjES4_
_CSSM_SPI_ModuleUnload__apple_file_dl
__ZN8Security10CssmPlugin12moduleUnloadERKNS_4GuidES3_RKNS_14ModuleCallbackE
__ZN8Security10CssmPlugin6unloadEv
__ZN8Security12StaticPlugin6unloadEv
__ZNSt8_Rb_treeIN8Security4GuidESt4pairIKS1_P6ModuleESt10_Select1stIS6_ESt4lessIS1_ESaIS6_EE5eraseERS3_
__ZNSt8_Rb_treeIN8Security4GuidESt4pairIKS1_P6ModuleESt10_Select1stIS6_ESt4lessIS1_ESaIS6_EE11upper_boundERS3_
__ZNSt8_Rb_treeIN8Security4GuidESt4pairIKS1_P6ModuleESt10_Select1stIS6_ESt4lessIS1_ESaIS6_EE5eraseESt17_Rb_tree_iteratorIS6_ESE
__ZN6ModuleD0Ev
__ZNSt8_Rb_treeIN8Security14ModuleCallbackESt4pairIKS1_PNS0_13CountingMutexEESt10_Select1stIS6_ESt4lessIS1_ESaIS6_EE8_M_eraseEP
__ZN9__gnu_cxx9hashtableISt4pairIKlP10AttachmentElNS_4hashIlEESt10_Select1stIS5_ESt8equal_toIlESaIS4_EED2Ev
__ZN9__gnu_cxx9hashtableISt4pairIKlP10AttachmentElNS_4hashIlEESt10_Select1stIS5_ESt8equal_toIlESaIS4_EE5clearEv
__ZN12MdsComponentD2Ev
_CSSM_SPI_ModuleUnload__apple_cspdl
__ZN8Security16PerThreadPointerINS_14SecurityServer13ClientSession6ThreadEE10destructorEPv
_SSLCopyPeerTrust
_SecTrustSetParameters
__ZN8Security5CFRefIPK8__CFDataEaSES3_
__ZN8Security10Dictionary16CreateDictionaryEPKcNS0_12UserOrSystemEb
__ZL13pathForDomainPKcN8Security10Dictionary12UserOrSystemERSs
__ZN8Security10Dictionary12initFromFileEPKcb
__ZN8Security10Dictionary14getStringValueEPK10__CFString
__ZN8Security10DictionaryD0Ev
_SSLGetPeerID
_SSLHandshake
_SSLHandshakeProceed
_SSLServiceWriteQueue
_SSLReadRecord
_sslIoRead
_SSLDecodeInt
_tls1DecryptRecord
_NullCrypt
_IncrementUInt64
_SSLAllocBuffer
_SSLProcessProtocolMessage
_SSLProcessHandshakeRecord
_SSLProcessServerHelloDone
_HashSHA1Update
_HashMD5Update
_SSLAdvanceHandshake
_SSLEncodeKeyExchange
_sslGetMaxProtVersion
_SSLEncodeInt
_sslRand
_sslKeyLengthInBytes
_sslRsaEncrypt
_CSSM_CSP_CreateAsymmetricContext
_stAppMalloc
_stAppFree
_CSSM_EncryptData
__ZL16cssm_EncryptDatalyPK12cssm_contextPK9cssm_datajPS2_jPmS5_y
__ZThn64_N8Security20CSPFullPluginSession11EncryptDataEyRKNS_7ContextEPKNS_8CssmDataEjPS4_jRmRS4_y
__ZN8Security20CSPFullPluginSession11EncryptDataEyRKNS_7ContextEPKNS_8CssmDataEjPS4_jRmRS4_y
__ZN8Security20CSPFullPluginSession6WriterC1EPNS_8CssmDataEjS3_
__ZN8Security20CSPFullPluginSession6WriterC2EPNS_8CssmDataEjS3_
__ZN16RSA_CryptContextC2ER15AppleCSPSession
__ZN16RSA_CryptContext4initERKN8Security7ContextEb
__ZN12BlockCryptor5setupEmmbbNS_7BC_ModeEPKN8Security8CssmDataE
__ZN16RSA_CryptContext10outputSizeEbm
__ZN8Security20CSPFullPluginSession6Writer8allocateEmRNS_9AllocatorE
__ZN8Security20CSPFullPluginSession10makeBufferEmRNS_9AllocatorE
__ZN8Security20CSPFullPluginSession10CSPContext6updateEPKNS_8CssmDataEjRNS0_6WriterE
__ZN8Security20CSPFullPluginSession6Writer9nextBlockERPvRm
__ZN12BlockCryptor9inputSizeEm
__ZN12BlockCryptor6updateEPvRmS0_S1_
__ZN8Security20CSPFullPluginSession6Writer3useEm
__ZN8Security20CSPFullPluginSession10CSPContext5finalERNS0_6WriterERNS_9AllocatorE
__ZN12BlockCryptor5finalERN8Security8CssmDataE
__ZN16RSA_CryptContext12encryptBlockEPKvmPvRmb
_RSA_public_encrypt
_RSA_eay_public_encrypt
_RSA_padding_add_PKCS1_type_2
_RAND_bytes
_cspGetRandomBytes
__ZN8Security11ModuleNexusI16YarrowConnectionEclEv
__ZN8Security18DevRandomGenerator6randomEPvm
__ZN8Security11ModuleNexusINS_18DevRandomGenerator8ReadonlyEEclEv
__ZN8Security12UnixPlusPlus8FileDesc4readEPvm
__ZN8Security20CSPFullPluginSession6Writer5closeEv
__ZN16RSA_CryptContextD0Ev
__ZN12BlockCryptorD2Ev
_stFreeCssmData
_ssl3WriteRecord
_sslMalloc
_SSLFreeBuffer
_tls1GenerateMasterSecret
_SSLInternal_PRF
_tlsPHash
_HMAC_Alloc
_HMAC_Hmac
_HMAC_Init
_HMAC_Update
_HMAC_Final
_HMAC_Free
_sslFree
_SSLInitPendingCiphers
_tls1GenerateKeyMaterial
_tls1InitMac
_CCSymmInit
_SSLEncodeChangeCipherSpec
_SSLDisposeCipherSuite
_NullFinish
_tls1FreeMac
_SSLEncodeFinishedMessage
_CloneHashState
_HashSHA1Clone
_HashMD5Clone
_tls1ComputeFinishedMac
_HashMD5Final
_HashSHA1Final
_tls1ComputeMac
_SSLEncodeUInt64
_CCSymmEncryptDecrypt
_sslIoWrite
_SSLCopyPeerCertificates
_sslCopyPeerCertificates
_SSLGetCertificateChainLength
_SecCertificateCreateFromData
_SSLGetCertificate
_SSLGetClientCertificateState
_SSLDisposeContext
_sslDeleteCertificateChain
_sslFreeKey
_CloseHash
_HashSHA1Close
_HashMD5Close
_CCSymmFinish
_sslFreeDnList
_detachFromAll
_sslCleanupSession
_SessionCacheGetLockedInstance
_SSLNewContext
_attachToAll
_attachToModules
_SSLSetProtocolVersionEnabled
_sslIsSessionActive
_SSLSetPeerDomainName
_SSLSetAllowAnonymousCiphers
_SSLSetIOFuncs
_SSLSetConnection
_SSLSetSessionOption
_SSLSetEnableCertVerify
_SecIdentityCopyPreference
__Z29_SecIdentityCopyPossiblePathsPK10__CFString
__Z38_SecIdentityCopyPreferenceMatchingNamePK10__CFStringjPK9__CFArrayPP20OpaqueSecIdentityRef
_SSLGetSessionState
_ssl3FreeMac
_SSLGetPeerDomainNameLength
_SSLGetPeerDomainName
_SSLSetPeerID
_sslBuildCipherSpecArray
_sslAnalyzeCipherSpecs
_SSLGetSessionData
_sslGetSession
_SessionCacheEntryMatchKey
_SSLCopyBuffer
_sslAllocCopy
_SSLRetrieveSessionProtocolVersion
_SSLEncodeClientHello
_SSLEncodeRandom
_sslTime
_SSLInitMessageHashes
_ReadyHash
_HashSHA1Init
_HashMD5Init
_ssl3DecryptRecord
_SSLProcessServerHello
_sslVerifyProtVersion
_FindCipherSpec
_sslVerifySelectedCipher
_SSLReallocBuffer
_SSLProcessCertificate
_sslVerifyCertChain
_sslPubKeyFromCert
_CSSM_CL_CertGetKeyInfo
__ZL19cssm_CertGetKeyInfolPK9cssm_dataPP8cssm_key
__ZThn64_N18AppleX509CLSession14CertGetKeyInfoERKN8Security8CssmDataERP8cssm_key
__ZN18AppleX509CLSession14CertGetKeyInfoERKN8Security8CssmDataERP8cssm_key
_stAppRealloc
__ZN11DecodedCertD1Ev
_ssl3GenerateMasterSecret
_ssl3GenerateKeyMaterial
_ssl3InitMac
_ssl3ComputeFinishedMac
_ssl3CalculateFinishedMessage
_ssl3ComputeMac
_SSLProcessChangeCipherSpec
_SSLVerifyMac
_SSLProcessFinished
_SSLAddSessionData
_sslAddSession
_SSLRead
_SSLWrite
_SSLRetrieveSessionID
_SSLInstallSessionFromData
__ZN8Security12KeychainCore5Trust25revocationPolicySpecifiedEPK9__CFArray
__ZN8Security12KeychainCore5Trust30addSpecifiedRevocationPoliciesERjRNS_9AllocatorE
__ZN8Security12KeychainCore5Trust31addPreferenceRevocationPoliciesERjRNS_9AllocatorE
__ZL13parseRevStylePK10__CFString
__ZN8Security10Dictionary12getBoolValueEPK10__CFString
__ZN8Security11ModuleNexusI14TrustKeychainsEclEv
__ZN8Security11ModuleNexusI14TrustKeychainsE4makeEv
__ZN14TrustKeychainsC2Ev
__ZN14TrustKeychains15rootStoreHandleEv
__ZN14TrustKeychains14systemKcHandleEv
_tp_policyTrustSettingParams
__ZN10TPCertInfo21evaluateTrustSettingsERK9cssm_dataPKcjjPbS5_
_SecTrustSettingsCertHashStrFromData
_SecTrustSettingsEvaluateCert
__ZN8Security10auto_arrayIcE8allocateEm
__ZL24tsGetGlobalTrustSettingsj
__ZN8Security12KeychainCore13TrustSettings19CreateTrustSettingsEjbbRPS1_
_ocspdTrustSettingsRead
_ocsp_client_trustSettingsRead
_SecTrustGetTrustResult
_SecTrustGetCertificateCount
_SecTrustGetCertificateAtIndex
__ZN8Security12MachPlusPlus10CFAutoPort10cfCallbackEP12__CFMachPortPvlS4_
__ZN8Security12MachPlusPlus7MessageC1EPvm
__ZN8Security14SecurityServer16NotificationPort7receiveERKNS_12MachPlusPlus7MessageE
__ZN8Security18SharedMemoryClient11ReadMessageEPvRjRNS_17UnavailableReasonE
__ZN8Security18SharedMemoryClient8ReadDataEPvj
_CalculateCRC
__ZNSt4listIN8Security10RefPointerINS0_14SecurityServer13EventListenerEEESaIS4_EEaSERKS6_
__ZNSt4listIN8Security10RefPointerINS0_14SecurityServer13EventListenerEEESaIS4_EE6insertISt20_List_const_iteratorIS4_EEEvSt14_L
__ZNSt4listIN8Security10RefPointerINS0_14SecurityServer13EventListenerEEESaIS4_EEC2ISt20_List_const_iteratorIS4_EEET_SA_RKS5_
__ZNSt4listIN8Security10RefPointerINS0_14SecurityServer13EventListenerEEESaIS4_EE22_M_initialize_dispatchISt20_List_const_itera
__ZNSt10_List_baseIN8Security10RefPointerINS0_14SecurityServer13EventListenerEEESaIS4_EED2Ev
__ZNSt10_List_baseIN8Security10RefPointerINS0_14SecurityServer13EventListenerEEESaIS4_EE8_M_clearEv
__ZN8Security12KeychainCore12CCallbackMgr7consumeEjjRKNS_8CssmDataE
__ZN8Security19NameValueDictionaryC1ERKNS_8CssmDataE
__ZN8Security19NameValueDictionaryC2ERKNS_8CssmDataE
__ZN8Security19NameValueDictionary12MakeFromDataERKNS_8CssmDataE
__ZN8Security13NameValuePairC2ERKNS_8CssmDataE
__ZN8Security13NameValuePair9CloneDataERKNS_8CssmDataE
__ZNSt6vectorIPN8Security13NameValuePairESaIS2_EE9push_backERKS2_
__ZNSt6vectorIPN8Security13NameValuePairESaIS2_EE13_M_insert_auxEN9__gnu_cxx17__normal_iteratorIPS2_S4_EERKS2_
__ZNSt12_Vector_baseIPN8Security13NameValuePairESaIS2_EE11_M_allocateEm
__ZNK8Security19NameValueDictionary10FindByNameEj
__ZN8Security12KeychainCore8KeychainC1Ev
__ZN8Security12KeychainCore8KeychainC2Ev
__ZN8Security19NameValueDictionary41MakeDLDbIdentifierFromNameValueDictionaryERKS0_
__ZN8Security12KeychainCore10PrimaryKeyC2ERK9cssm_data
__ZN8Security12KeychainCore14PrimaryKeyImplC1ERK9cssm_data
__ZN8Security12KeychainCore14PrimaryKeyImplC2ERK9cssm_data
__ZN8Security17CssmDataContainerC2IhEEPKT_mRNS_9AllocatorE
__ZN8Security12KeychainCore12KeychainImpl4itemERKNS0_10PrimaryKeyE
__ZN8Security12KeychainCore4ItemC1ERKNS0_8KeychainERKNS0_10PrimaryKeyE
__ZN8Security12KeychainCore4ItemC2ERKNS0_8KeychainERKNS0_10PrimaryKeyE
__ZN8Security12KeychainCore8ItemImpl4makeERKNS0_8KeychainERKNS0_10PrimaryKeyE
__ZN8Security12KeychainCore8ItemImplnwEm
__ZN8Security12KeychainCore8ItemImplC2ERKNS0_8KeychainERKNS0_10PrimaryKeyE
__ZN8Security11ModuleNexusI13CallbackMakerEclEv
__ZNSt4listIN8Security12KeychainCore12CallbackInfoESaIS2_EEaSERKS4_
__ZNSt4listIN8Security12KeychainCore12CallbackInfoESaIS2_EE6insertISt20_List_const_iteratorIS2_EEEvSt14_List_iteratorIS2_ET_SA_
__ZNSt4listIN8Security12KeychainCore12CallbackInfoESaIS2_EEC2ISt20_List_const_iteratorIS2_EEET_S8_RKS3_
__ZNSt4listIN8Security12KeychainCore12CallbackInfoESaIS2_EE22_M_initialize_dispatchISt20_List_const_iteratorIS2_EEEvT_S8_St12__
__ZNSt4listIN8Security12KeychainCore12CallbackInfoESaIS2_EE14_M_create_nodeERKS2_
__ZN8Security12KeychainCore12CCallbackMgr12AlertClientsERKSt4listINS0_12CallbackInfoESaIS3_EEjiRKNS0_8KeychainERKNS0_4ItemE
__ZN8Security12KeychainCore8ItemImplD0Ev
__ZN8Security19NameValueDictionaryD1Ev
__ZN8Security19NameValueDictionaryD2Ev
__ZN8Security12MachPlusPlus7MessageD1Ev
__ZN8Security12MachPlusPlus7MessageD2Ev
_CMSDecoderCreate
__ZL25cmsDecoderClassInitializev
__ZL14cmsDecoderInitPKv
_CMSDecoderUpdateMessage
_SecArenaPoolCreate
_SecCmsDecoderCreate
_SecCmsMessageCreate
_SecCmsMessageSetEncodingParams
_SEC_ASN1DecoderSetNotifyProc
_SecCmsDecoderUpdate
_nss_cms_decoder_notify
_SecCmsContentInfoGetContentTypeTag
_SECOID_FindOID
_InitOIDHash
_PL_NewHashTable
_DefaultAllocTable
_PL_HashTableAdd
_SECITEM_Hash
_PL_HashTableRawLookup
_PL_HashTableRawAdd
_DefaultAllocEntry
_secoid_HashNumber
_PL_CompareValues
_DefaultFreeEntry
_DefaultFreeTable
_SECITEM_HashCompare
_SECITEM_ItemsAreEqual
_PL_HashTableLookupConst
_PL_HashTableRawLookupConst
_nss_cms_choose_content_template
_SecCmsContentGetContentInfo
_SEC_ASN1DecoderSetFilterProc
_SecCmsSignedDataDecodeBeforeData
_SecCmsDigestContextStartMultiple
_SecCmsArrayCount
_PORT_Alloc
_SecCmsUtilGetHashObjByAlgID
_SecCspHandleForAlgorithm
__ZN8Security11ModuleNexusI11CssmManagerE4makeEv
__ZN11CssmManagerC1Ev
__ZN11CssmManagerC2Ev
__ZN17AttachmentFactoryC2Ev
__ZNSt3mapIjP15AttachmentMakerSt4lessIjESaISt4pairIKjS1_EEEixERS5_
__ZNSt8_Rb_treeIjSt4pairIKjP15AttachmentMakerESt10_Select1stIS4_ESt4lessIjESaIS4_EE16_M_insert_uniqueESt17_Rb_tree_iteratorIS4_
__ZNSt8_Rb_treeIjSt4pairIKjP15AttachmentMakerESt10_Select1stIS4_ESt4lessIjESaIS4_EE16_M_insert_uniqueERKS4_
__ZNSt8_Rb_treeIjSt4pairIKjP15AttachmentMakerESt10_Select1stIS4_ESt4lessIjESaIS4_EE9_M_insertEPSt18_Rb_tree_node_baseSC_RKS4_
__ZN23StandardAttachmentMakerILj32E17cssm_spi_ac_funcsXadL_Z11ACNameTableEEEC2Ev
__ZNSt8_Rb_treeIPKcSt4pairIKS1_jESt10_Select1stIS4_ESt4lessIS1_ESaIS4_EE16_M_insert_uniqueERKS4_
__ZNSt8_Rb_treeIPKcSt4pairIKS1_jESt10_Select1stIS4_ESt4lessIS1_ESaIS4_EE9_M_insertEPSt18_Rb_tree_node_baseSC_RKS4_
__ZN23StandardAttachmentMakerILj8E17cssm_spi_cl_funcsXadL_Z11CLNameTableEEEC2Ev
__ZN23StandardAttachmentMakerILj2E18cssm_spi_csp_funcsXadL_Z12CSPNameTableEEEC2Ev
__ZN23StandardAttachmentMakerILj4E17cssm_spi_dl_funcsXadL_Z11DLNameTableEEEC2Ev
__ZN23StandardAttachmentMakerILj16E17cssm_spi_tp_funcsXadL_Z11TPNameTableEEEC2Ev
__ZN8Security12ModuleLoaderC1Ev
__ZN8Security12ModuleLoaderC2Ev
__ZNSt8_Rb_treeISsSt4pairIKSsPN8Security6PluginEESt10_Select1stIS5_ESt4lessISsESaIS5_EE16_M_insert_uniqueESt17_Rb_tree_iterator
__ZNSt8_Rb_treeISsSt4pairIKSsPN8Security6PluginEESt10_Select1stIS5_ESt4lessISsESaIS5_EE16_M_insert_uniqueERKS5_
__ZNSt8_Rb_treeISsSt4pairIKSsPN8Security6PluginEESt10_Select1stIS5_ESt4lessISsESaIS5_EE9_M_insertEPSt18_Rb_tree_node_baseSD_RKS
__ZNSt8_Rb_treeISsSt4pairIKSsPN8Security6PluginEESt10_Select1stIS5_ESt4lessISsESaIS5_EE14_M_create_nodeERKS5_
__ZN9__gnu_cxx13new_allocatorISt4pairIKSsPN8Security6PluginEEE9constructEPS6_RKS6_
__ZN8Security11ModuleNexusINS_9MDSClient9DirectoryEE4makeEv
__ZN8Security9MDSClient9DirectoryC1Ev
__ZN8Security9MDSClient9DirectoryC2Ev
__ZN8Security11ModuleNexusI17DefaultAllocatorsE4makeEv
_MDS_Initialize
__ZN8Security10MDSSessionC1EPKNS_4GuidERK17cssm_memory_funcs
__ZN8Security10MDSSessionC2EPKNS_4GuidERK17cssm_memory_funcs
__ZN8Security9MDSModule3getEv
__ZN8Security11ModuleNexusINS_9MDSModuleEEclEv
__ZN8Security11ModuleNexusINS_9MDSModuleEE4makeEv
__ZN8Security9MDSModuleC2Ev
__ZN8Security11ModuleNexusINS_13MappingHandleIlE5StateEE4makeEv
__ZN8Security13MappingHandleIlE5StateC2Ev
__ZN9__gnu_cxx8hash_mapIlPN8Security13MappingHandleIlEENS_4hashIlEESt8equal_toIlESaIS4_EEC2Ev
__ZN9__gnu_cxx9hashtableISt4pairIKlPN8Security13MappingHandleIlEEElNS_4hashIlEESt10_Select1stIS7_ESt8equal_toIlESaIS6_EEC2EmRKS
__ZN9__gnu_cxx9hashtableISt4pairIKlPN8Security13MappingHandleIlEEElNS_4hashIlEESt10_Select1stIS7_ESt8equal_toIlESaIS6_EE21_M_in
__ZNK9__gnu_cxx9hashtableISt4pairIKlPN8Security13MappingHandleIlEEElNS_4hashIlEESt10_Select1stIS7_ESt8equal_toIlESaIS6_EE12_M_n
__ZNSt6vectorIPN9__gnu_cxx15_Hashtable_nodeISt4pairIKlPN8Security13MappingHandleIlEEEEESaISA_EE7reserveEm
__ZNSt12_Vector_baseIPN9__gnu_cxx15_Hashtable_nodeISt4pairIKlPN8Security13MappingHandleIlEEEEESaISA_EE11_M_allocateEm
__ZNSt6vectorIPN9__gnu_cxx15_Hashtable_nodeISt4pairIKlPN8Security13MappingHandleIlEEEEESaISA_EE14_M_fill_insertENS0_17__normal_
__ZL10mds_DbOpenlPKcPK16cssm_net_addressjPK23cssm_access_credentialsPKvPl
__ZN8Security10MDSSession6DbOpenEPKcPK16cssm_net_addressjPKNS_17AccessCredentialsEPKvRl
__ZN8Security11ModuleNexusINS_14SecurityServer13ClientSession6GlobalEE4makeEv
__ZN8Security14SecurityServer13ClientSession6GlobalC2Ev
__ZN8Security15ThreadStoreSlotC2EPFvPvE
__ZN8Security14SecurityServer13ClientSession13findSecuritydEv
__ZNK8Security12MachPlusPlus9Bootstrap6lookupEPKc
_ucsp_client_verifyPrivileged2
__ZNK8Security15ThreadStoreSlotaSEPv
__ZN8Security11ModuleNexusISt3setIPvSt4lessIS2_ESaIS2_EEEclEv
__ZN8Security11ModuleNexusISt3setIPvSt4lessIS2_ESaIS2_EEE4makeEv
_ucsp_client_setup
__ZL10initCommonv
__ZN8Security10MDSSession10dbFullPathEPKcPc
__ZN8Security9MDSModule9getDbPathEPc
_CSSM_SPI_ModuleLoad__apple_csp
__ZN8Security11ModuleNexusI14AppleCSPPluginE4makeEv
__ZN14AppleCSPPluginC1Ev
__ZN14AppleCSPPluginC2Ev
__ZN15CryptKitFactoryC1EPN8Security9AllocatorES2_
__ZN15CryptKitFactoryC2EPN8Security9AllocatorES2_
_initCryptKit
_fallocRegister
__ZN13AscAlgFactoryC1EPN8Security9AllocatorES2_
__ZN13AscAlgFactoryC2EPN8Security9AllocatorES2_
_comMallocRegister
__ZN15RSA_DSA_FactoryC1EPN8Security9AllocatorES2_
__ZN15RSA_DSA_FactoryC2EPN8Security9AllocatorES2_
_CRYPTO_set_mem_functions
_CRYPTO_set_locked_mem_functions
_ERR_load_RSA_strings
_ERR_load_BN_strings
_ERR_load_DSA_strings
__ZN10DH_FactoryC1EPN8Security9AllocatorES2_
__ZN10DH_FactoryC2EPN8Security9AllocatorES2_
_ERR_load_DH_strings
__ZNSt8_Rb_treeIN8Security4GuidESt4pairIKS1_P6ModuleESt10_Select1stIS6_ESt4lessIS1_ESaIS6_EE16_M_insert_uniqueERKS6_
__ZN8Security11ModuleNexusINS_10CssmPlugin10SessionMapEE4makeEv
__ZN8Security10CssmPlugin10SessionMapC2Ev
__ZN9__gnu_cxx8hash_mapIlPN8Security13PluginSessionENS_4hashIlEESt8equal_toIlESaIS3_EEC2Ev
__ZN9__gnu_cxx9hashtableISt4pairIKlPN8Security13PluginSessionEElNS_4hashIlEESt10_Select1stIS6_ESt8equal_toIlESaIS5_EEC2EmRKS8_R
__ZN9__gnu_cxx9hashtableISt4pairIKlPN8Security13PluginSessionEElNS_4hashIlEESt10_Select1stIS6_ESt8equal_toIlESaIS5_EE21_M_initi
__ZNK9__gnu_cxx9hashtableISt4pairIKlPN8Security13PluginSessionEElNS_4hashIlEESt10_Select1stIS6_ESt8equal_toIlESaIS5_EE12_M_next
__ZNSt6vectorIPN9__gnu_cxx15_Hashtable_nodeISt4pairIKlPN8Security13PluginSessionEEEESaIS9_EE7reserveEm
__ZNSt12_Vector_baseIPN9__gnu_cxx15_Hashtable_nodeISt4pairIKlPN8Security13PluginSessionEEEESaIS9_EE11_M_allocateEm
__ZNSt6vectorIPN9__gnu_cxx15_Hashtable_nodeISt4pairIKlPN8Security13PluginSessionEEEESaIS9_EE14_M_fill_insertENS0_17__normal_ite
_CSSM_DigestDataInit
__ZL19cssm_DigestDataInitlyPK12cssm_context
__ZThn64_N8Security20CSPFullPluginSession14DigestDataInitEyRKNS_7ContextE
_SECITEM_AllocItem
_sec_asn1d_parent_allows_EOC
_nss_cms_decoder_update_filter
_nss_cms_decoder_work_data
_SecCmsSignedDataDecodeAfterData
_SecCmsDigestContextFinishMultiple
_PORT_Free
_SEC_ASN1DecoderClearFilterProc
_cms_attr_choose_attr_value_template
_CMSDecoderFinalizeMessage
_SecCmsDecoderFinish
_nss_cms_after_end
_SecCmsSignedDataDecodeAfterEnd
_SecCmsMessageIsEncrypted
_SecCmsContentInfoGetChildContentInfo
_SecCmsMessageContentLevelCount
_SecCmsMessageContentLevel
_SecCmsContentInfoGetContent
_SecCmsSignedDataGetContentInfo
_SecCmsContentInfoGetContentTypeOID
_SecCmsSignedDataSignerInfoCount
_CMSDecoderSetDetachedContent
__ZL24cmsDigestDetachedContentP11_CMSDecoder
_SecCmsSignedDataGetDigestAlgs
_SecCmsDigestContextUpdate
_CSSM_DigestDataUpdate
__ZL21cssm_DigestDataUpdatelyPK9cssm_dataj
__ZThn64_N8Security20CSPFullPluginSession16DigestDataUpdateEyPKNS_8CssmDataEj
_CSSM_QuerySize
__ZL14cssm_QuerySizelyPK12cssm_contextijP20cssm_query_size_data
__ZThn64_N8Security20CSPFullPluginSession9QuerySizeEyRKNS_7ContextEijPNS_13QuerySizeDataE
__ZN8Security20CSPFullPluginSession9QuerySizeEyRKNS_7ContextEijPNS_13QuerySizeDataE
_CSSM_DigestDataFinal
__ZL20cssm_DigestDataFinallyP9cssm_data
__ZThn64_N8Security20CSPFullPluginSession15DigestDataFinalEyRNS_8CssmDataE
_SecCmsSignedDataSetDigests
_SecCmsAlgArrayGetIndexByAlgID
_SECOID_CompareAlgorithmID
_SECITEM_CompareItem
_SECITEM_CopyItem
__ZL18cmsDecoderFinalizePKv
_SecCmsMessageDestroy
_SecCmsContentInfoDestroy
_SecCmsSignedDataDestroy
_SecCmsSignerInfoDestroy
_SecArenaPoolFree
