Security:single module:__mh_dylib_header
Security:single module:_ucsp_client_setup
Security:single module:__Z27__MIG_check__Reply__setup_tP16__Reply__setup_t
Security:single module:__ZN8Security14SecurityServer13ClientSession6GlobalC4Ev
Security:single module:__ZN8Security12MachPlusPlus5Error5checkEi
Security:single module:__ZN8Security12MachPlusPlus4Port13requestNotifyEjij
Security:single module:__ZNSs4_Rep10_M_destroyERKSaIcE
Security:single module:__ZN8Security17ModuleNexusCommon6createEPFPvvE
Security:single module:__ZN8Security5Mutex6unlockEv
Security:single module:__ZN8Security5MutexD1Ev
Security:single module:__ZN8Security5MutexD4Ev
Security:single module:__ZdlPv
Security:single module:__ZN8Security14SecurityServer13ClientSession8activateEv
Security:single module:__ZN8Security14SecurityServer13ClientSession14getSessionInfoERmS2_
Security:single module:_ucsp_client_getSessionInfo
Security:single module:__ZN8Security12MachPlusPlus10MachServer15runServerThreadEb
Security:single module:__ZN8Security5Mutex4lockEv
Security:single module:__Z36__MIG_check__Reply__getSessionInfo_tP25__Reply__getSessionInfo_t
Security:single module:_SessionGetInfo
Security:single module:__ZN8Security12MachPlusPlus10MachServer12processTimerEv
Security:single module:__ZN8Security4Time3nowEv
Security:single module:_ucsp_client_authorizationCreate
Security:single module:__Z41__MIG_check__Reply__authorizationCreate_tP30__Reply__authorizationCreate_t
Security:single module:__ZN8Security14SecurityServer13ClientSession10authCreateEPK20AuthorizationItemSetS4_mRNS0_17AuthorizationBlobE
Security:single module:__ZN20DefaultCssmAllocator4freeEPv
Security:single module:_AuthorizationCreate
Security:single module:__ZN20DefaultCssmAllocator6mallocEm
Security:single module:_AuthorizationMakeExternalForm
Security:single module:__ZN8Security14SecurityServer13ClientSession15authExternalizeERKNS0_17AuthorizationBlobER25AuthorizationExternalForm
Security:single module:_ucsp_client_authorizationExternalize
Security:single module:__Z46__MIG_check__Reply__authorizationExternalize_tP35__Reply__authorizationExternalize_t
Security:single module:_ucsp_client_authorizationInternalize
Security:single module:__Z46__MIG_check__Reply__authorizationInternalize_tP35__Reply__authorizationInternalize_t
Security:single module:__ZN8Security14SecurityServer13ClientSession15authInternalizeERK25AuthorizationExternalFormRNS0_17AuthorizationBlobE
Security:single module:_AuthorizationCreateFromExternalForm
Security:single module:_SessionCreate
Security:single module:__ZN8Security14SecurityServer13ClientSession12setupSessionEmm
Security:single module:_cdsa_notify_server
Security:single module:__Xmach_notify_dead_name
Security:single module:_cdsa_mach_notify_dead_name
Security:single module:__ZN8Security12MachPlusPlus10MachServer26releaseDeferredAllocationsEv
Security:single module:__ZN8Security15ThreadStoreSlotD2Ev
Security:single module:__ZN8Security15ThreadStoreSlotD4Ev
Security:single module:__ZN8Security11CodeSigning13GenericBundleD2Ev
Security:single module:__ZN8Security11CodeSigning13GenericBundleD4Ev
Security:single module:__Znwm
Security:single module:__ZN8Security5MutexC1Eb
Security:single module:__ZN8Security5MutexC4Eb
Security:single module:__ZN8Security14SecurityServer13ClientSession6GlobalC1Ev
Security:single module:__ZN8Security15ThreadStoreSlotC2EPFvPvE
Security:single module:__ZN8Security15ThreadStoreSlotC4EPFvPvE
Security:single module:__ZNK8Security12MachPlusPlus9Bootstrap6lookupEPKc
Security:single module:__ZN8Security12MachPlusPlus11ReceivePortC2EPKcRKNS0_9BootstrapE
Security:single module:__ZN8Security12MachPlusPlus11ReceivePortC4EPKcRKNS0_9BootstrapE
Security:single module:__ZNK8Security12MachPlusPlus9Bootstrap15checkInOptionalEPKc
Security:single module:_ucsp_client_setupNew
Security:single module:__Z30__MIG_check__Reply__setupNew_tP19__Reply__setupNew_t
Security:single module:_ucsp_client_setupSession
Security:single module:__Z34__MIG_check__Reply__setupSession_tP23__Reply__setupSession_t
Security:single module:_ucsp_client_setupThread
Security:single module:__ZNK8Security12MachPlusPlus10MachServer12notifyIfDeadENS0_4PortEb
Security:single module:__Z33__MIG_check__Reply__setupThread_tP22__Reply__setupThread_t
Security:single module:__ZN8Security18DevRandomGenerator6randomEPvm
Security:single module:__ZN8Security12UnixPlusPlus8FileDesc4readEPvm
Security:single module:_AuthorizationCopyRights
Security:single module:__ZN8Security14SecurityServer13ClientSession14authCopyRightsERKNS0_17AuthorizationBlobEPK20AuthorizationItemSetS7_mPPS5_
Security:single module:_ucsp_client_authorizationCopyRights
Security:single module:__ZNK10__cxxabiv120__si_class_type_info12__do_dyncastEiNS_17__class_type_info10__sub_kindEPKS1_PKvS4_S6_RNS1_16__dyncast_resultE
Security:single module:__ZNKSt9type_infoeqERKS_
Security:single module:__ZN8Security10CssmClient7ContextC2ERKNS0_3CSPEm
Security:single module:__ZN8Security10CssmClient7ContextC4ERKNS0_3CSPEm
Security:single module:__ZN8Security10CssmClient10ObjectImplC2ERKNS0_6ObjectE
Security:single module:__ZN8Security10CssmClient10ObjectImplC4ERKNS0_6ObjectE
Security:single module:__ZN8Security10CssmClient10ObjectImpl8addChildEv
Security:single module:__ZN8Security10CssmClient6Digest6digestEPKNS_8CssmDataEmRS2_
Security:single module:__ZN8Security10CssmClient6Digest8activateEv
Security:single module:___dynamic_cast
Security:single module:__ZN8Security10CssmClient14AttachmentImpl8activateEv
Security:single module:_CSSM_CSP_CreateDigestContext
Security:single module:__ZN8Security12HandleObject5State6locateEml
Security:single module:__ZN8Security5Mutex7tryLockEv
Security:single module:__ZN8Security13CountingMutex11finishEnterEv
Security:single module:__ZN8Security7Context7Builder4makeEv
Security:single module:__ZN8Security28CssmMemoryFunctionsAllocator6mallocEm
Security:single module:__ZN8Security28CssmAllocatorMemoryFunctions11relayMallocEmPv
Security:single module:__ZN13HandleContext5MakerclEmm
Security:single module:__ZN8Security12HandleObject5State4makeEPS0_
Security:single module:__ZNSt24__default_alloc_templateILb1ELi0EE8allocateEm
Security:single module:__ZNSt24__default_alloc_templateILb1ELi0EE5_LockC4Ev
Security:single module:__ZNSt24__default_alloc_templateILb1ELi0EE5_LockD4Ev
Security:single module:__ZN8Security7ContextC2Emm
Security:single module:__ZN8Security7ContextC4Emm
Security:single module:__ZN8Security7Context7Builder4doneERP22cssm_context_attributeRm
Security:single module:__ZN13HandleContext14validateChangeEm
Security:single module:__Z16cssm_EventNotifymmyPK12cssm_context
Security:single module:__ZNK10__cxxabiv121__vmi_class_type_info12__do_dyncastEiNS_17__class_type_info10__sub_kindEPKS1_PKvS4_S6_RNS1_16__dyncast_resultE
Security:single module:__ZN8Security16CSPPluginSession11EventNotifyEmyRKNS_7ContextE
Security:single module:__ZN15AppleCSPSession13contextCreateEyRKN8Security7ContextE
Security:single module:__ZN8Security13CountingMutex4exitEv
Security:single module:__ZN8Security28CssmMemoryFunctionsAllocator4freeEPv
Security:single module:__ZN8Security28CssmAllocatorMemoryFunctions9relayFreeEPvS1_
Security:single module:__ZN8Security10CssmClient10ObjectImpl5checkEl
Security:single module:_CSSM_DigestData
Security:single module:__ZN13HandleContext7tryLockEv
Security:single module:__ZN8Security13CountingMutex8tryEnterEv
Security:single module:__Z15cssm_DigestDatamyPK12cssm_contextPK9cssm_datamPS2_
Security:single module:__ZThn40_N8Security20CSPFullPluginSession10DigestDataEyRKNS_7ContextEPKNS_8CssmDataEmRS4_
Security:single module:__ZN8Security20CSPFullPluginSession10DigestDataEyRKNS_7ContextEPKNS_8CssmDataEmRS4_
Security:single module:__ZN8Security20CSPFullPluginSession14DigestDataInitEyRKNS_7ContextE
Security:single module:__ZN8Security20CSPFullPluginSession4initEymRKNS_7ContextEb
Security:single module:__ZN8Security20CSPFullPluginSession14checkOperationEmm
Security:single module:__ZN15AppleCSPSession12setupContextERPN8Security20CSPFullPluginSession10CSPContextERKNS0_7ContextEb
Security:single module:__ZN15RSA_DSA_Factory5setupER15AppleCSPSessionRPN8Security20CSPFullPluginSession10CSPContextERKNS2_7ContextE
Security:single module:__ZN14MiscAlgFactory5setupER15AppleCSPSessionRPN8Security20CSPFullPluginSession10CSPContextERKNS2_7ContextE
Security:single module:__ZN13DigestContext4initERKN8Security7ContextEb
Security:single module:__ZN10SHA1Object10digestInitEv
Security:single module:_shsInit
Security:single module:__ZN8Security20CSPFullPluginSession16DigestDataUpdateEyPKNS_8CssmDataEm
Security:single module:__ZN8Security20CSPFullPluginSession16getStagedContextEymb
Security:single module:__ZN13DigestContext6updateERKN8Security8CssmDataE
Security:single module:__ZN10SHA1Object12digestUpdateEPKvm
Security:single module:__ZN8Security20CSPFullPluginSession15DigestDataFinalEyRNS_8CssmDataE
Security:single module:__ZN8Security20CSPFullPluginSession10CSPContext5finalERNS_8CssmDataERNS_13CssmAllocatorE
Security:single module:__ZN13DigestContext10outputSizeEbm
Security:single module:__ZNK10SHA1Object17digestSizeInBytesEv
Security:single module:__ZN13DigestContext5finalERN8Security8CssmDataE
Security:single module:__ZN10SHA1Object11digestFinalEPv
Security:single module:_shsUpdate
Security:single module:_shsFinal
Security:single module:_shsTransform
Security:single module:__ZN8Security10CssmClient7ContextD2Ev
Security:single module:__ZN8Security10CssmClient7ContextD4Ev
Security:single module:__ZN8Security10CssmClient7Context10deactivateEv
Security:single module:_CSSM_DeleteContext
Security:single module:__ZN8Security16CSPPluginSession13contextDeleteEyRKNS_7ContextEPNS0_13PluginContextE
Security:single module:__ZN15AppleCSPContextD2Ev
Security:single module:__ZN15AppleCSPContextD4Ev
Security:single module:__ZN8Security16CSPPluginSession13PluginContextD2Ev
Security:single module:__ZN8Security16CSPPluginSession13PluginContextD4Ev
Security:single module:__ZNSt24__default_alloc_templateILb1ELi0EE10deallocateEPvm
Security:single module:__ZN13HandleContextD1Ev
Security:single module:__ZN13HandleContextD4Ev
Security:single module:__ZN8Security12HandleObjectD2Ev
Security:single module:__ZN8Security12HandleObjectD4Ev
Security:single module:__ZN8Security12HandleObject5State5eraseEPS0_
Security:single module:__ZN8Security10CssmClient10ObjectImplD2Ev
Security:single module:__ZN8Security10CssmClient10ObjectImplD4Ev
Security:single module:__ZN8Security10CssmClient10ObjectImpl11removeChildEv
Security:single module:__ZN8Security13CssmAllocator8standardEm
Security:single module:__ZN8Security12MachPlusPlus10MachServer16longTermActivityEv
Security:single module:__ZNK8Security12MachPlusPlus9Bootstrap14lookupOptionalEPKc
Security:single module:__ZN8Security12MachPlusPlus11StBootstrapC1ERKNS0_9BootstrapERKNS0_8TaskPortE
Security:single module:__ZN8Security12MachPlusPlus11StBootstrapC4ERKNS0_9BootstrapERKNS0_8TaskPortE
Security:single module:__ZN8Security14SecurityServer13ClientSessionC2ERNS_13CssmAllocatorES3_
Security:single module:__ZN8Security14SecurityServer13ClientSessionC4ERNS_13CssmAllocatorES3_
Security:single module:__ZN8Security11CodeSigning7OSXCode4mainEv
Security:single module:__ZN8Security11CodeSigning7OSXCode7getPathEPK7__CFURL
Security:single module:__ZNSsC1EPKcRKSaIcE
Security:single module:__ZNSsC4EPKcRKSaIcE
Security:single module:__ZNSs12_S_constructIPKcEEPcT_S3_RKSaIcESt20forward_iterator_tag
Security:single module:__ZNSs4_Rep9_S_createEmRKSaIcE
Security:single module:__ZNSt24__default_alloc_templateILb1ELi0EE9_S_refillEm
Security:single module:__ZNSt24__default_alloc_templateILb1ELi0EE14_S_chunk_allocEmRi
Security:single module:__ZNSs12_Alloc_hiderC4EPcRKSaIcE
Security:single module:__ZNK8Security11CodeSigning14ExecutableTool6encodeEv
Security:single module:__ZStplIcSt11char_traitsIcESaIcEESbIT_T0_T1_EPKS3_RKS6_
Security:single module:__ZNSsC4Ev
Security:single module:__ZNSs7reserveEm
Security:single module:__ZNKSs13get_allocatorEv
Security:single module:__ZNSs4_Rep8_M_cloneERKSaIcEm
Security:single module:__ZNKSs7_M_iendEv
Security:single module:__ZNSs7replaceEN9__gnu_cxx17__normal_iteratorIPcSsEES2_PKcS4_
Security:single module:__ZNKSs9_M_ibeginEv
Security:single module:__ZNSs7replaceEmmPKcm
Security:single module:__ZNSs15_M_replace_safeIPKcEERSsN9__gnu_cxx17__normal_iteratorIPcSsEES6_T_S7_
Security:single module:__ZNSs9_M_mutateEmmm
Security:single module:__ZNSs6appendERKSs
Security:single module:__ZNSs15_M_replace_safeIN9__gnu_cxx17__normal_iteratorIPcSsEEEERSsS3_S3_T_S5_
Security:single module:__ZNSs13_S_copy_charsEPcN9__gnu_cxx17__normal_iteratorIS_SsEES2_
Security:single module:__ZNSs6assignERKSs
Security:single module:__ZNSs4_Rep7_M_grabERKSaIcES2_
Security:single module:__ZNK8Security12MachPlusPlus8TaskPort3pidEv
Security:single module:__ZN8Security11CodeSigning7OSXCode6decodeEPKc
Security:single module:_security_ktrace
Security:single module:__ZN8Security12MachPlusPlus17MachRunLoopServerC2EPKcRKNS0_9BootstrapE
Security:single module:__ZN8Security12MachPlusPlus17MachRunLoopServerC4EPKcRKNS0_9BootstrapE
Security:single module:__ZN8Security12MachPlusPlus10MachServerC2EPKcRKNS0_9BootstrapE
Security:single module:__ZN8Security12MachPlusPlus10MachServerC4EPKcRKNS0_9BootstrapE
Security:single module:__ZN8Security12MachPlusPlus11ReceivePortC1EPKcRKNS0_9BootstrapE
Security:single module:__ZN8Security11CodeSigning13GenericBundleC2EPKc
Security:single module:__ZN8Security11CodeSigning13GenericBundleC4EPKc
Security:single module:__ZNK8Security11CodeSigning13GenericBundle6encodeEv
Security:single module:__ZN8Security11CodeSigning13GenericBundleC1EPKc
Security:single module:__ZN8Security5Debug5debugEPKcS2_z
Security:single module:__ZN8Security5Debug6Target3getEv
Security:single module:__ZN8Security5Debug6Target7messageEPKcS3_Pc
Security:single module:__ZNK8Security5Debug6Target8SelectorclEPKc
Security:single module:__ZN8Security12MachPlusPlus17MachRunLoopServer3runEmi
Security:single module:__ZN8Security12MachPlusPlus17MachRunLoopServer10cfCallbackEP12__CFMachPortPvlS4_
Security:single module:__ZN8Security12MachPlusPlus17MachRunLoopServer10oneRequestEP17mach_msg_header_t
Security:single module:__ZN8Security5Debug12makeTypeNameERKSt9type_info
Security:single module:___cxa_demangle
Security:single module:___cxa_dyn_string_init
Security:single module:_cp_demangle_type
Security:single module:_demangling_new
Security:single module:___cxa_dyn_string_new
Security:single module:_result_push
Security:single module:_string_list_new
Security:single module:_demangle_type
Security:single module:_substitution_start
Security:single module:_current_template_arg_list
Security:single module:_demangle_type_ptr
Security:single module:_demangle_class_enum_type
Security:single module:_demangle_name
Security:single module:_demangle_unqualified_name
Security:single module:_demangle_source_name
Security:single module:_demangle_number
Security:single module:_demangle_number_literally
Security:single module:___cxa_dyn_string_append_char
Security:single module:___cxa_dyn_string_resize
Security:single module:___cxa_dyn_string_delete
Security:single module:_demangle_identifier
Security:single module:___cxa_dyn_string_clear
Security:single module:___cxa_dyn_string_insert
Security:single module:_substitution_add
Security:single module:___cxa_dyn_string_substring
Security:single module:_pop_to_template_arg_list
Security:single module:___cxa_dyn_string_insert_char
Security:single module:_result_pop
Security:single module:___cxa_dyn_string_copy
Security:single module:_demangling_delete
Security:single module:_string_list_delete
Security:single module:__ZNK8Security12MachPlusPlus17MachRunLoopServer12notifyIfDeadENS0_4PortE
Security:single module:__ZN8Security12MachPlusPlus17MachRunLoopServer16blockNewRequestsEb
Security:single module:_demangle_builtin_type
Security:single module:___cxa_dyn_string_insert_cstr
Security:single module:__ZN8Security12MachPlusPlus10MachServer15releaseWhenDoneERNS_13CssmAllocatorEPv
Security:single module:__ZN8Security12MachPlusPlus10deallocateEjm
Security:single module:_checkpw_internal
Security:single module:__ZN8Security12MachPlusPlus17MachRunLoopServer20cfInvalidateCallbackEP12__CFMachPortPv
Security:single module:_AuthorizationFree
Security:single module:__ZN8Security14SecurityServer13ClientSession11authReleaseERKNS0_17AuthorizationBlobEm
Security:single module:_ucsp_client_authorizationRelease
Security:single module:__Z42__MIG_check__Reply__authorizationRelease_tP31__Reply__authorizationRelease_t
Security:single module:__Z45__MIG_check__Reply__authorizationCopyRights_tP34__Reply__authorizationCopyRights_t
Security:single module:_AuthorizationCopyInfo
Security:single module:__ZN8Security14SecurityServer13ClientSession12authCopyInfoERKNS0_17AuthorizationBlobEPKcRP20AuthorizationItemSet
Security:single module:_ucsp_client_authorizationCopyInfo
Security:single module:__Z43__MIG_check__Reply__authorizationCopyInfo_tP32__Reply__authorizationCopyInfo_t
Security:single module:__Xmach_notify_no_senders
Security:single module:_cdsa_mach_notify_no_senders
Security:single module:__Xmach_notify_port_deleted
Security:single module:_cdsa_mach_notify_port_deleted
Security:single module:__ZN8Security12MachPlusPlus10MachServer17notifyPortDeletedENS0_4PortE
Security:single module:__ZN8Security10CssmClient7CSPImplC1ERKNS_4GuidE
Security:single module:__ZN8Security10CssmClient7CSPImplC4ERKNS_4GuidE
Security:single module:__ZN8Security10CssmClient14AttachmentImplC2ERKNS_4GuidEm
Security:single module:__ZN8Security10CssmClient14AttachmentImplC4ERKNS_4GuidEm
Security:single module:__ZN8Security10CssmClient8CssmImpl8standardEv
Security:single module:__ZN8Security5MutexC2Eb
Security:single module:__ZN8Security10CssmClient8CssmImpl12StandardCssm3getEv
Security:single module:__ZN8Security10CssmClient8CssmImplC1Eb
Security:single module:__ZN8Security10CssmClient8CssmImplC4Eb
Security:single module:__ZN8Security10CssmClient10ObjectImplC2Ev
Security:single module:__ZN8Security10CssmClient10ObjectImplC4Ev
Security:single module:__ZN8Security10CssmClient8CssmImpl5setupEv
Security:single module:__ZN8Security10CssmClient8CssmImpl10autoModuleERKNS_4GuidE
Security:single module:__ZN8Security10CssmClient10ModuleImplC1ERKNS_4GuidERKNS0_4CssmE
Security:single module:__ZN8Security10CssmClient10ModuleImplC4ERKNS_4GuidERKNS0_4CssmE
Security:single module:__ZN8Security10CssmClient14AttachmentImpl4makeEm
Security:single module:_SecKeychainFindGenericPassword
Security:single module:__ZN8Security12KeychainCore7GlobalsC1Ev
Security:single module:__ZN8Security12KeychainCore7GlobalsC4Ev
Security:single module:__ZN8Security12KeychainCore14StorageManagerC1Ev
Security:single module:__ZN8Security12KeychainCore14StorageManagerC4Ev
Security:single module:__ZN8Security14DLDbListCFPrefC1E20SecPreferencesDomain
Security:single module:__ZN8Security14DLDbListCFPrefC4E20SecPreferencesDomain
Security:single module:__ZN8Security14DLDbListCFPref16loadPropertyListEb
Security:single module:__ZN8Security14DLDbListCFPref18ExpandTildesInPathERKSs
Security:single module:__ZNKSs4findEPKcmm
Security:single module:__ZN8Security14DLDbListCFPref9getPwInfoENS0_10PwInfoTypeE
Security:single module:__ZN8Security16PasswordDBLookupC1Ev
Security:single module:__ZN8Security16PasswordDBLookupC4Ev
Security:single module:__ZN8Security16PasswordDBLookup15lookupInfoOnUIDEj
Security:single module:__ZNSs6assignEPKcm
Security:single module:__ZNSsC1ERKSsmm
Security:single module:__ZNSsC4ERKSsmm
Security:single module:__ZNKSs8_M_checkEm
Security:single module:__ZNKSs7_M_foldEmm
Security:single module:__ZNSs12_S_constructIN9__gnu_cxx17__normal_iteratorIPcSsEEEES2_T_S4_RKSaIcESt20forward_iterator_tag
Security:single module:__ZStplIcSt11char_traitsIcESaIcEESbIT_T0_T1_ERKS6_S8_
Security:single module:__ZNSsC1ERKSs
Security:single module:__ZNSsC4ERKSs
Security:single module:__ZN8Security10CssmClient10AclFactoryC1Ev
Security:single module:__ZN8Security10CssmClient10AclFactoryC4Ev
Security:single module:__ZN8Security12KeychainCore14StorageManager18optionalSearchListEPKvRSt6vectorINS0_8KeychainESaIS5_EE
Security:single module:__ZN8Security12KeychainCore14StorageManager13getSearchListERSt6vectorINS0_8KeychainESaIS3_EE
Security:single module:__ZN8Security14DLDbListCFPref6revertEb
Security:single module:__ZN8Security14DLDbListCFPref10searchListEv
Security:single module:__ZN8Security14DLDbListCFPref31cfDictionaryRefToDLDbIdentifierEPK14__CFDictionary
Security:single module:__ZN8Security4GuidC1EPKc
Security:single module:__ZN8Security4GuidC4EPKc
Security:single module:__ZN8Security17CssmSubserviceUidC1ERK9cssm_guidPK12cssm_versionmm
Security:single module:__ZN8Security17CssmSubserviceUidC4ERK9cssm_guidPK12cssm_versionmm
Security:single module:__ZN8Security6DbNameC1EPKcPK16cssm_net_address
Security:single module:__ZN8Security6DbNameC4EPKcPK16cssm_net_address
Security:single module:__ZN8Security14DLDbListCFPref21defaultDLDbIdentifierEv
Security:single module:__ZN8Security14DLDbListCFPref19loginDLDbIdentifierEv
Security:single module:__ZN8Security14DLDbListCFPref25JaguarLoginDLDbIdentifierEv
Security:single module:__ZN8Security12KeychainCore14StorageManager9_keychainERKNS_14DLDbIdentifierE
Security:single module:__ZN8Security10CssmClient10ModuleImplC1ERKNS_4GuidE
Security:single module:__ZN8Security10CssmClient10ModuleImplC4ERKNS_4GuidE
Security:single module:__ZN8Security10CssmClient11SSCSPDLImplC1ERKNS0_6ModuleE
Security:single module:__ZN8Security10CssmClient11SSCSPDLImplC4ERKNS0_6ModuleE
Security:single module:__ZN8Security10CssmClient9CSPDLImplC2ERKNS0_6ModuleE
Security:single module:__ZN8Security10CssmClient9CSPDLImplC4ERKNS0_6ModuleE
Security:single module:__ZN8Security10CssmClient7CSPImplC2ERKNS0_6ModuleE
Security:single module:__ZN8Security10CssmClient7CSPImplC4ERKNS0_6ModuleE
Security:single module:__ZN8Security10CssmClient14AttachmentImplC2ERKNS0_6ModuleEm
Security:single module:__ZN8Security10CssmClient14AttachmentImplC4ERKNS0_6ModuleEm
Security:single module:__ZN8Security10CssmClient6DLImplC2ERKNS0_6ModuleE
Security:single module:__ZN8Security10CssmClient6DLImplC4ERKNS0_6ModuleE
Security:single module:__ZThn64_N8Security10CssmClient9CSPDLImpl12subserviceIdEm
Security:single module:__ZN8Security10CssmClient9CSPDLImpl12subserviceIdEm
Security:single module:__ZN8Security10CssmClient14AttachmentImpl12subserviceIdEm
Security:single module:__ZThn128_N8Security10CssmClient11SSCSPDLImpl5newDbEPKcPK16cssm_net_address
Security:single module:__ZN8Security10CssmClient11SSCSPDLImpl5newDbEPKcPK16cssm_net_address
Security:single module:__ZN8Security10CssmClient8SSDbImplC1ERKNS0_7SSCSPDLEPKcPK16cssm_net_address
Security:single module:__ZN8Security10CssmClient8SSDbImplC4ERKNS0_7SSCSPDLEPKcPK16cssm_net_address
Security:single module:__ZN8Security10CssmClient6DbImplC2ERKNS0_2DLEPKcPK16cssm_net_address
Security:single module:__ZN8Security10CssmClient6DbImplC4ERKNS0_2DLEPKcPK16cssm_net_address
Security:single module:__ZN8Security12KeychainCore6gTypesEv
Security:single module:__ZN8Security12KeychainCore10SecCFTypesC1Ev
Security:single module:__ZN8Security12KeychainCore10SecCFTypesC4Ev
Security:single module:__ZN8Security12KeychainCore7CFClassC1EPKc
Security:single module:__ZN8Security12KeychainCore7CFClassC4EPKc
Security:single module:__ZN8Security12KeychainCore11SecCFObject8allocateEmm
Security:single module:__ZN8Security12KeychainCore12KeychainImplC1ERKNS_10CssmClient2DbE
Security:single module:__ZN8Security12KeychainCore12KeychainImplC4ERKNS_10CssmClient2DbE
Security:single module:__ZNK8Security17CssmSubserviceUidltERK19cssm_subservice_uid
Security:single module:__ZNK8Security17CssmSubserviceUideqERK19cssm_subservice_uid
Security:single module:__ZNKSs7compareERKSs
Security:single module:__ZN8Security12KeychainCore12KCCursorImplC1ERKSt6vectorINS0_8KeychainESaIS3_EEmPK24SecKeychainAttributeList
Security:single module:__ZN8Security12KeychainCore12KCCursorImplC4ERKSt6vectorINS0_8KeychainESaIS3_EEmPK24SecKeychainAttributeList
Security:single module:__ZN8Security12KeychainCore6Schema13recordTypeForEm
Security:single module:__ZN8Security12KeychainCore6Schema13attributeInfoEm
Security:single module:__ZN8Security13CssmAutoQuery3addEmRK22cssm_db_attribute_infoRKNS_12CssmPolyDataE
Security:single module:__ZN20DefaultCssmAllocator7reallocEPvm
Security:single module:__ZN8Security12KeychainCore4ItemC1Ev
Security:single module:__ZN8Security12KeychainCore4ItemC4Ev
Security:single module:__ZN8Security12KeychainCore12KCCursorImpl4nextERNS0_4ItemE
Security:single module:__ZN8Security10CssmClient12DbAttributesC1Ev
Security:single module:__ZN8Security10CssmClient12DbAttributesC4Ev
Security:single module:__ZThn20_N8Security10CssmClient8SSDbImpl11newDbCursorERK10cssm_queryRNS_13CssmAllocatorE
Security:single module:__ZN8Security10CssmClient8SSDbImpl11newDbCursorERK10cssm_queryRNS_13CssmAllocatorE
Security:single module:__ZN8Security10CssmClient14SSDbCursorImplC1ERKNS0_2DbERK10cssm_queryRNS_13CssmAllocatorE
Security:single module:__ZN8Security10CssmClient14SSDbCursorImplC4ERKNS0_2DbERK10cssm_queryRNS_13CssmAllocatorE
Security:single module:__ZN8Security10CssmClient14DbDbCursorImplC2ERKNS0_2DbERK10cssm_queryRNS_13CssmAllocatorE
Security:single module:__ZN8Security10CssmClient14DbDbCursorImplC4ERKNS0_2DbERK10cssm_queryRNS_13CssmAllocatorE
Security:single module:__ZN8Security10CssmClient12DbCursorImplC2ERKNS0_6ObjectERK10cssm_queryRNS_13CssmAllocatorE
Security:single module:__ZN8Security10CssmClient12DbCursorImplC4ERKNS0_6ObjectERK10cssm_queryRNS_13CssmAllocatorE
Security:single module:__ZN8Security13CssmAutoQueryC2ERK10cssm_queryRNS_13CssmAllocatorE
Security:single module:__ZN8Security13CssmAutoQueryC4ERK10cssm_queryRNS_13CssmAllocatorE
Security:single module:__ZN8Security10CssmClient14SSDbCursorImpl4nextEPNS0_12DbAttributesEPNS_17CssmDataContainerERNS0_14DbUniqueRecordE
Security:single module:__ZN8Security10CssmClient14SSDbCursorImpl4nextEPNS0_12DbAttributesEPNS_17CssmDataContainerERNS0_14DbUniqueRecordEPK23cssm_access_credentials
Security:single module:__ZN8Security10CssmClient14DbDbCursorImpl4nextEPNS0_12DbAttributesEPNS_17CssmDataContainerERNS0_14DbUniqueRecordE
Security:single module:__ZThn24_N8Security10CssmClient8SSDbImpl17newDbUniqueRecordEv
Security:single module:__ZN8Security10CssmClient8SSDbImpl17newDbUniqueRecordEv
Security:single module:__ZN8Security10CssmClient20SSDbUniqueRecordImplC1ERKNS0_2DbE
Security:single module:__ZN8Security10CssmClient20SSDbUniqueRecordImplC4ERKNS0_2DbE
Security:single module:__ZN8Security10CssmClient18DbUniqueRecordImplC2ERKNS0_2DbE
Security:single module:__ZN8Security10CssmClient18DbUniqueRecordImplC4ERKNS0_2DbE
Security:single module:__ZN8Security10CssmClient6DbImpl8activateEv
Security:single module:__ZN8Security10CssmClient8SSDbImpl4openEv
Security:single module:__ZN8Security10CssmClient6DbImpl4openEv
Security:single module:__ZNK8Security10CssmClient14AttachmentImpl6moduleEv
Security:single module:__ZN8Security10CssmClient10ModuleImpl8activateEv
Security:single module:__ZNK8Security10CssmClient10ModuleImpl7sessionEv
Security:single module:__ZN8Security10CssmClient8CssmImpl8activateEv
Security:single module:_CSSM_Init
Security:single module:__ZN11CssmManagerC1Ev
Security:single module:__ZN11CssmManagerC4Ev
Security:single module:__ZN12MdsComponentC2ERKN8Security4GuidE
Security:single module:__ZN12MdsComponentC4ERKN8Security4GuidE
Security:single module:__ZN17AttachmentFactoryC2Ev
Security:single module:__ZN17AttachmentFactoryC4Ev
Security:single module:__ZN8Security12ModuleLoaderC1Ev
Security:single module:__ZN8Security12ModuleLoaderC4Ev
Security:single module:__ZN14AppleCSPPluginC1Ev
Security:single module:__ZN14AppleCSPPluginC4Ev
Security:single module:__ZN8Security10CssmPluginC2Ev
Security:single module:__ZN8Security10CssmPluginC4Ev
Security:single module:__ZN15CryptKitFactoryC1EPN8Security13CssmAllocatorES2_
Security:single module:__ZN15CryptKitFactoryC4EPN8Security13CssmAllocatorES2_
Security:single module:_initCryptKit
Security:single module:_fallocRegister
Security:single module:__ZN13AscAlgFactoryC1EPN8Security13CssmAllocatorES2_
Security:single module:__ZN13AscAlgFactoryC4EPN8Security13CssmAllocatorES2_
Security:single module:_comMallocRegister
Security:single module:__ZN15RSA_DSA_FactoryC1EPN8Security13CssmAllocatorES2_
Security:single module:__ZN15RSA_DSA_FactoryC4EPN8Security13CssmAllocatorES2_
Security:single module:_CRYPTO_set_mem_functions
Security:single module:_CRYPTO_set_locked_mem_functions
Security:single module:_ERR_load_RSA_strings
Security:single module:_ERR_load_BN_strings
Security:single module:_ERR_load_DSA_strings
Security:single module:__ZN10DH_FactoryC1EPN8Security13CssmAllocatorES2_
Security:single module:__ZN10DH_FactoryC4EPN8Security13CssmAllocatorES2_
Security:single module:_ERR_load_DH_strings
Security:single module:__ZN11AppleFileDLC1Ev
Security:single module:__ZN11AppleFileDLC4Ev
Security:single module:__ZN8Security20AppleDatabaseManagerC1EPKNS_22AppleDatabaseTableNameE
Security:single module:__ZN8Security20AppleDatabaseManagerC4EPKNS_22AppleDatabaseTableNameE
Security:single module:__ZN8Security15DatabaseManagerC2Ev
Security:single module:__ZN8Security15DatabaseManagerC4Ev
Security:single module:__ZN11CSPDLPluginC1Ev
Security:single module:__ZN11CSPDLPluginC4Ev
Security:single module:__ZN14SSCSPDLSessionC1Ev
Security:single module:__ZN14SSCSPDLSessionC4Ev
Security:single module:__ZN8Security7KeyPoolC2Ev
Security:single module:__ZN8Security7KeyPoolC4Ev
Security:single module:__ZN11AppleX509CLC1Ev
Security:single module:__ZN11AppleX509CLC4Ev
Security:single module:__ZN7AppleTPC1Ev
Security:single module:__ZN7AppleTPC4Ev
Security:single module:__ZN11CssmManager10initializeERK12cssm_versionmRKN8Security4GuidEmRm
Security:single module:__ZN11CssmManager12checkVersionERK12cssm_version
Security:single module:_CSSM_ModuleLoad
Security:single module:__ZN11CssmManager10loadModuleERKN8Security4GuidEmRKNS0_14ModuleCallbackE
Security:single module:__ZN12MdsComponentC1ERKN8Security4GuidE
Security:single module:__ZNK12MdsComponent7getInfoEv
Security:single module:__ZN12MdsComponent3MDSC1Ev
Security:single module:__ZN12MdsComponent3MDSC4Ev
Security:single module:__ZN8Security12ModuleLoaderclEPKc
Security:single module:__ZN6ModuleC1EP11CssmManagerRK12MdsComponentPN8Security6PluginE
Security:single module:__ZN6ModuleC4EP11CssmManagerRK12MdsComponentPN8Security6PluginE
Security:single module:__ZN8Security10CssmPlugin10moduleLoadERKNS_4GuidES3_RKNS_14ModuleCallbackE
Security:single module:__ZN8Security10CssmPlugin4loadEv
Security:single module:__ZN12MdsComponentD1Ev
Security:single module:__ZN12MdsComponentD4Ev
Security:single module:__ZN8Security17ModuleCallbackSet6insertERKNS_14ModuleCallbackE
Security:single module:__ZN8Security10CssmClient8CssmImpl9catchExitEv
Security:single module:__ZThn64_NK8Security10CssmClient9CSPDLImpl9allocatorEv
Security:single module:__ZNK8Security10CssmClient9CSPDLImpl9allocatorEv
Security:single module:__ZNK8Security10CssmClient10ObjectImpl9allocatorEv
Security:single module:__ZN8Security28CssmAllocatorMemoryFunctionsC1ERNS_13CssmAllocatorE
Security:single module:__ZN8Security28CssmAllocatorMemoryFunctionsC4ERNS_13CssmAllocatorE
Security:single module:_CSSM_ModuleAttach
Security:single module:__ZN11CssmManager9getModuleERKN8Security4GuidE
Security:single module:__ZN6Module6attachERK12cssm_versionmmRK17cssm_memory_funcsmmP19cssm_func_name_addrm
Security:single module:__ZNK17AttachmentFactory18attachmentMakerForEm
Security:single module:__ZN10AttachmentC2EP6ModuleRK12cssm_versionmmRK17cssm_memory_funcsmm
Security:single module:__ZN10AttachmentC4EP6ModuleRK12cssm_versionmmRK17cssm_memory_funcsmm
Security:single module:__ZN8Security12HandleObject5StateC1Ev
Security:single module:__ZN8Security12HandleObject5StateC4Ev
Security:single module:__ZN8Security10CssmPlugin12moduleAttachEmRKNS_4GuidES3_S3_S3_RK12cssm_versionmmmmRK12cssm_upcallsRP17cssm_module_funcs
Security:single module:__ZN11CSPDLPlugin11makeSessionEmRK12cssm_versionmmmRK12cssm_upcalls
Security:single module:__ZN11SSDLSessionC1EmR11CSPDLPluginRK12cssm_versionmmmRK12cssm_upcallsRN8Security15DatabaseManagerER14SSCSPDLSession
Security:single module:__ZN11SSDLSessionC4EmR11CSPDLPluginRK12cssm_versionmmmRK12cssm_upcallsRN8Security15DatabaseManagerER14SSCSPDLSession
Security:single module:__ZN8Security15DLPluginSessionC2EmRNS_10CssmPluginERK12cssm_versionmmmRK12cssm_upcallsRNS_15DatabaseManagerE
Security:single module:__ZN8Security15DLPluginSessionC4EmRNS_10CssmPluginERK12cssm_versionmmmRK12cssm_upcallsRNS_15DatabaseManagerE
Security:single module:__ZN8Security13PluginSessionC2EmRNS_10CssmPluginERK12cssm_versionmmmRK12cssm_upcalls
Security:single module:__ZN8Security13PluginSessionC4EmRNS_10CssmPluginERK12cssm_versionmmmRK12cssm_upcalls
Security:single module:__ZN8Security15DatabaseSessionC2ERNS_15DatabaseManagerE
Security:single module:__ZN8Security15DatabaseSessionC4ERNS_15DatabaseManagerE
Security:single module:__ZN8Security10CssmClient6DLImplC1ERKNS0_6ModuleE
Security:single module:__ZN8Security14SecurityServer13ClientSessionC1ERNS_13CssmAllocatorES3_
Security:single module:__ZN8Security10CssmClient10ObjectImpl9allocatorERNS_13CssmAllocatorE
Security:single module:__ZN8Security15DLPluginSession9constructEv
Security:single module:_CSSM_DL_DbOpen
Security:single module:__Z11cssm_DbOpenmPKcPK16cssm_net_addressmPK23cssm_access_credentialsPKvPm
Security:single module:__ZThn40_N11SSDLSession6DbOpenEPKcPK16cssm_net_addressmPKN8Security17AccessCredentialsEPKvRm
Security:single module:__ZN11SSDLSession6DbOpenEPKcPK16cssm_net_addressmPKN8Security17AccessCredentialsEPKvRm
Security:single module:__ZN14SSDatabaseImplC1ERN8Security14SecurityServer13ClientSessionERKNS0_10CssmClient2DLEPKcPK16cssm_net_address
Security:single module:__ZN14SSDatabaseImplC4ERN8Security14SecurityServer13ClientSessionERKNS0_10CssmClient2DLEPKcPK16cssm_net_address
Security:single module:__ZN14SSDatabaseImpl4openERKN8Security14DLDbIdentifierE
Security:single module:__ZN11AppleFileDL11makeSessionEmRK12cssm_versionmmmRK12cssm_upcalls
Security:single module:__ZN8Security15DLPluginSessionC1EmRNS_10CssmPluginERK12cssm_versionmmmRK12cssm_upcallsRNS_15DatabaseManagerE
Security:single module:__ZN8Security15DatabaseSession6DbOpenEPKcPK16cssm_net_addressmPKNS_17AccessCredentialsEPKvRm
Security:single module:__ZN8Security15DatabaseManager6dbOpenERNS_15DatabaseSessionERKNS_6DbNameEmPKNS_17AccessCredentialsEPKv
Security:single module:__ZN8Security15DatabaseManager3getERKNS_6DbNameE
Security:single module:__ZN8Security20AppleDatabaseManager4makeERKNS_6DbNameE
Security:single module:__ZN8Security13AppleDatabaseC1ERKNS_6DbNameEPKNS_22AppleDatabaseTableNameE
Security:single module:__ZN8Security13AppleDatabaseC4ERKNS_6DbNameEPKNS_22AppleDatabaseTableNameE
Security:single module:__ZN8Security8DatabaseC2ERKNS_6DbNameE
Security:single module:__ZN8Security8DatabaseC4ERKNS_6DbNameE
Security:single module:__ZN8Security6DbNameC1ERKS0_
Security:single module:__ZN8Security6DbNameC4ERKS0_
Security:single module:__ZN8Security10AtomicFileC1ERKSs
Security:single module:__ZN8Security10AtomicFileC4ERKSs
Security:single module:__ZN8Security10AtomicFile9pathSplitERKSsRSsS3_
Security:single module:__ZNKSs5rfindEcm
Security:single module:__ZN8Security10DbModifierC1ERNS_10AtomicFileERKNS_13AppleDatabaseE
Security:single module:__ZN8Security10DbModifierC4ERNS_10AtomicFileERKNS_13AppleDatabaseE
Security:single module:__ZN8Security6DbNameD1Ev
Security:single module:__ZN8Security6DbNameD4Ev
Security:single module:__ZN8Security8Database7_dbOpenERNS_15DatabaseSessionEmPKNS_17AccessCredentialsEPKv
Security:single module:__ZN8Security13AppleDatabase13makeDbContextERNS_15DatabaseSessionEmPKNS_17AccessCredentialsEPKv
Security:single module:__ZN8Security14AppleDbContextC1ERNS_8DatabaseERNS_15DatabaseSessionEmPKNS_17AccessCredentialsEPKv
Security:single module:__ZN8Security14AppleDbContextC4ERNS_8DatabaseERNS_15DatabaseSessionEmPKNS_17AccessCredentialsEPKv
Security:single module:__ZN8Security9DbContextC2ERNS_8DatabaseERNS_15DatabaseSessionEmPK23cssm_access_credentials
Security:single module:__ZN8Security9DbContextC4ERNS_8DatabaseERNS_15DatabaseSessionEmPK23cssm_access_credentials
Security:single module:__ZN8Security13AppleDatabase6dbOpenERNS_9DbContextE
Security:single module:__ZN8Security10DbModifier12openDatabaseEv
Security:single module:__ZN8Security10DbModifier6commitEv
Security:single module:__ZN8Security10DbModifier12getDbVersionEv
Security:single module:__ZN8Security10AtomicFile4readEv
Security:single module:__ZN8Security18AtomicBufferedFileC1ERKSs
Security:single module:__ZN8Security18AtomicBufferedFileC4ERKSs
Security:single module:__ZN8Security18AtomicBufferedFile4openEv
Security:single module:__ZN8Security10AtomicFile5ropenEPKcit
Security:single module:__ZN8Security9DbVersionC1ERKNS_13AppleDatabaseERKNS_10RefPointerINS_18AtomicBufferedFileEEE
Security:single module:__ZN8Security9DbVersionC4ERKNS_13AppleDatabaseERKNS_10RefPointerINS_18AtomicBufferedFileEEE
Security:single module:__ZN8Security18AtomicBufferedFile4readExxRx
Security:single module:__ZN8Security18AtomicBufferedFile5closeEv
Security:single module:__ZN8Security10AtomicFile6rcloseEi
Security:single module:__ZN8Security9DbVersion4openEv
Security:single module:__ZN8Security5TableC1ERKNS_11ReadSectionE
Security:single module:__ZN8Security5TableC4ERKNS_11ReadSectionE
Security:single module:__ZN8Security10MetaRecordC1Em
Security:single module:__ZN8Security10MetaRecordC4Em
Security:single module:__ZN8Security9DbVersion9findTableEm
Security:single module:__ZN8Security10MetaRecord22setRecordAttributeInfoERK29cssm_db_record_attribute_info
Security:single module:__ZN8Security10MetaRecord15createAttributeEPKSsPKNS_8CssmDataEmm
Security:single module:__ZN8Security13MetaAttribute6createEmmm
Security:single module:__ZNK8Security5Table17getRecordsSectionEv
Security:single module:__ZNK8Security10MetaRecord12unpackRecordERKNS_11ReadSectionERNS_13CssmAllocatorEP29cssm_db_record_attribute_dataPNS_8CssmDataEm
Security:single module:__ZNK8Security10MetaRecord13metaAttributeERK22cssm_db_attribute_info
Security:single module:__ZNK8Security10MetaRecord14attributeIndexERK22cssm_db_attribute_info
Security:single module:__ZNK8Security13MetaAttribute15unpackAttributeERKNS_11ReadSectionERNS_13CssmAllocatorERmRP9cssm_data
Security:single module:__ZNK8Security13MetaAttribute20unpackNumberOfValuesERKNS_11ReadSectionERmS4_
Security:single module:__ZN8Security11UInt32ValueC1ERKNS_11ReadSectionERm
Security:single module:__ZN8Security11UInt32ValueC4ERKNS_11ReadSectionERm
Security:single module:__ZN8Security11UInt32ValueD1Ev
Security:single module:__ZN8Security11UInt32ValueD4Ev
Security:single module:__ZN8Security7DbValueD2Ev
Security:single module:__ZN8Security7DbValueD4Ev
Security:single module:__ZN8Security11StringValueC1ERKNS_11ReadSectionERm
Security:single module:__ZN8Security11StringValueC4ERKNS_11ReadSectionERm
Security:single module:__ZN8Security9BlobValueC2ERKNS_11ReadSectionERm
Security:single module:__ZN8Security9BlobValueC4ERKNS_11ReadSectionERm
Security:single module:__ZN8Security11StringValueD1Ev
Security:single module:__ZN8Security11StringValueD4Ev
Security:single module:__ZN8Security9BlobValueD2Ev
Security:single module:__ZN8Security9BlobValueD4Ev
Security:single module:__ZN8Security17TrackingAllocatorD1Ev
Security:single module:__ZN8Security17TrackingAllocatorD4Ev
Security:single module:__ZN8Security13CssmAllocatorD2Ev
Security:single module:__ZN8Security13CssmAllocatorD4Ev
Security:single module:__ZNSsC1EPKcmRKSaIcE
Security:single module:__ZNSsC4EPKcmRKSaIcE
Security:single module:__ZN8Security5Table16readIndexSectionEv
Security:single module:__ZN8Security12DbConstIndexC1ERKNS_5TableERKNS_11ReadSectionE
Security:single module:__ZN8Security12DbConstIndexC4ERKNS_5TableERKNS_11ReadSectionE
Security:single module:__ZN8Security7DbIndexC2ERKNS_10MetaRecordEmb
Security:single module:__ZN8Security7DbIndexC4ERKNS_10MetaRecordEmb
Security:single module:__ZN8Security7DbIndex15appendAttributeEm
Security:single module:__ZN8Security15DatabaseSession15insertDbContextERNS_9DbContextE
Security:single module:__ZN14SSDatabaseImpl11getDbBlobIdEPN8Security17CssmDataContainerE
Security:single module:__ZThn20_N8Security10CssmClient6DbImpl11newDbCursorEmRNS_13CssmAllocatorE
Security:single module:__ZN8Security10CssmClient6DbImpl11newDbCursorEmRNS_13CssmAllocatorE
Security:single module:__ZN8Security10CssmClient14DbDbCursorImplC1ERKNS0_2DbEmRNS_13CssmAllocatorE
Security:single module:__ZN8Security10CssmClient14DbDbCursorImplC4ERKNS0_2DbEmRNS_13CssmAllocatorE
Security:single module:__ZN8Security10CssmClient12DbCursorImplC2ERKNS0_6ObjectEmRNS_13CssmAllocatorE
Security:single module:__ZN8Security10CssmClient12DbCursorImplC4ERKNS0_6ObjectEmRNS_13CssmAllocatorE
Security:single module:__ZThn24_N14SSDatabaseImpl17newDbUniqueRecordEv
Security:single module:__ZN14SSDatabaseImpl17newDbUniqueRecordEv
Security:single module:__ZN18SSUniqueRecordImplC1ERK10SSDatabase
Security:single module:__ZN18SSUniqueRecordImplC4ERK10SSDatabase
Security:single module:_CSSM_DL_DataGetFirst
Security:single module:__Z17cssm_DataGetFirst17cssm_dl_db_handlePK10cssm_queryPmP29cssm_db_record_attribute_dataP9cssm_dataPP21cssm_db_unique_record
Security:single module:__ZN8Security15DatabaseSession12DataGetFirstEmPKNS_7DLQueryEP29cssm_db_record_attribute_dataPNS_8CssmDataERP21cssm_db_unique_record
Security:single module:__ZN8Security15DatabaseSession13findDbContextEm
Security:single module:__ZN8Security13AppleDatabase12dataGetFirstERNS_9DbContextEPKNS_7DLQueryEP29cssm_db_record_attribute_dataPNS_8CssmDataERP21cssm_db_unique_record
Security:single module:__ZN8Security10DbModifier12createCursorEPK10cssm_query
Security:single module:__ZN8Security18AtomicBufferedFileD1Ev
Security:single module:__ZN8Security18AtomicBufferedFileD4Ev
Security:single module:__ZNK8Security9DbVersion12createCursorEPK10cssm_query
Security:single module:__ZNK8Security9DbVersion9findTableEm
Security:single module:__ZNK8Security5Table12createCursorEPK10cssm_queryRKNS_9DbVersionE
Security:single module:__ZN8Security12LinearCursorC1EPK10cssm_queryRKNS_9DbVersionERKNS_5TableE
Security:single module:__ZN8Security12LinearCursorC4EPK10cssm_queryRKNS_9DbVersionERKNS_5TableE
Security:single module:__ZN8Security12LinearCursor4nextERmP29cssm_db_record_attribute_dataPNS_8CssmDataERNS_13CssmAllocatorERNS_8RecordIdE
Security:single module:__ZThn44_N8Security15DLPluginSession6mallocEm
Security:single module:__ZN8Security15DLPluginSession6mallocEm
Security:single module:__ZN8Security13PluginSession6mallocEm
Security:single module:__ZN10Attachment12upcallMallocEmm
Security:single module:__ZN8Security12HandleObject5State4findEml
Security:single module:__ZN8Security13AppleDatabase18createUniqueRecordERNS_9DbContextEmRKNS_8RecordIdE
Security:single module:__ZN8Security13AppleDatabase18updateUniqueRecordERNS_9DbContextEmRKNS_8RecordIdER21cssm_db_unique_record
Security:single module:__ZN8Security10CssmClient18DbUniqueRecordImpl8activateEv
Security:single module:__ZN8Security10CssmClient14DbDbCursorImplD0Ev
Security:single module:__ZN8Security10CssmClient14DbDbCursorImplD4Ev
Security:single module:__ZN8Security10CssmClient14DbDbCursorImpl10deactivateEv
Security:single module:_CSSM_DL_DataAbortQuery
Security:single module:__Z19cssm_DataAbortQuery17cssm_dl_db_handlem
Security:single module:__ZN8Security15DatabaseSession14DataAbortQueryEmm
Security:single module:__ZN8Security13AppleDatabase14dataAbortQueryERNS_9DbContextEm
Security:single module:__ZN8Security12LinearCursorD0Ev
Security:single module:__ZN8Security12LinearCursorD4Ev
Security:single module:__ZN8Security6CursorD2Ev
Security:single module:__ZN8Security6CursorD4Ev
Security:single module:__ZN8Security13CssmAutoQueryD2Ev
Security:single module:__ZN8Security13CssmAutoQueryD4Ev
Security:single module:__ZN8Security13CssmAutoQuery5clearEv
Security:single module:__ZN18SSUniqueRecordImplD0Ev
Security:single module:__ZN18SSUniqueRecordImplD4Ev
Security:single module:__ZN8Security10CssmClient18DbUniqueRecordImplD2Ev
Security:single module:__ZN8Security10CssmClient18DbUniqueRecordImplD4Ev
Security:single module:__ZN8Security10CssmClient18DbUniqueRecordImpl10deactivateEv
Security:single module:_CSSM_DL_FreeUniqueRecord
Security:single module:__Z21cssm_FreeUniqueRecord17cssm_dl_db_handleP21cssm_db_unique_record
Security:single module:__ZN8Security15DatabaseSession16FreeUniqueRecordEmR21cssm_db_unique_record
Security:single module:__ZN8Security13AppleDatabase16freeUniqueRecordERNS_9DbContextER21cssm_db_unique_record
Security:single module:__ZThn44_N8Security15DLPluginSession4freeEPv
Security:single module:__ZN8Security15DLPluginSession4freeEPv
Security:single module:__ZN10Attachment10upcallFreeEmPv
Security:single module:__ZN8Security14SecurityServer13ClientSession8decodeDbERKNS_14DLDbIdentifierEPKNS_17AccessCredentialsERKNS_8CssmDataE
Security:single module:__ZN8Security25DatabaseAccessCredentialsC1EPKNS_17AccessCredentialsERNS_13CssmAllocatorE
Security:single module:__ZN8Security25DatabaseAccessCredentialsC4EPKNS_17AccessCredentialsERNS_13CssmAllocatorE
Security:single module:_ucsp_client_decodeDb
Security:single module:__ZN8Security9ObjectAclC2ERNS_13CssmAllocatorE
Security:single module:__ZN8Security9ObjectAclC4ERNS_13CssmAllocatorE
Security:single module:__Z30__MIG_check__Reply__decodeDb_tP19__Reply__decodeDb_t
Security:single module:__ZN11SSDLSession12makeDbHandleER10SSDatabase
Security:single module:__ZThn40_N11SSDLSession12DataGetFirstEmPKN8Security7DLQueryEP29cssm_db_record_attribute_dataPNS0_8CssmDataERP21cssm_db_unique_record
Security:single module:__ZN11SSDLSession12DataGetFirstEmPKN8Security7DLQueryEP29cssm_db_record_attribute_dataPNS0_8CssmDataERP21cssm_db_unique_record
Security:single module:__ZN11SSDLSession12findDbHandleEm
Security:single module:__ZNK8Security12DbConstIndex12matchesQueryERK10cssm_queryRPNS_10DbQueryKeyE
Security:single module:__Znam
Security:single module:__ZN8Security10DbQueryKeyC1ERKNS_12DbConstIndexE
Security:single module:__ZN8Security10DbQueryKeyC4ERKNS_12DbConstIndexE
Security:single module:__ZN8Security9BlobValueC1ERK9cssm_data
Security:single module:__ZN8Security9BlobValueC4ERK9cssm_data
Security:single module:__ZNK8Security9BlobValue4packERNS_12WriteSectionERm
Security:single module:__ZN8Security9BlobValueD1Ev
Security:single module:__ZdaPv
Security:single module:__ZN8Security11IndexCursorC1EPNS_10DbQueryKeyERKNS_9DbVersionERKNS_5TableEPKNS_12DbConstIndexE
Security:single module:__ZN8Security11IndexCursorC4EPNS_10DbQueryKeyERKNS_9DbVersionERKNS_5TableEPKNS_12DbConstIndexE
Security:single module:__ZNK8Security12DbConstIndex12performQueryERKNS_10DbQueryKeyERPKNS_6EndianImEES8_
Security:single module:__ZNK8Security15DbKeyComparatorclEmm
Security:single module:__ZN8Security9BlobValueC1ERKNS_11ReadSectionERm
Security:single module:__ZNK8Security9BlobValue8evaluateERKS0_m
Security:single module:__ZN8Security9BlobValue8evaluateERKNS_8CssmDataES3_mNS0_10ComparatorE
Security:single module:__ZN8Security9BlobValue10ComparatorclEPKhS3_m
Security:single module:__ZN8Security9BlobValue10ComparatorD1Ev
Security:single module:__ZN8Security9BlobValue10ComparatorD4Ev
Security:single module:__ZN8Security9BlobValueD0Ev
Security:single module:__ZN8Security11IndexCursor4nextERmP29cssm_db_record_attribute_dataPNS_8CssmDataERNS_13CssmAllocatorERNS_8RecordIdE
Security:single module:__ZNK8Security12DbConstIndex16getRecordSectionEPKNS_6EndianImEE
Security:single module:__ZNK8Security5Table16getRecordSectionEm
Security:single module:__ZN11SSDLSession18makeSSUniqueRecordER14SSUniqueRecord
Security:single module:__ZN11SSDLSession18createUniqueRecordEm
Security:single module:__ZN8Security12KeychainCore12KeychainImpl4itemEmRNS_10CssmClient14DbUniqueRecordE
Security:single module:__ZN8Security12KeychainCore12KeychainImpl14makePrimaryKeyEmRNS_10CssmClient14DbUniqueRecordE
Security:single module:__ZN8Security10CssmClient12DbAttributesC1ERKNS0_2DbEmRNS_13CssmAllocatorE
Security:single module:__ZN8Security10CssmClient12DbAttributesC4ERKNS0_2DbEmRNS_13CssmAllocatorE
Security:single module:__ZN8Security12KeychainCore12KeychainImpl26gatherPrimaryKeyAttributesERNS_10CssmClient12DbAttributesE
Security:single module:__ZN8Security12KeychainCore12KeychainImpl18primaryKeyInfosForEm
Security:single module:__ZN8Security12KeychainCore12KeychainImpl14keychainSchemaEv
Security:single module:__ZN8Security12KeychainCore18KeychainSchemaImplC1ERKNS_10CssmClient2DbE
Security:single module:__ZN8Security12KeychainCore18KeychainSchemaImplC4ERKNS_10CssmClient2DbE
Security:single module:__ZThn20_N8Security10CssmClient8SSDbImpl11newDbCursorEmRNS_13CssmAllocatorE
Security:single module:__ZN8Security10CssmClient8SSDbImpl11newDbCursorEmRNS_13CssmAllocatorE
Security:single module:__ZN8Security10CssmClient14SSDbCursorImplC1ERKNS0_2DbEmRNS_13CssmAllocatorE
Security:single module:__ZN8Security10CssmClient14SSDbCursorImplC4ERKNS0_2DbEmRNS_13CssmAllocatorE
Security:single module:__ZN8Security10CssmClient14DbDbCursorImplC2ERKNS0_2DbEmRNS_13CssmAllocatorE
Security:single module:__ZN8Security29CssmAutoDbRecordAttributeData3addERK22cssm_db_attribute_info
Security:single module:__ZN8Security29CssmAutoDbRecordAttributeData21getAttributeReferenceERK22cssm_db_attribute_info
Security:single module:__ZN8Security29CssmAutoDbRecordAttributeData13findAttributeERK22cssm_db_attribute_info
Security:single module:__ZN8Security19CssmDbAttributeData12deleteValuesERNS_13CssmAllocatorE
Security:single module:__ZN8Security10CssmClient20SSDbUniqueRecordImplD0Ev
Security:single module:__ZN8Security10CssmClient20SSDbUniqueRecordImplD4Ev
Security:single module:__ZN8Security18SelectionPredicateC1ERKNS_10MetaRecordERK24cssm_selection_predicate
Security:single module:__ZN8Security18SelectionPredicateC4ERKNS_10MetaRecordERK24cssm_selection_predicate
Security:single module:__ZN8Security11UInt32ValueC1ERK9cssm_data
Security:single module:__ZN8Security11UInt32ValueC4ERK9cssm_data
Security:single module:__ZNK8Security18SelectionPredicate8evaluateERKNS_11ReadSectionE
Security:single module:_CSSM_DL_DataGetNext
Security:single module:__Z16cssm_DataGetNext17cssm_dl_db_handlemP29cssm_db_record_attribute_dataP9cssm_dataPP21cssm_db_unique_record
Security:single module:__ZThn40_N11SSDLSession11DataGetNextEmmP29cssm_db_record_attribute_dataPN8Security8CssmDataERP21cssm_db_unique_record
Security:single module:__ZN11SSDLSession11DataGetNextEmmP29cssm_db_record_attribute_dataPN8Security8CssmDataERP21cssm_db_unique_record
Security:single module:__ZN8Security15DatabaseSession11DataGetNextEmmP29cssm_db_record_attribute_dataPNS_8CssmDataERP21cssm_db_unique_record
Security:single module:__ZN8Security13AppleDatabase11dataGetNextERNS_9DbContextEmP29cssm_db_record_attribute_dataPNS_8CssmDataERP21cssm_db_unique_record
Security:single module:__ZThn40_N11SSDLSession16FreeUniqueRecordEmR21cssm_db_unique_record
Security:single module:__ZN11SSDLSession16FreeUniqueRecordEmR21cssm_db_unique_record
Security:single module:__ZN11SSDLSession18killSSUniqueRecordER21cssm_db_unique_record
Security:single module:__ZN11SSDLSession17parseUniqueRecordERK21cssm_db_unique_record
Security:single module:__ZN11SSDLSession16freeUniqueRecordER21cssm_db_unique_record
Security:single module:__ZN8Security18SelectionPredicateD1Ev
Security:single module:__ZN8Security18SelectionPredicateD4Ev
Security:single module:__ZN8Security11UInt32ValueD0Ev
Security:single module:__ZN8Security29CssmAutoDbRecordAttributeDataD2Ev
Security:single module:__ZN8Security29CssmAutoDbRecordAttributeDataD4Ev
Security:single module:__ZN8Security29CssmAutoDbRecordAttributeData5clearEv
Security:single module:__ZN8Security10CssmClient14DbDbCursorImplD2Ev
Security:single module:__Z21CompareAttributeInfosRK22cssm_db_attribute_infoS1_
Security:single module:__ZNK8Security12KeychainCore18KeychainSchemaImpl18primaryKeyInfosForEm
Security:single module:__ZN8Security10CssmClient20SSDbUniqueRecordImpl3getEPNS0_12DbAttributesEPNS_17CssmDataContainerE
Security:single module:__ZN8Security10CssmClient20SSDbUniqueRecordImpl3getEPNS0_12DbAttributesEPNS_17CssmDataContainerEPK23cssm_access_credentials
Security:single module:__ZN8Security10CssmClient18DbUniqueRecordImpl3getEPNS0_12DbAttributesEPNS_17CssmDataContainerE
Security:single module:_CSSM_DL_DataGetFromUniqueRecordId
Security:single module:__Z30cssm_DataGetFromUniqueRecordId17cssm_dl_db_handlePK21cssm_db_unique_recordP29cssm_db_record_attribute_dataP9cssm_data
Security:single module:__ZThn40_N11SSDLSession25DataGetFromUniqueRecordIdEmRK21cssm_db_unique_recordP29cssm_db_record_attribute_dataPN8Security8CssmDataE
Security:single module:__ZN11SSDLSession25DataGetFromUniqueRecordIdEmRK21cssm_db_unique_recordP29cssm_db_record_attribute_dataPN8Security8CssmDataE
Security:single module:__ZN11SSDLSession18findSSUniqueRecordERK21cssm_db_unique_record
Security:single module:__ZN8Security15DatabaseSession25DataGetFromUniqueRecordIdEmRK21cssm_db_unique_recordP29cssm_db_record_attribute_dataPNS_8CssmDataE
Security:single module:__ZN8Security13AppleDatabase25dataGetFromUniqueRecordIdERNS_9DbContextERK21cssm_db_unique_recordP29cssm_db_record_attribute_dataPNS_8CssmDataE
Security:single module:__ZN8Security13AppleDatabase17parseUniqueRecordERK21cssm_db_unique_recordRm
Security:single module:__ZN8Security10DbModifier9getRecordEmRKNS_8RecordIdEP29cssm_db_record_attribute_dataPNS_8CssmDataERNS_13CssmAllocatorE
Security:single module:__ZNK8Security9DbVersion9getRecordEmRKNS_8RecordIdEP29cssm_db_record_attribute_dataPNS_8CssmDataERNS_13CssmAllocatorE
Security:single module:__ZNK8Security5Table9getRecordERKNS_8RecordIdEP29cssm_db_record_attribute_dataPNS_8CssmDataERNS_13CssmAllocatorE
Security:single module:__ZN8Security12KeychainCore14PrimaryKeyImplC1ERKNS_10CssmClient12DbAttributesE
Security:single module:__ZN8Security12KeychainCore14PrimaryKeyImplC4ERKNS_10CssmClient12DbAttributesE
Security:single module:__ZN8Security12KeychainCore14PrimaryKeyImpl9putUInt32ERPhm
Security:single module:__ZN8Security12KeychainCore4ItemC1ERKNS0_8KeychainERKNS0_10PrimaryKeyERKNS_10CssmClient14DbUniqueRecordE
Security:single module:__ZN8Security12KeychainCore4ItemC4ERKNS0_8KeychainERKNS0_10PrimaryKeyERKNS_10CssmClient14DbUniqueRecordE
Security:single module:__ZNK8Security12KeychainCore14PrimaryKeyImpl10recordTypeEv
Security:single module:__ZNK8Security12KeychainCore14PrimaryKeyImpl9getUInt32ERPhRm
Security:single module:__ZN8Security12KeychainCore8ItemImplC1ERKNS0_8KeychainERKNS0_10PrimaryKeyERKNS_10CssmClient14DbUniqueRecordE
Security:single module:__ZN8Security12KeychainCore8ItemImplC4ERKNS0_8KeychainERKNS0_10PrimaryKeyERKNS_10CssmClient14DbUniqueRecordE
Security:single module:__ZN8Security12KeychainCore12KeychainImpl7addItemERKNS0_10PrimaryKeyEPNS0_8ItemImplE
Security:single module:__ZN8Security12KeychainCore11SecCFObject6handleEb
Security:single module:__ZN8Security12KeychainCore7CFClass12finalizeTypeEPKv
Security:single module:__ZN8Security12KeychainCore11SecCFObject8optionalEPKv
Security:single module:__ZN8Security12KeychainCore12KCCursorImplD1Ev
Security:single module:__ZN8Security12KeychainCore12KCCursorImplD4Ev
Security:single module:__ZThn40_N11SSDLSession14DataAbortQueryEmm
Security:single module:__ZN11SSDLSession14DataAbortQueryEmm
Security:single module:__ZN8Security11IndexCursorD0Ev
Security:single module:__ZN8Security11IndexCursorD4Ev
Security:single module:__ZN8Security12KeychainCore11SecCFObjectD2Ev
Security:single module:__ZN8Security12KeychainCore11SecCFObjectD4Ev
Security:single module:__ZN8Security12KeychainCore12KeychainImplD1Ev
Security:single module:__ZN8Security12KeychainCore12KeychainImplD4Ev
Security:single module:__ZNK8Security10CssmClient6DbImpl14dlDbIdentifierEv
Security:single module:__ZNK8Security10CssmClient14AttachmentImpl13subserviceUidEv
Security:single module:__ZThn64_NK8Security10CssmClient9CSPDLImpl14subserviceMaskEv
Security:single module:__ZNK8Security10CssmClient9CSPDLImpl14subserviceMaskEv
Security:single module:__ZN8Security12KeychainCore14StorageManager14removeKeychainERKNS_14DLDbIdentifierEPNS0_12KeychainImplE
Security:single module:__ZN8Security10CssmClient8SSDbImplD0Ev
Security:single module:__ZN8Security10CssmClient8SSDbImplD4Ev
Security:single module:__ZN8Security10CssmClient6DbImplD2Ev
Security:single module:__ZN8Security10CssmClient6DbImplD4Ev
Security:single module:__ZN8Security10CssmClient6DbImpl10deactivateEv
Security:single module:__ZThn64_N8Security10CssmClient11SSCSPDLImplD0Ev
Security:single module:__ZN8Security10CssmClient11SSCSPDLImplD0Ev
Security:single module:__ZN8Security10CssmClient11SSCSPDLImplD4Ev
Security:single module:__ZN8Security10CssmClient9CSPDLImplD2Ev
Security:single module:__ZN8Security10CssmClient9CSPDLImplD4Ev
Security:single module:__ZN8Security10CssmClient6DLImplD2Ev
Security:single module:__ZN8Security10CssmClient6DLImplD4Ev
Security:single module:__ZN8Security10CssmClient14AttachmentImplD2Ev
Security:single module:__ZN8Security10CssmClient14AttachmentImplD4Ev
Security:single module:__ZN8Security10CssmClient14AttachmentImpl10deactivateEv
Security:single module:__ZN8Security10CssmClient7CSPImplD2Ev
Security:single module:__ZN8Security10CssmClient7CSPImplD4Ev
Security:single module:__ZN8Security10CssmClient10ModuleImplD0Ev
Security:single module:__ZN8Security10CssmClient10ModuleImplD4Ev
Security:single module:__ZN8Security10CssmClient10ModuleImpl10deactivateEv
Security:single module:_SecKeychainItemCopyContent
Security:single module:__ZN8Security12KeychainCore11SecCFObject8requiredEPKvl
Security:single module:__ZN8Security12KeychainCore4ItemC1EPNS0_8ItemImplE
Security:single module:__ZN8Security12KeychainCore4ItemC4EPNS0_8ItemImplE
Security:single module:__ZN8Security12KeychainCore8ItemImpl10getContentEPmP24SecKeychainAttributeListS2_PPv
Security:single module:__ZN8Security12KeychainCore8ItemImpl14dbUniqueRecordEv
Security:single module:__ZNK8Security12KeychainCore8ItemImpl12isPersistantEv
Security:single module:__ZN8Security12KeychainCore8ItemImpl10getContentEPNS_10CssmClient12DbAttributesEPNS_17CssmDataContainerE
Security:single module:__ZN8Security12KeychainCore8ItemImpl16useSecureStorageERKNS_10CssmClient2DbE
Security:single module:__ZNK8Security12KeychainCore8ItemImpl10recordTypeEv
Security:single module:__ZN8Security12KeychainCore7Globals11credentialsEv
Security:single module:__ZNK8Security10CssmClient10AclFactory10promptCredEv
Security:single module:__ZN8Security10CssmClient7StaticsC1Ev
Security:single module:__ZN8Security10CssmClient7StaticsC4Ev
Security:single module:__ZN8Security15AutoCredentialsC1ERNS_13CssmAllocatorEm
Security:single module:__ZN8Security15AutoCredentialsC4ERNS_13CssmAllocatorEm
Security:single module:__ZN8Security15AutoCredentials4initEv
Security:single module:__ZN8Security15AutoCredentials9getSampleEm
Security:single module:__ZN8Security9TypedListC1ERNS_13CssmAllocatorEl
Security:single module:__ZN8Security9TypedListC4ERNS_13CssmAllocatorEl
Security:single module:__ZN8Security11ListElementC1El
Security:single module:__ZN8Security11ListElementC4El
Security:single module:__ZN8Security8CssmList6appendEPNS_11ListElementE
Security:single module:__ZN8Security11ListElementC1ERKNS_8CssmListE
Security:single module:__ZN8Security11ListElementC4ERKNS_8CssmListE
Security:single module:__ZN8Security9TypedListC1ERNS_13CssmAllocatorElPNS_11ListElementE
Security:single module:__ZN8Security9TypedListC4ERNS_13CssmAllocatorElPNS_11ListElementE
Security:single module:__ZN8Security10CssmClient11SSGroupImpl7isGroupERK9cssm_data
Security:single module:__ZN8Security10CssmClient11SSGroupImplC1ERKNS0_4SSDbERK9cssm_data
Security:single module:__ZN8Security10CssmClient11SSGroupImplC4ERKNS0_4SSDbERK9cssm_data
Security:single module:__ZN8Security10CssmClient7KeyImplC2ERKNS0_3CSPE
Security:single module:__ZN8Security10CssmClient7KeyImplC4ERKNS0_3CSPE
Security:single module:__ZN5SSKeyC1ER11SSDLSessionRN8Security7CssmKeyER10SSDatabaseRK14SSUniqueRecordmRNS2_8CssmDataE
Security:single module:__ZN5SSKeyC4ER11SSDLSessionRN8Security7CssmKeyER10SSDatabaseRK14SSUniqueRecordmRNS2_8CssmDataE
Security:single module:__ZN8Security13ReferencedKeyC2ERNS_7KeyPoolE
Security:single module:__ZN8Security13ReferencedKeyC4ERNS_7KeyPoolE
Security:single module:__ZN8Security7KeyPool3addERNS_13ReferencedKeyE
Security:single module:__ZN8Security13ReferencedKey12keyReferenceEv
Security:single module:__ZNK18SSUniqueRecordImpl8databaseEv
Security:single module:__ZNK8Security14CssmDLPolyDatacv9cssm_dateEv
Security:single module:__ZN8Security13ReferencedKey16makeReferenceKeyERNS_13CssmAllocatorEmR8cssm_key
Security:single module:__ZN8Security10CssmClient7KeyImpl8activateEv
Security:single module:__ZN8Security10CssmClient11SSGroupImpl14decodeDataBlobERK9cssm_dataPK23cssm_access_credentialsRNS_13CssmAllocatorERS2_
Security:single module:__ZN8Security10CssmClient5CryptC2ERKNS0_3CSPEm
Security:single module:__ZN8Security10CssmClient5CryptC4ERKNS0_3CSPEm
Security:single module:__ZN8Security10CssmClient5Crypt3keyERKNS0_3KeyE
Security:single module:__ZN8Security10CssmClient5Crypt4credEPKNS_17AccessCredentialsE
Security:single module:__ZN8Security10CssmClient7Decrypt7decryptEPKNS_8CssmDataEmPS2_m
Security:single module:__ZN8Security10CssmClient7Decrypt4initEv
Security:single module:__ZN8Security10CssmClient5Crypt8activateEv
Security:single module:__ZNK10__cxxabiv117__class_type_info12__do_dyncastEiNS0_10__sub_kindEPKS0_PKvS3_S5_RNS0_16__dyncast_resultE
Security:single module:__ZN12SSCSPSessionC1EmR11CSPDLPluginRK12cssm_versionmmmRK12cssm_upcallsR14SSCSPDLSessionRN8Security10CssmClient3CSPE
Security:single module:__ZN12SSCSPSessionC4EmR11CSPDLPluginRK12cssm_versionmmmRK12cssm_upcallsR14SSCSPDLSessionRN8Security10CssmClient3CSPE
Security:single module:__ZN8Security16CSPPluginSession9constructEv
Security:single module:_CSSM_CSP_CreateSymmetricContext
Security:single module:__ZN8Security11ListElement4listEv
Security:single module:__ZN8Security11ListElement4lastEv
Security:single module:__ZN12SSCSPSession13contextCreateEyRKN8Security7ContextE
Security:single module:_CSSM_DecryptDataInit
Security:single module:__Z20cssm_DecryptDataInitmyPK12cssm_contexty
Security:single module:__ZThn40_N8Security20CSPFullPluginSession15DecryptDataInitEyRKNS_7ContextEy
Security:single module:__ZN8Security20CSPFullPluginSession15DecryptDataInitEyRKNS_7ContextEy
Security:single module:__ZN12SSCSPSession12setupContextERPN8Security20CSPFullPluginSession10CSPContextERKNS0_7ContextEb
Security:single module:__ZN9SSFactory5setupER12SSCSPSessionRPN8Security20CSPFullPluginSession10CSPContextERKNS2_7ContextEb
Security:single module:__ZN14SSCryptContextC1ER12SSCSPSession
Security:single module:__ZN14SSCryptContextC4ER12SSCSPSession
Security:single module:__ZN9SSContextC2ER12SSCSPSession
Security:single module:__ZN9SSContextC4ER12SSCSPSession
Security:single module:__ZN14SSCryptContext4initERKN8Security7ContextEb
Security:single module:__ZN9SSContext4initERKN8Security7ContextEb
Security:single module:__ZN9SSContext11clearOutBufEv
Security:single module:__ZN8Security7Context4findEmPK22cssm_context_attributej
Security:single module:__ZN12SSCSPSession9lookupKeyERKN8Security7CssmKeyE
Security:single module:__ZN14SSCSPDLSession9lookupKeyERKN8Security7CssmKeyE
Security:single module:__ZNK8Security7KeyPool7findKeyERK8cssm_key
Security:single module:__ZN8Security13ReferencedKey12keyReferenceERK8cssm_key
Security:single module:__ZNK8Security7KeyPool16findKeyReferenceEm
Security:single module:__ZN5SSKey9keyHandleEv
Security:single module:__ZN5SSKey13clientSessionEv
Security:single module:__ZN14SSDatabaseImpl8dbHandleEv
Security:single module:__ZN8Security14SecurityServer13ClientSession9decodeKeyEmRKNS_8CssmDataERNS_7CssmKey6HeaderE
Security:single module:_ucsp_client_decodeKey
Security:single module:__ZN8Security4n2hiERNS_7CssmKey6HeaderE
Security:single module:__Z31__MIG_check__Reply__decodeKey_tP20__Reply__decodeKey_t
Security:single module:_CSSM_DecryptDataUpdate
Security:single module:__Z22cssm_DecryptDataUpdatemyPK9cssm_datamPS_mPm
Security:single module:__ZThn40_N8Security20CSPFullPluginSession17DecryptDataUpdateEyPKNS_8CssmDataEmPS1_mRm
Security:single module:__ZN8Security20CSPFullPluginSession17DecryptDataUpdateEyPKNS_8CssmDataEmPS1_mRm
Security:single module:__ZN8Security20CSPFullPluginSession6WriterC1EPNS_8CssmDataEmS3_
Security:single module:__ZN8Security20CSPFullPluginSession6WriterC4EPNS_8CssmDataEmS3_
Security:single module:__ZN14SSCryptContext10outputSizeEbm
Security:single module:__ZN8Security20CSPFullPluginSession6Writer8allocateEmRNS_13CssmAllocatorE
Security:single module:__ZN8Security20CSPFullPluginSession10makeBufferEmRNS_13CssmAllocatorE
Security:single module:__ZN8Security20CSPFullPluginSession10CSPContext6updateEPKNS_8CssmDataEmRNS0_6WriterE
Security:single module:__ZN8Security20CSPFullPluginSession6Writer9nextBlockERPvRm
Security:single module:__ZN14SSCryptContext9inputSizeEm
Security:single module:__ZN14SSCryptContext6updateEPvRmS0_S1_
Security:single module:__ZN8Security20CSPFullPluginSession6Writer3useEm
Security:single module:__ZN8Security20CSPFullPluginSession6Writer5closeEv
Security:single module:__ZN8Security10CssmClient7Decrypt5finalERNS_8CssmDataE
Security:single module:_CSSM_DecryptDataFinal
Security:single module:__Z21cssm_DecryptDataFinalmyP9cssm_data
Security:single module:__ZThn40_N8Security20CSPFullPluginSession16DecryptDataFinalEyRNS_8CssmDataE
Security:single module:__ZN8Security20CSPFullPluginSession16DecryptDataFinalEyRNS_8CssmDataE
Security:single module:__ZN9SSContext13clientSessionEv
Security:single module:__ZN8Security14SecurityServer13ClientSession7decryptERKNS_7ContextEmRKNS_8CssmDataERS5_RNS_13CssmAllocatorE
Security:single module:__ZN8Security11SendContextC1ERKNS_7ContextE
Security:single module:__ZN8Security11SendContextC4ERKNS_7ContextE
Security:single module:_ucsp_client_decrypt
Security:single module:__ZN8Security10CssmClient7Decrypt7decryptEPKNS_8CssmDataEmPS2_mRS2_
Security:single module:_CSSM_DecryptData
Security:single module:__Z16cssm_DecryptDatamyPK12cssm_contextPK9cssm_datamPS2_mPmS5_y
Security:single module:__ZThn40_N8Security20CSPFullPluginSession11DecryptDataEyRKNS_7ContextEPKNS_8CssmDataEmPS4_mRmRS4_y
Security:single module:__ZN8Security20CSPFullPluginSession11DecryptDataEyRKNS_7ContextEPKNS_8CssmDataEmPS4_mRmRS4_y
Security:single module:__ZN11DES3Context4initERKN8Security7ContextEb
Security:single module:__ZN15AppleCSPContext16symmetricKeyBitsERKN8Security7ContextEmmRPhRm
Security:single module:_cspValidateIntendedKeyUsage
Security:single module:_cspValidateKeyUsageBits
Security:single module:_cspVerifyKeyTimes
Security:single module:__Z17cspGetUniformDateRK9cssm_date
Security:single module:_desinit
Security:single module:_dessetkey
Security:single module:__ZN12BlockCryptor5setupEmRKN8Security7ContextE
Security:single module:__ZN12BlockCryptor5setupEmmbbNS_7BC_ModeEPKN8Security8CssmDataE
Security:single module:__ZN12BlockCryptor10outputSizeEbm
Security:single module:__ZN12BlockCryptor9inputSizeEm
Security:single module:__ZN12BlockCryptor6updateEPvRmS0_S1_
Security:single module:__ZN11DES3Context12decryptBlockEPKvPvRmb
Security:single module:_dedes
Security:single module:_permute
Security:single module:_round
Security:single module:_endes
Security:single module:__ZN8Security20CSPFullPluginSession10CSPContext5finalERNS0_6WriterERNS_13CssmAllocatorE
Security:single module:__ZN12BlockCryptor5finalERN8Security8CssmDataE
Security:single module:__ZN8Security10CssmClient9UnwrapKeyclERKNS_7CssmKeyERKNS0_7KeySpecERS2_PNS_8CssmDataEPS3_
Security:single module:_CSSM_UnwrapKey
Security:single module:__Z14cssm_UnwrapKeymyPK12cssm_contextPK8cssm_keyS4_mmPK9cssm_dataPK29cssm_resource_control_contextPS2_PS5_y
Security:single module:__ZN15AppleCSPSession9UnwrapKeyEyRKN8Security7ContextEPKNS0_7CssmKeyERS5_mmPKNS0_8CssmDataEPK29cssm_resource_control_contextRS4_RS8_y
Security:single module:_cspParseKeyAttr
Security:single module:_cspValidateKeyAttr
Security:single module:_setKeyHeader
Security:single module:_copyData
Security:single module:_freeCssmData
Security:single module:__ZN8Security10CssmClient7KeyImplC1ERKNS0_3CSPERK8cssm_keyb
Security:single module:__ZN8Security10CssmClient7KeyImplC4ERKNS0_3CSPERK8cssm_keyb
Security:single module:__ZN8Security7CssmKeyC2ERK8cssm_key
Security:single module:__ZN8Security7CssmKeyC4ERK8cssm_key
Security:single module:__ZN8Security10CssmClient7KeyImplD0Ev
Security:single module:__ZN8Security10CssmClient7KeyImplD4Ev
Security:single module:__ZN8Security10CssmClient7KeyImpl10deactivateEv
Security:single module:_CSSM_FreeKey
Security:single module:__Z12cssm_FreeKeymPK23cssm_access_credentialsP8cssm_keyl
Security:single module:__ZN15AppleCSPSession7FreeKeyEPKN8Security17AccessCredentialsERNS0_7CssmKeyEl
Security:single module:__ZN8Security20CSPFullPluginSession7FreeKeyEPKNS_17AccessCredentialsERNS_7CssmKeyEl
Security:single module:__ZN8Security10CssmClient9AclBearerD2Ev
Security:single module:__ZN8Security10CssmClient9AclBearerD4Ev
Security:single module:__ZN8Security10CssmClient9VerifyMac6verifyEPKNS_8CssmDataEmRS3_
Security:single module:__ZN8Security10CssmClient10MacContext8activateEv
Security:single module:_CSSM_CSP_CreateMacContext
Security:single module:_CSSM_VerifyMac
Security:single module:__Z14cssm_VerifyMacmyPK12cssm_contextPK9cssm_datamS4_
Security:single module:__ZThn40_N8Security20CSPFullPluginSession9VerifyMacEyRKNS_7ContextEPKNS_8CssmDataEmRS5_
Security:single module:__ZN8Security20CSPFullPluginSession9VerifyMacEyRKNS_7ContextEPKNS_8CssmDataEmRS5_
Security:single module:__ZN8Security20CSPFullPluginSession13VerifyMacInitEyRKNS_7ContextE
Security:single module:__ZN16MacLegacyContext4initERKN8Security7ContextEb
Security:single module:_hmacLegacyAlloc
Security:single module:_hmacLegacyInit
Security:single module:_sha1Alloc
Security:single module:__ZN8Security20CSPFullPluginSession15VerifyMacUpdateEyPKNS_8CssmDataEm
Security:single module:__ZN16MacLegacyContext6updateERKN8Security8CssmDataE
Security:single module:_hmacLegacyUpdate
Security:single module:_sha1AddData
Security:single module:_sha1Digest
Security:single module:_sha1Reinit
Security:single module:__ZN8Security20CSPFullPluginSession14VerifyMacFinalEyRKNS_8CssmDataE
Security:single module:__ZN16MacLegacyContext5finalERKN8Security8CssmDataE
Security:single module:_hmacLegacyFinal
Security:single module:__ZN16MacLegacyContextD0Ev
Security:single module:__ZN16MacLegacyContextD4Ev
Security:single module:_hmacLegacyFree
Security:single module:_sha1Free
Security:single module:__ZN11DES3ContextD0Ev
Security:single module:__ZN11DES3ContextD4Ev
Security:single module:_desdone
Security:single module:__ZN12BlockCryptorD2Ev
Security:single module:__ZN12BlockCryptorD4Ev
Security:single module:__ZN8Security12MachPlusPlus10MachServer8setTimerEPNS1_5TimerENS_4Time8AbsoluteE
Security:single module:__ZN8Security19NameValueDictionaryC1Ev
Security:single module:__ZN8Security19NameValueDictionaryC4Ev
Security:single module:__ZN8Security19NameValueDictionary41MakeNameValueDictionaryFromDLDbIdentifierERKNS_14DLDbIdentifierERS0_
Security:single module:__ZN8Security13NameValuePairC1EmRKNS_8CssmDataE
Security:single module:__ZN8Security13NameValuePairC4EmRKNS_8CssmDataE
Security:single module:__ZN8Security13NameValuePair9CloneDataERKNS_8CssmDataE
Security:single module:__ZN8Security19NameValueDictionary6InsertEPNS_13NameValuePairE
Security:single module:__ZN8Security19NameValueDictionary6ExportERNS_8CssmDataE
Security:single module:__ZNK8Security19NameValueDictionary13CountElementsEv
Security:single module:__ZN8Security19NameValueDictionary10GetElementEi
Security:single module:__ZNK8Security13NameValuePair6ExportERNS_8CssmDataE
Security:single module:__ZN8Security19NameValueDictionaryD1Ev
Security:single module:__ZN8Security19NameValueDictionaryD4Ev
Security:single module:__ZN8Security13NameValuePairD1Ev
Security:single module:__ZN8Security13NameValuePairD4Ev
Security:single module:__ZN8Security9ObjectAcl10importBlobEPKvS2_
Security:single module:__ZN8Security9ObjectAcl5Entry10importBlobERNS_23LowLevelMemoryUtilities6ReaderES4_
Security:single module:__ZN8Security9ObjectAcl13importSubjectERNS_23LowLevelMemoryUtilities6ReaderES3_
Security:single module:__ZN8Security9ObjectAcl4makeEmRNS_23LowLevelMemoryUtilities6ReaderES3_
Security:single module:__ZN8Security9ObjectAcl8makerForEl
Security:single module:__ZNK8Security13AnyAclSubject5Maker4makeEhRNS_23LowLevelMemoryUtilities6ReaderES4_
Security:single module:__ZN8Security9ObjectAcl8AclEntry10importBlobERNS_23LowLevelMemoryUtilities6ReaderES4_
Security:single module:__ZN8Security9ObjectAcl5EntryD2Ev
Security:single module:__ZN8Security9ObjectAcl5EntryD4Ev
Security:single module:__ZN8Security4h2niERNS_7CssmKey6HeaderE
Security:single module:_CSSM_UpdateContextAttributes
Security:single module:__ZN13HandleContext15mergeAttributesEPK22cssm_context_attributem
Security:single module:__ZN8Security16CSPPluginSession13contextUpdateEyRKNS_7ContextERPNS0_13PluginContextE
Security:single module:__ZN8Security10CssmClient9UnwrapKeyclERKNS_7CssmKeyERKNS0_7KeySpecERS2_PNS_8CssmDataE
Security:single module:__ZN15AppleCSPSession12UnwrapKeyCmsEyRKN8Security7ContextERKNS0_7CssmKeyEPK29cssm_resource_control_contextRS4_RNS0_8CssmDataEy13cspKeyStorage
Security:single module:_setUpCssmData
Security:single module:_inferFormat
Security:single module:__ZN15AppleCSPSession12infoProviderERKN8Security7CssmKeyE
Security:single module:__ZN18RSAKeyInfoProvider8providerERKN8Security7CssmKeyER15AppleCSPSession
Security:single module:__ZN24SymmetricKeyInfoProvider8providerERKN8Security7CssmKeyER15AppleCSPSession
Security:single module:__ZN24SymmetricKeyInfoProviderC1ERKN8Security7CssmKeyER15AppleCSPSession
Security:single module:__ZN24SymmetricKeyInfoProviderC4ERKN8Security7CssmKeyER15AppleCSPSession
Security:single module:__ZN24SymmetricKeyInfoProvider15CssmKeyToBinaryEPN8Security7CssmKeyERmPP9BinaryKey
Security:single module:__ZN18SymmetricBinaryKeyC1Ej
Security:single module:__ZN18SymmetricBinaryKeyC4Ej
Security:single module:_copyCssmData
Security:single module:__ZN15AppleCSPSession9addRefKeyER9BinaryKeyRN8Security7CssmKeyE
Security:single module:_setUpData
Security:single module:__ZN22SensitiveCssmAllocator4freeEPv
Security:single module:__ZNK8Security19ThresholdAclSubject5Maker4makeEhRNS_23LowLevelMemoryUtilities6ReaderES4_
Security:single module:__ZN8Security19ThresholdAclSubjectC1EmmRKSt6vectorINS_10RefPointerINS_10AclSubjectEEESaIS4_EE
Security:single module:__ZN8Security19ThresholdAclSubjectC4EmmRKSt6vectorINS_10RefPointerINS_10AclSubjectEEESaIS4_EE
Security:single module:__ZNK8Security23CodeSignatureAclSubject5Maker4makeEhRNS_23LowLevelMemoryUtilities6ReaderES4_
Security:single module:__ZN8Security11CodeSigning9OSXSigner7restoreEmPKvm
Security:single module:__ZN8Security23CodeSignatureAclSubjectC1ERNS_13CssmAllocatorEPKNS_11CodeSigning9SignatureEPKvm
Security:single module:__ZN8Security23CodeSignatureAclSubjectC4ERNS_13CssmAllocatorEPKNS_11CodeSigning9SignatureEPKvm
Security:single module:__ZN8Security12CssmAutoData5resetEv
Security:single module:__ZN8Security9ObjectAcl8validateElPKNS_17AccessCredentialsEPNS_24AclValidationEnvironmentE
Security:single module:__ZNK8Security9ObjectAcl8getRangeEPKcRSt4pairISt17_Rb_tree_iteratorIS3_IKSsNS0_8AclEntryEERKS7_PS8_ESB_E
Security:single module:__ZNK8Security9ObjectAcl8AclEntry10authorizesEl
Security:single module:__ZNK8Security9ObjectAcl8AclEntry8validateERKNS_20AclValidationContextE
Security:single module:__ZNK8Security16SimpleAclSubject8validateERKNS_20AclValidationContextE
Security:single module:__ZNK8Security9TypedList8isProperEv
Security:single module:__ZNK8Security11ListElement4wordEv
Security:single module:__ZNK8Security19ThresholdAclSubject8validateERKNS_20AclValidationContextERKNS_9TypedListE
Security:single module:__ZNK8Security23CodeSignatureAclSubject8validateERKNS_20AclValidationContextE
Security:single module:__ZN8Security11CodeSigning9OSXSigner4signERKNS0_8SignableE
Security:single module:__ZNK8Security11CodeSigning14ExecutableTool12scanContentsERNS0_6Signer5StateE
Security:single module:__ZN8Security11CodeSigning7OSXCode8scanFileEPKcRNS0_6Signer5StateE
Security:single module:__ZN8Security11CodeSigning9OSXSigner8Digester17enumerateContentsEPKvm
Security:single module:__ZN8Security10CssmClient6Digest6digestEPKNS_8CssmDataEm
Security:single module:__ZN14AppleCSPPlugin11makeSessionEmRK12cssm_versionmmmRK12cssm_upcalls
Security:single module:__ZN15AppleCSPSessionC1EmR14AppleCSPPluginRK12cssm_versionmmmRK12cssm_upcalls
Security:single module:__ZN15AppleCSPSessionC4EmR14AppleCSPPluginRK12cssm_versionmmmRK12cssm_upcalls
Security:single module:_CSSM_DigestDataInit
Security:single module:__Z19cssm_DigestDataInitmyPK12cssm_context
Security:single module:__ZThn40_N8Security20CSPFullPluginSession14DigestDataInitEyRKNS_7ContextE
Security:single module:_CSSM_DigestDataUpdate
Security:single module:__Z21cssm_DigestDataUpdatemyPK9cssm_datam
Security:single module:__ZThn40_N8Security20CSPFullPluginSession16DigestDataUpdateEyPKNS_8CssmDataEm
Security:single module:__ZN8Security10CssmClient6DigestclERNS_8CssmDataE
Security:single module:_CSSM_DigestDataFinal
Security:single module:__Z20cssm_DigestDataFinalmyP9cssm_data
Security:single module:__ZThn40_N8Security20CSPFullPluginSession15DigestDataFinalEyRNS_8CssmDataE
Security:single module:__ZNK8Security12UnixPlusPlus6UnixDb3getERKNS_8CssmDataERS2_i
Security:single module:__ZN8Security15CssmManagedDataD2Ev
Security:single module:__ZN8Security15CssmManagedDataD4Ev
Security:single module:__ZN8Security20AclValidationContextD2Ev
Security:single module:__ZN8Security20AclValidationContextD4Ev
Security:single module:__ZN8Security24AclValidationEnvironmentD2Ev
Security:single module:__ZN8Security24AclValidationEnvironmentD4Ev
Security:single module:__ZN8Security10CssmClient7Context8overrideERKNS_7ContextE
Security:single module:_CSSM_SetContext
Security:single module:__ZNK8Security7Context14copyAttributesERP22cssm_context_attributeRmRNS_13CssmAllocatorE
Security:single module:__ZN15AppleCSPSession12lookupRefKeyERKN8Security7CssmKeyE
Security:single module:__ZN15AppleCSPSession12lookupKeyRefEm
Security:single module:__Z29__MIG_check__Reply__decrypt_tP18__Reply__decrypt_t
Security:single module:__ZN8Security10DataOutputD1Ev
Security:single module:__ZN8Security10DataOutputD4Ev
Security:single module:__ZN14SSCryptContext5finalERN8Security8CssmDataE
Security:single module:__ZN9SSContext10copyOutBufERN8Security8CssmDataE
Security:single module:__ZN14SSCryptContextD0Ev
Security:single module:__ZN14SSCryptContextD4Ev
Security:single module:__ZN8Security10CssmClient7KeyImplD2Ev
Security:single module:__ZThn40_N12SSCSPSession7FreeKeyEPKN8Security17AccessCredentialsERNS0_7CssmKeyEl
Security:single module:__ZN12SSCSPSession7FreeKeyEPKN8Security17AccessCredentialsERNS0_7CssmKeyEl
Security:single module:__ZN5SSKey4freeEPKN8Security17AccessCredentialsERNS0_7CssmKeyEl
Security:single module:__ZN8Security13ReferencedKey16freeReferenceKeyERNS_13CssmAllocatorER8cssm_key
Security:single module:__ZN8Security14SecurityServer13ClientSession10releaseKeyEm
Security:single module:_ucsp_client_releaseKey
Security:single module:__ZN18SymmetricBinaryKeyD0Ev
Security:single module:__ZN18SymmetricBinaryKeyD4Ev
Security:single module:__ZN8Security9ObjectAclD2Ev
Security:single module:__ZN8Security9ObjectAclD4Ev
Security:single module:__ZN8Security10AclSubjectD2Ev
Security:single module:__ZN8Security10AclSubjectD4Ev
Security:single module:__ZN8Security23CodeSignatureAclSubjectD0Ev
Security:single module:__ZN8Security23CodeSignatureAclSubjectD4Ev
Security:single module:__Z32__MIG_check__Reply__releaseKey_tP21__Reply__releaseKey_t
Security:single module:__ZN5SSKeyD0Ev
Security:single module:__ZN5SSKeyD4Ev
Security:single module:__ZN8Security13ReferencedKeyD2Ev
Security:single module:__ZN8Security13ReferencedKeyD4Ev
Security:single module:__ZN8Security7KeyPool5eraseERNS_13ReferencedKeyE
Security:single module:__ZN8Security7KeyPool5eraseEm
Security:single module:__ZN8Security12KeychainCore15KCEventNotifier17PostKeychainEventEmRKNS0_8KeychainERKNS0_4ItemE
Security:single module:__ZNK8Security12KeychainCore8ItemImpl10primaryKeyEv
Security:single module:__ZN8Security12KeychainCore15KCEventNotifier17PostKeychainEventEmRKNS_14DLDbIdentifierERKNS0_10PrimaryKeyE
Security:single module:__ZN8Security14SecurityServer13ClientSession16postNotificationEmmRKNS_8CssmDataE
Security:single module:_ucsp_client_postNotification
Security:single module:__Z38__MIG_check__Reply__postNotification_tP27__Reply__postNotification_t
Security:single module:__ZN8Security14SecurityServer13ClientSessionD1Ev
Security:single module:__ZN8Security14SecurityServer13ClientSessionD4Ev
Security:single module:__ZN8Security10CssmClient9DeriveKeyclEPNS_8CssmDataERKNS0_7KeySpecE
Security:single module:__ZN8Security10CssmClient9DeriveKey8activateEv
Security:single module:_CSSM_CSP_CreateDeriveKeyContext
Security:single module:__ZN8Security10CssmClient7KeyImplC1ERKNS0_3CSPE
Security:single module:_CSSM_DeriveKey
Security:single module:__Z14cssm_DeriveKeymyPK12cssm_contextP9cssm_datammPKS2_PK29cssm_resource_control_contextP8cssm_key
Security:single module:__ZN15AppleCSPSession9DeriveKeyEyRKN8Security7ContextERNS0_8CssmDataEmmPKS4_PK29cssm_resource_control_contextRNS0_7CssmKeyE
Security:single module:__ZN15AppleCSPSession16DeriveKey_PBKDF2ERKN8Security7ContextERKNS0_8CssmDataEP9cssm_data
Security:single module:_pbkdf2
Security:single module:_F
Security:single module:_hmacsha1
Security:single module:_hmacInit
Security:single module:_DigestCtxInit
Security:single module:_DigestCtxUpdate
Security:single module:_DigestCtxFinal
Security:single module:_sha1GetDigest
Security:single module:_DigestCtxFree
Security:single module:_freeData
Security:single module:__ZN8Security7CssmKeyC1EmPv
Security:single module:__ZN8Security7CssmKeyC4EmPv
Security:single module:__ZN8Security10CssmClient9UnwrapKeyclERKNS_7CssmKeyERKNS0_7KeySpecE
Security:single module:_fmalloc
Security:single module:__Z8ckMallocj
Security:single module:_spinit
Security:single module:_perminit
Security:single module:__ZN8Security16CSPPluginSession13PluginContext7changedERKNS_7ContextE
Security:single module:__ZN10MacContext4initERKN8Security7ContextEb
Security:single module:_hmacAlloc
Security:single module:__ZN10MacContext6updateERKN8Security8CssmDataE
Security:single module:_hmacUpdate
Security:single module:__ZN10MacContext5finalERKN8Security8CssmDataE
Security:single module:_hmacFinal
Security:single module:__ZN10MacContextD0Ev
Security:single module:__ZN10MacContextD4Ev
Security:single module:_hmacFree
Security:single module:_SecKeychainItemFreeContent
Security:single module:__ZN8Security12KeychainCore8ItemImpl11freeContentEP24SecKeychainAttributeListPv
Security:single module:_SecKeychainItemRelease
Security:single module:__ZN8Security12KeychainCore8ItemImplD1Ev
Security:single module:__ZN8Security12KeychainCore8ItemImplD4Ev
Security:single module:__ZN8Security12KeychainCore14PrimaryKeyImplC1ERK9cssm_data
Security:single module:__ZN8Security12KeychainCore14PrimaryKeyImplC4ERK9cssm_data
Security:single module:__ZN8Security12KeychainCore12KeychainImpl10removeItemERKNS0_10PrimaryKeyEPKNS0_8ItemImplE
Security:single module:__ZN8Security12KeychainCore18KeychainSchemaImplD1Ev
Security:single module:__ZN8Security12KeychainCore18KeychainSchemaImplD4Ev
Security:single module:__ZN8Security10CssmClient6DbImpl5closeEv
Security:single module:_CSSM_DL_DbClose
Security:single module:__Z12cssm_DbClose17cssm_dl_db_handle
Security:single module:__ZThn40_N11SSDLSession7DbCloseEm
Security:single module:__ZN11SSDLSession7DbCloseEm
Security:single module:__ZN11SSDLSession12killDbHandleEm
Security:single module:__ZN8Security15DatabaseSession7DbCloseEm
Security:single module:__ZN8Security15DatabaseManager7dbCloseERNS_9DbContextE
Security:single module:__ZN8Security8Database8_dbCloseERNS_9DbContextE
Security:single module:__ZN8Security13AppleDatabase7dbCloseEv
Security:single module:__ZN8Security10DbModifier13closeDatabaseEv
Security:single module:__ZN8Security9DbVersionD1Ev
Security:single module:__ZN8Security9DbVersionD4Ev
Security:single module:__ZN8Security5TableD1Ev
Security:single module:__ZN8Security5TableD4Ev
Security:single module:__ZN8Security10MetaRecordD1Ev
Security:single module:__ZN8Security10MetaRecordD4Ev
Security:single module:__ZN8Security13MetaAttributeD2Ev
Security:single module:__ZN8Security13MetaAttributeD4Ev
Security:single module:__ZN8Security15DatabaseManager14removeIfUnusedERNS_8DatabaseE
Security:single module:__ZN8Security8Database13hasDbContextsEv
Security:single module:__ZN8Security13AppleDatabaseD0Ev
Security:single module:__ZN8Security13AppleDatabaseD4Ev
Security:single module:__ZN8Security10DbModifierD1Ev
Security:single module:__ZN8Security10DbModifierD4Ev
Security:single module:__ZN8Security10AtomicFileD1Ev
Security:single module:__ZN8Security10AtomicFileD4Ev
Security:single module:__ZN8Security8DatabaseD2Ev
Security:single module:__ZN8Security8DatabaseD4Ev
Security:single module:__ZN8Security14AppleDbContextD0Ev
Security:single module:__ZN8Security14AppleDbContextD4Ev
Security:single module:__ZN8Security9DbContextD2Ev
Security:single module:__ZN8Security9DbContextD4Ev
Security:single module:__ZN14SSDatabaseImplD0Ev
Security:single module:__ZN14SSDatabaseImplD4Ev
Security:single module:__ZN8Security14SecurityServer13ClientSession9releaseDbEm
Security:single module:_ucsp_client_releaseDb
Security:single module:__Z31__MIG_check__Reply__releaseDb_tP20__Reply__releaseDb_t
Security:single module:__ZN8Security9CssmError7throwMeEl
Security:single module:___cxa_allocate_exception
Security:single module:__ZN8Security9CssmErrorC1El
Security:single module:__ZN8Security9CssmErrorC4El
Security:single module:__ZN8Security15CssmCommonErrorC2Ev
Security:single module:__ZN8Security15CssmCommonErrorC4Ev
Security:single module:___cxa_throw
Security:single module:___cxa_get_globals
Security:single module:__Z21get_globals_init_oncev
Security:single module:__Z16get_globals_initv
Security:single module:__Unwind_RaiseException
Security:single module:save_world
Security:single module:_uw_init_context_1
Security:single module:_uw_frame_state_for
Security:single module:__Unwind_Find_FDE
Security:single module:__Unwind_Find_registered_FDE
Security:single module:_examine_objects
Security:single module:_search_object
Security:single module:_init_object
Security:single module:_classify_object_over_fdes
Security:single module:_get_cie_encoding
Security:single module:_read_uleb128
Security:single module:_read_sleb128
Security:single module:_read_encoded_value_with_base
Security:single module:_base_from_object
Security:single module:_size_of_encoded_value
Security:single module:_add_fdes
Security:single module:_fde_split
Security:single module:_fde_single_encoding_compare
Security:single module:_frame_heapsort
Security:single module:_extract_cie_info
Security:single module:_read_uleb128
Security:single module:_read_sleb128
Security:single module:_execute_cfa_program
Security:single module:_size_of_encoded_value
Security:single module:_uw_update_context_1
Security:single module:_base_of_encoded_value
Security:single module:_read_encoded_value_with_base
Security:single module:___gxx_personality_v0
Security:single module:__Unwind_GetLanguageSpecificData
Security:single module:_uw_update_context
Security:single module:__Z17parse_lsda_headerP15_Unwind_ContextPKhP16lsda_header_info
Security:single module:__Unwind_GetRegionStart
Security:single module:__Z12read_uleb128PKhPj
Security:single module:__Z21base_of_encoded_valuehP15_Unwind_Context
Security:single module:__Unwind_GetIP
Security:single module:__Z28read_encoded_value_with_basehjPKhPj
Security:single module:__Z12read_sleb128PKhPi
Security:single module:__Z15get_ttype_entryP16lsda_header_infoj
Security:single module:__Z21size_of_encoded_valueh
Security:single module:__Z16get_adjusted_ptrPKSt9type_infoS1_PPv
Security:single module:__ZNKSt9type_info14__is_pointer_pEv
Security:single module:__ZNK10__cxxabiv117__class_type_info10__do_catchEPKSt9type_infoPPvj
Security:single module:__ZNK10__cxxabiv117__class_type_info11__do_upcastEPKS0_PPv
Security:single module:__ZNK10__cxxabiv120__si_class_type_info11__do_upcastEPKNS_17__class_type_infoEPKvRNS1_15__upcast_resultE
Security:single module:__ZNK10__cxxabiv117__class_type_info11__do_upcastEPKS0_PKvRNS0_15__upcast_resultE
Security:single module:__Unwind_RaiseException_Phase2
Security:single module:__Unwind_SetGR
Security:single module:__Unwind_SetIP
Security:single module:_uw_install_context_1
Security:single module:_init_dwarf_reg_size_table
Security:single module:eh_rest_world_r10
Security:single module:rest_world_eh_r7r8
Security:single module:__Unwind_Resume
Security:single module:___cxa_begin_catch
Security:single module:__ZNK8Security15CssmCommonError9cssmErrorEl
Security:single module:__ZNK8Security9CssmError9cssmErrorEv
Security:single module:__ZN8Security9CssmError5mergeEll
Security:single module:___cxa_end_catch
Security:single module:___cxa_get_globals_fast
Security:single module:__Unwind_DeleteException
Security:single module:__Z23__gxx_exception_cleanup19_Unwind_Reason_CodeP17_Unwind_Exception
Security:single module:__ZN8Security15CssmCommonErrorD2Ev
Security:single module:__ZN8Security15CssmCommonErrorD4Ev
Security:single module:__ZNSt9exceptionD2Ev
Security:single module:__ZNSt9exceptionD4Ev
Security:single module:___cxa_free_exception
Security:single module:_CSSM_ModuleDetach
Security:single module:__ZN8Security12HandleObject5State5eraseERN9__gnu_cxx19_Hashtable_iteratorISt4pairIKmPS0_EmNS2_4hashImEESt10_Select1stIS7_ESt8equal_toImESaIS6_EEE
Security:single module:__ZN10Attachment6detachEb
Security:single module:__ZN8Security10CssmPlugin12moduleDetachEm
Security:single module:__ZN8Security13PluginSession6detachEv
Security:single module:__ZN11SSDLSessionD0Ev
Security:single module:__ZN11SSDLSessionD4Ev
Security:single module:__ZN8Security15DatabaseSessionD2Ev
Security:single module:__ZN8Security15DatabaseSessionD4Ev
Security:single module:__ZN8Security13PluginSessionD2Ev
Security:single module:__ZN8Security13PluginSessionD4Ev
Security:single module:__ZN6Module6detachEP10Attachment
Security:single module:__ZN10AttachmentD2Ev
Security:single module:__ZN10AttachmentD4Ev
Security:single module:__ZN8Security5MutexD2Ev
Security:single module:__ZN8Security10CssmClient6DLImplD0Ev
Security:single module:_CSSM_ModuleUnload
Security:single module:__ZN11CssmManager12unloadModuleERKN8Security4GuidERKNS0_14ModuleCallbackE
Security:single module:__ZN6Module6unloadERKN8Security14ModuleCallbackE
Security:single module:__ZN8Security10CssmPlugin12moduleUnloadERKNS_4GuidES3_RKNS_14ModuleCallbackE
Security:single module:__ZN8Security10CssmPlugin6unloadEv
Security:single module:__ZN8Security17ModuleCallbackSet5eraseERKNS_14ModuleCallbackE
Security:single module:__ZN6ModuleD0Ev
Security:single module:__ZN6ModuleD4Ev
Security:single module:__ZN12MdsComponentD2Ev
Security:single module:__ZN8Security10CssmClient11GenerateMac4signEPKNS_8CssmDataEmRS2_
Security:single module:_CSSM_GenerateMac
Security:single module:__Z16cssm_GenerateMacmyPK12cssm_contextPK9cssm_datamPS2_
Security:single module:__ZThn40_N8Security20CSPFullPluginSession11GenerateMacEyRKNS_7ContextEPKNS_8CssmDataEmRS4_
Security:single module:__ZN8Security20CSPFullPluginSession11GenerateMacEyRKNS_7ContextEPKNS_8CssmDataEmRS4_
Security:single module:__ZN8Security20CSPFullPluginSession15GenerateMacInitEyRKNS_7ContextE
Security:single module:__ZN8Security20CSPFullPluginSession17GenerateMacUpdateEyPKNS_8CssmDataEm
Security:single module:__ZN8Security20CSPFullPluginSession16GenerateMacFinalEyRNS_8CssmDataE
Security:single module:__ZN10MacContext10outputSizeEbm
Security:single module:__ZN10MacContext5finalERN8Security8CssmDataE
Security:single module:__ZN11GAESContextC1ER15AppleCSPSession
Security:single module:__ZN11GAESContextC4ER15AppleCSPSession
Security:single module:__ZN11GladmanInit9genTablesEv
Security:single module:_gen_tabs
Security:single module:__ZN11GAESContext4initERKN8Security7ContextEb
Security:single module:__ZN11GAESContext9deleteKeyEv
Security:single module:_set_key
Security:single module:__ZN11GAESContext12decryptBlockEPKvPvRmb
Security:single module:_rDecrypt
Security:single module:__ZN8Security10CssmClient7Encrypt7encryptEPKNS_8CssmDataEmPS2_mRS2_
Security:single module:_CSSM_EncryptData
Security:single module:__Z16cssm_EncryptDatamyPK12cssm_contextPK9cssm_datamPS2_mPmS5_y
Security:single module:__ZThn40_N8Security20CSPFullPluginSession11EncryptDataEyRKNS_7ContextEPKNS_8CssmDataEmPS4_mRmRS4_y
Security:single module:__ZN8Security20CSPFullPluginSession11EncryptDataEyRKNS_7ContextEPKNS_8CssmDataEmPS4_mRmRS4_y
Security:single module:__ZN11GAESContext12encryptBlockEPKvmPvRmb
Security:single module:_rEncrypt
Security:single module:_SecTrustedApplicationIsUpdateCandidate
Security:single module:__ZN8Security12MachPlusPlus7MessageD1Ev
Security:single module:__ZN8Security12MachPlusPlus7MessageD4Ev
Security:single module:__ZN8Security12MachPlusPlus10MachServer10LoadThread6actionEv
Security:single module:__ZN8Security12MachPlusPlus10MachServer12removeThreadEPNS_6ThreadE
Security:single module:__ZN8Security6Thread6runnerEPv
Security:single module:__ZN8Security6ThreadD2Ev
Security:single module:__ZN8Security6ThreadD4Ev
Security:single module:__Z16get_globals_dtorPv
Security:single module:_SecTrustedApplicationCreateFromPath
Security:single module:__ZN8Security12KeychainCore18TrustedApplicationC1EPKc
Security:single module:__ZN8Security12KeychainCore18TrustedApplicationC4EPKc
Security:single module:__ZN8Security11CodeSigning9OSXSignerC1Ev
Security:single module:__ZN8Security11CodeSigning9OSXSignerC4Ev
Security:single module:__ZN8Security11CodeSigning7OSXCode2atEPKc
Security:single module:__ZNK8Security11CodeSigning13GenericBundle12scanContentsERNS0_6Signer5StateE
Security:single module:__ZNK8Security11CodeSigning13GenericBundle13canonicalPathEv
Security:single module:__ZN8Security11CodeSigning13GenericBundleD0Ev
Security:single module:__ZN8Security10CssmClient7CSPImplD0Ev
Security:single module:__ZN15AppleCSPSessionD0Ev
Security:single module:__ZN15AppleCSPSessionD4Ev
Security:single module:__ZN11GAESContextD0Ev
Security:single module:__ZN11GAESContextD4Ev
Security:single module:_SecTrustedApplicationMakeEquivalent
Security:single module:__ZNK8Security12KeychainCore18TrustedApplication9signatureEv
Security:single module:__ZNK8Security12KeychainCore18TrustedApplication4pathEv
Security:single module:__ZN8Security14SecurityServer13ClientSession18addCodeEquivalenceERKNS_8CssmDataES4_PKcb
Security:single module:_ucsp_client_addCodeEquivalence
Security:single module:__ZN8Security12UnixPlusPlus6UnixDb3putERKNS_8CssmDataES4_i
Security:single module:__ZN8Security12UnixPlusPlus6UnixDb5flushEi
Security:single module:__Z40__MIG_check__Reply__addCodeEquivalence_tP29__Reply__addCodeEquivalence_t
Security:single module:_SecKeychainCopySearchList
Security:single module:__ZN8Security12KeychainCore14StorageManager23convertFromKeychainListERKSt6vectorINS0_8KeychainESaIS3_EE
Security:single module:_SecKeychainSearchCreateFromAttributes
Security:single module:__ZN8Security12KeychainCore14StorageManager21convertToKeychainListEPK9__CFArrayRSt6vectorINS0_8KeychainESaIS6_EE
Security:single module:_SecKeychainSearchCopyNext
Security:single module:__ZN8Security12KeychainCore6Schema12itemClassForEm
Security:single module:__ZN8Security12KeychainCore7CFClass8hashTypeEPKv
Security:single module:__ZN8Security12KeychainCore11SecCFObject4hashEv
Security:single module:__ZN8Security12KeychainCore7CFClass9equalTypeEPKvS3_
Security:single module:__ZN8Security12KeychainCore11SecCFObject5equalERS1_
Security:single module:__ZN8Security12MachPlusPlus10MachServer10clearTimerEPNS1_5TimerE
Security:single module:_SSLNewContext
Security:single module:_sslMalloc
Security:single module:_attachToAll
Security:single module:_attachToModules
Security:single module:__ZN14ModuleAttacher14loadAllModulesERmS0_S0_
Security:single module:__ZN14ModuleAttacher10loadModuleEmPK9cssm_guidPKc
Security:single module:__ZN14ModuleAttacher8initCssmEv
Security:single module:__ZN11AppleX509CL11makeSessionEmRK12cssm_versionmmmRK12cssm_upcalls
Security:single module:__ZN18AppleX509CLSessionC1EmRN8Security10CssmPluginERK12cssm_versionmmmRK12cssm_upcalls
Security:single module:__ZN18AppleX509CLSessionC4EmRN8Security10CssmPluginERK12cssm_versionmmmRK12cssm_upcalls
Security:single module:__ZN8Security15CLPluginSession9constructEv
Security:single module:__ZN7AppleTP11makeSessionEmRK12cssm_versionmmmRK12cssm_upcalls
Security:single module:__ZN14AppleTPSessionC1EmRN8Security10CssmPluginERK12cssm_versionmmmRK12cssm_upcalls
Security:single module:__ZN14AppleTPSessionC4EmRN8Security10CssmPluginERK12cssm_versionmmmRK12cssm_upcalls
Security:single module:__ZN8Security15TPPluginSession9constructEv
Security:single module:_SSLSetAllowsExpiredCerts
Security:single module:_sslIsSessionActive
Security:single module:_SSLSetAllowsExpiredRoots
Security:single module:_SSLSetAllowsAnyRoot
Security:single module:_SSLSetEnableCertVerify
Security:single module:_SSLSetPeerDomainName
Security:single module:_SSLSetProtocolVersion
Security:single module:_SSLGetSessionState
Security:single module:_SSLSetIOFuncs
Security:single module:_SSLSetConnection
Security:single module:_SSLDisposeContext
Security:single module:_sslDeleteCertificateChain
Security:single module:_SSLFreeBuffer
Security:single module:_sslFree
Security:single module:_sslFreeKey
Security:single module:_CloseHash
Security:single module:_SSLDisposeCipherSuite
Security:single module:__Z11ssl3FreeMacP13CipherContext
Security:single module:__Z19sslFreeTrustedRootsP10SSLContext
Security:single module:__Z13sslFreeDnListP10SSLContext
Security:single module:_detachFromAll
Security:single module:_sslCleanupSession
Security:single module:__ZN12SessionCache7cleanupEv
Security:single module:_SSLHandshake
Security:single module:_sslBuildCipherSpecArray
Security:single module:__Z19SSLHandshakeProceedP10SSLContext
Security:single module:__Z17SSLInitConnectionP10SSLContext
Security:single module:_SSL2AdvanceHandshake
Security:single module:_SSLInitMessageHashes
Security:single module:_ReadyHash
Security:single module:_SSLAllocBuffer
Security:single module:__Z12HashSHA1InitR9SSLBufferP10SSLContext
Security:single module:__Z12cdsaHashInitR9SSLBufferP10SSLContextm
Security:single module:_attachToCsp
Security:single module:_stAppMalloc
Security:single module:_stAppFree
Security:single module:__Z11HashMD5InitR9SSLBufferP10SSLContext
Security:single module:__ZN9MD5Object10digestInitEv
Security:single module:_MD5Init
Security:single module:_SSL2PrepareAndQueueMessage
Security:single module:_SSL2EncodeClientHello
Security:single module:_sslGetMaxProtVersion
Security:single module:_SSLEncodeInt
Security:single module:_sslRand
Security:single module:__ZN8Security18DevRandomGeneratorC1Eb
Security:single module:__ZN8Security18DevRandomGeneratorC4Eb
Security:single module:__ZN8Security12UnixPlusPlus8FileDesc4openEPKcit
Security:single module:_ssl3WriteRecord
Security:single module:_SSL2WriteRecord
Security:single module:__Z9NullCrypt9SSLBufferS_P13CipherContextP10SSLContext
Security:single module:_IncrementUInt64
Security:single module:__Z14cdsaHashUpdateR9SSLBufferRKS_
Security:single module:__ZN9MD5Object12digestUpdateEPKvm
Security:single module:_MD5Update
Security:single module:_MD5Transform
Security:single module:__Z20SSLServiceWriteQueueP10SSLContext
Security:single module:_sslIoWrite
Security:single module:_SSLReadRecord
Security:single module:_sslIoRead
Security:single module:_SSLDecodeInt
Security:single module:__Z17ssl3DecryptRecordhP9SSLBufferP10SSLContext
Security:single module:__Z25SSLProcessProtocolMessageR9SSLRecordP10SSLContext
Security:single module:_SSLProcessHandshakeRecord
Security:single module:__Z26SSLProcessHandshakeMessage15SSLHandshakeMsgP10SSLContext
Security:single module:_SSLProcessServerHello
Security:single module:_sslVerifyProtVersion
Security:single module:_FindCipherSpec
Security:single module:_sslVerifyNegotiatedCipher
Security:single module:_SSLAdvanceHandshake
Security:single module:__Z17tls1DecryptRecordhP9SSLBufferP10SSLContext
Security:single module:_SSLProcessCertificate
Security:single module:_sslVerifyCertChain
Security:single module:_SSLGetCertificateChainLength
Security:single module:_SecCertificateCreateFromData
Security:single module:__ZN8Security12KeychainCore11CertificateC1ERK9cssm_datamm
Security:single module:__ZN8Security12KeychainCore11CertificateC4ERK9cssm_datamm
Security:single module:__ZN8Security12KeychainCore8ItemImplC2EmP24SecKeychainAttributeListmPKv
Security:single module:__ZN8Security12KeychainCore8ItemImplC4EmP24SecKeychainAttributeListmPKv
Security:single module:__ZN8Security12KeychainCore11Certificate9clForTypeEm
Security:single module:__ZN8Security10CssmClient6CLImplC1ERKNS_4GuidE
Security:single module:__ZN8Security10CssmClient6CLImplC4ERKNS_4GuidE
Security:single module:_SecPolicySearchCreate
Security:single module:__ZN8Security12KeychainCore12PolicyCursorC1EPK9cssm_dataS4_
Security:single module:__ZN8Security12KeychainCore12PolicyCursorC4EPK9cssm_dataS4_
Security:single module:_SecPolicySearchCopyNext
Security:single module:__ZN8Security12KeychainCore12PolicyCursor4nextERNS0_10SecPointerINS0_6PolicyEEE
Security:single module:__ZN8Security10CssmClient6TPImplC1ERKNS_4GuidE
Security:single module:__ZN8Security10CssmClient6TPImplC4ERKNS_4GuidE
Security:single module:__ZN8Security12KeychainCore6PolicyC1ENS_10CssmClient2TPERKNS_8CssmDataE
Security:single module:__ZN8Security12KeychainCore6PolicyC4ENS_10CssmClient2TPERKNS_8CssmDataE
Security:single module:_SecPolicySetValue
Security:single module:_SecTrustCreateWithCertificates
Security:single module:__ZN8Security12KeychainCore5TrustC1EPKvS3_
Security:single module:__ZN8Security12KeychainCore5TrustC4EPKvS3_
Security:single module:_SecTrustSetParameters
Security:single module:_SecTrustSetKeychains
Security:single module:_SecTrustEvaluate
Security:single module:__ZN8Security12KeychainCore5Trust8evaluateEv
Security:single module:__ZN8Security12KeychainCore5Trust12clearResultsEv
Security:single module:__Z17cfCertificateDataP23OpaqueSecCertificateRef
Security:single module:__ZN8Security12KeychainCore11Certificate4dataEv
Security:single module:__ZN8Security9CertGroupC1Emmm
Security:single module:__ZN8Security9CertGroupC4Emmm
Security:single module:__ZN8Security10CssmClient20TPBuildVerifyContextC1EmRNS_13CssmAllocatorE
Security:single module:__ZN8Security10CssmClient20TPBuildVerifyContextC4EmRNS_13CssmAllocatorE
Security:single module:__Z7cfFieldP18OpaqueSecPolicyRef
Security:single module:__ZN8Security12KeychainCore10TrustStoreC1ERNS_13CssmAllocatorE
Security:single module:__ZN8Security12KeychainCore10TrustStoreC4ERNS_13CssmAllocatorE
Security:single module:__ZN8Security12KeychainCore10TrustStore20copyRootCertificatesEv
Security:single module:__ZN8Security12KeychainCore10TrustStore20loadRootCertificatesEv
Security:single module:__ZN8Security12KeychainCore10TrustStore23refreshRootCertificatesEv
Security:single module:__ZN8Security10CssmClient6DLImplC1ERKNS_4GuidE
Security:single module:__ZN8Security10CssmClient6DLImplC4ERKNS_4GuidE
Security:single module:__ZThn64_N8Security10CssmClient6DLImpl5newDbEPKcPK16cssm_net_address
Security:single module:__ZN8Security10CssmClient6DLImpl5newDbEPKcPK16cssm_net_address
Security:single module:__ZN8Security10CssmClient6DbImplC1ERKNS0_2DLEPKcPK16cssm_net_address
Security:single module:__ZThn24_N8Security10CssmClient6DbImpl17newDbUniqueRecordEv
Security:single module:__ZN8Security10CssmClient6DbImpl17newDbUniqueRecordEv
Security:single module:__ZN8Security10CssmClient18DbUniqueRecordImplC1ERKNS0_2DbE
Security:single module:__ZN8Security10CssmClient18DbUniqueRecordImplD0Ev
Security:single module:__ZN8Security10CssmClient6DbImplD0Ev
Security:single module:__ZN8Security10CssmClient6TPImpl15certGroupVerifyERKNS_9CertGroupERKNS_15TPVerifyContextEPNS_14TPVerifyResultE
Security:single module:__ZN8Security10CssmClient6TPImpl7setupCLEv
Security:single module:__ZN8Security10CssmClient6TPImpl8setupCSPEv
Security:single module:_CSSM_TP_CertGroupVerify
Security:single module:__Z20cssm_CertGroupVerifymmmPK14cssm_certgroupPK22cssm_tp_verify_contextP29cssm_tp_verify_context_result
Security:single module:__ZThn40_N14AppleTPSession15CertGroupVerifyEmmRK14cssm_certgroupPK22cssm_tp_verify_contextP29cssm_tp_verify_context_result
Security:single module:__ZN14AppleTPSession15CertGroupVerifyEmmRK14cssm_certgroupPK22cssm_tp_verify_contextP29cssm_tp_verify_context_result
Security:single module:__ZN11TPCertGroupC1ERN8Security13CssmAllocatorE12TPGroupOwner
Security:single module:__ZN11TPCertGroupC4ERN8Security13CssmAllocatorE12TPGroupOwner
Security:single module:__ZN11TPCertGroupC1ERK14cssm_certgroupmmRN8Security13CssmAllocatorEPKcb12TPGroupOwner
Security:single module:__ZN11TPCertGroupC4ERK14cssm_certgroupmmRN8Security13CssmAllocatorEPKcb12TPGroupOwner
Security:single module:__ZN10TPCertInfoC1EmmPK9cssm_data10TPItemCopyPKc
Security:single module:__ZN10TPCertInfoC4EmmPK9cssm_data10TPItemCopyPKc
Security:single module:__ZN12TPClItemInfoC2EmmRK13TPClItemCallsPK9cssm_data10TPItemCopyPKc
Security:single module:__ZN12TPClItemInfoC4EmmRK13TPClItemCallsPK9cssm_data10TPItemCopyPKc
Security:single module:__ZN12TPClItemInfo9cacheItemEPK9cssm_data10TPItemCopy
Security:single module:_CSSM_CL_CertCache
Security:single module:__Z14cssm_CertCachemPK9cssm_dataPm
Security:single module:__ZThn40_N18AppleX509CLSession9CertCacheERKN8Security8CssmDataERm
Security:single module:__ZN18AppleX509CLSession9CertCacheERKN8Security8CssmDataERm
Security:single module:__ZN11DecodedCertC1ER18AppleX509CLSessionRKN8Security8CssmDataE
Security:single module:__ZN11DecodedCertC4ER18AppleX509CLSessionRKN8Security8CssmDataE
Security:single module:__ZN11DecodedItemC2ER18AppleX509CLSession
Security:single module:__ZN11DecodedItemC4ER18AppleX509CLSession
Security:single module:__ZN11SecNssCoderC1Ej
Security:single module:__ZN11SecNssCoderC4Ej
Security:single module:_PORT_NewArena
Security:single module:_PORT_ZAlloc
Security:single module:_PR_Calloc
Security:single module:_PR_NewLock
Security:single module:_PR_Malloc
Security:single module:_PL_InitArenaPool
Security:single module:_PR_CeilingLog2
Security:single module:__ZN17DecodedExtensionsC1ER11SecNssCoderRN8Security13CssmAllocatorE
Security:single module:__ZN17DecodedExtensionsC4ER11SecNssCoderRN8Security13CssmAllocatorE
Security:single module:__ZN11SecNssCoder6decodeEPKvmPK23sec_ASN1Template_structPv
Security:single module:_SEC_ASN1Decode
Security:single module:_SEC_ASN1DecoderStart
Security:single module:_PORT_ArenaZAlloc
Security:single module:_PORT_ArenaAlloc
Security:single module:_PR_Lock
Security:single module:_PL_ArenaAllocate
Security:single module:_LockArena
Security:single module:_UnlockArena
Security:single module:_PR_Unlock
Security:single module:_sec_asn1d_push_state
Security:single module:_sec_asn1d_zalloc
Security:single module:_sec_asn1d_alloc
Security:single module:_sec_asn1d_init_state_based_on_template
Security:single module:_sec_asn1d_scrub_state
Security:single module:_SEC_ASN1DecoderUpdate
Security:single module:_sec_asn1d_parse_identifier
Security:single module:_sec_asn1d_confirm_identifier
Security:single module:_sec_asn1d_parse_length
Security:single module:_sec_asn1d_parse_more_length
Security:single module:_sec_asn1d_prepare_for_contents
Security:single module:_PORT_ArenaMark
Security:single module:_sec_asn1d_notify_before
Security:single module:_SEC_ASN1GetSubtemplate
Security:single module:_sec_asn1d_parse_leaf
Security:single module:_sec_asn1d_prepare_for_end_of_contents
Security:single module:_sec_asn1d_pop_state
Security:single module:_sec_asn1d_free_child
Security:single module:_sec_asn1d_absorb_child
Security:single module:_PORT_ArenaRelease
Security:single module:_sec_asn1d_next_in_sequence
Security:single module:_sec_asn1d_notify_after
Security:single module:_sec_asn1d_record_any_header
Security:single module:_sec_asn1d_add_to_subitems
Security:single module:_sec_asn1d_next_substring
Security:single module:_sec_asn1d_concat_substrings
Security:single module:_sec_asn1d_reuse_encoding
Security:single module:__Z14NSS_ATVChooserPviPKcS_
Security:single module:_NSS_TaggedTemplateChooser
Security:single module:_sec_asn1d_next_in_group
Security:single module:_sec_asn1d_concat_group
Security:single module:_NSS_TimeChooser
Security:single module:_sec_asn1d_parse_bit_string
Security:single module:_sec_asn1d_parse_more_bit_string
Security:single module:_SEC_ASN1DecoderFinish
Security:single module:_PORT_FreeArena
Security:single module:_PL_FinishArenaPool
Security:single module:_FreeArenaList
Security:single module:_PR_Free
Security:single module:_PORT_ZFree
Security:single module:_PR_DestroyLock
Security:single module:__ZN17DecodedExtensions13decodeFromNssEPP17NSS_CertExtension
Security:single module:__Z14clNssArraySizePPKv
Security:single module:_clOidToNssInfo
Security:single module:__Z17clCompareCssmDataPK9cssm_dataS1_
Security:single module:__ZN11SecNssCoder6mallocEm
Security:single module:__Z15clNssBoolToCssmRK9cssm_data
Security:single module:__ZN17DecodedExtensions12addExtensionERK9cssm_databPvbPK23sec_ASN1Template_structPS1_
Security:single module:__ZN8Security13PluginSession7reallocEPvm
Security:single module:__ZN10Attachment13upcallReallocEmPvm
Security:single module:__ZN8Security28CssmMemoryFunctionsAllocator7reallocEPvm
Security:single module:__ZN8Security28CssmAllocatorMemoryFunctions12relayReallocEPvmS1_
Security:single module:__ZN12DecodedExtenC1ERK9cssm_databPvbPK23sec_ASN1Template_structR11SecNssCoderPS1_
Security:single module:__ZN12DecodedExtenC4ERK9cssm_databPvbPK23sec_ASN1Template_structR11SecNssCoderPS1_
Security:single module:__ZN11SecNssCoder13allocCopyItemEPKvmR9cssm_data
Security:single module:__ZN11SecNssCoder9allocItemER9cssm_datam
Security:single module:__ZN13CLCachedEntryC2Ev
Security:single module:__ZN13CLCachedEntryC4Ev
Security:single module:__ZN12TPClItemInfo10fetchFieldEPK9cssm_dataPPS0_
Security:single module:_CSSM_CL_CertGetFirstCachedFieldValue
Security:single module:__Z33cssm_CertGetFirstCachedFieldValuemmPK9cssm_dataPmS2_PPS_
Security:single module:__ZThn40_N18AppleX509CLSession28CertGetFirstCachedFieldValueEmRKN8Security8CssmDataERmRP9cssm_data
Security:single module:__ZN18AppleX509CLSession28CertGetFirstCachedFieldValueEmRKN8Security8CssmDataERmRP9cssm_data
Security:single module:__ZN18AppleX509CLSession16lookupCachedCertEm
Security:single module:__ZN11DecodedCert16getCertFieldDataERKN8Security8CssmDataEjRmRNS0_13CssmOwnedDataE
Security:single module:__Z11oidToFieldsRKN8Security8CssmDataE
Security:single module:__Z18getFieldIssuerNormR11DecodedItemjRmRN8Security13CssmOwnedDataE
Security:single module:_getField_normRDN_NSS
Security:single module:__Z23CL_normalizeX509NameNSSR8NSS_NameR11SecNssCoder
Security:single module:__Z18CL_normalizeStringPcRi
Security:single module:__Z21SecNssEncodeItemOdataPKvPK23sec_ASN1Template_structRN8Security13CssmOwnedDataE
Security:single module:__Z16SecNssEncodeItemPKvPK23sec_ASN1Template_structRN8Security13CssmAllocatorER9cssm_data
Security:single module:_SEC_ASN1Encode
Security:single module:_SEC_ASN1EncoderStart
Security:single module:_sec_asn1e_push_state
Security:single module:_sec_asn1e_init_state_based_on_template
Security:single module:_sec_asn1e_scrub_state
Security:single module:_SEC_ASN1EncoderUpdate
Security:single module:_sec_asn1e_write_header
Security:single module:_sec_asn1e_contents_length
Security:single module:_SEC_ASN1LengthLength
Security:single module:_sec_asn1e_write_identifier_bytes
Security:single module:_sec_asn1e_write_part
Security:single module:_sec_asn1e_encode_item_count
Security:single module:_sec_asn1e_write_length_bytes
Security:single module:_SEC_ASN1EncodeLength
Security:single module:_sec_asn1e_notify_before
Security:single module:_sec_asn1e_write_contents
Security:single module:_sec_asn1e_write_contents_bytes
Security:single module:_sec_asn1e_after_contents
Security:single module:_sec_asn1e_next_in_sequence
Security:single module:_sec_asn1e_notify_after
Security:single module:_sec_asn1e_next_in_group
Security:single module:_SEC_ASN1EncoderFinish
Security:single module:_sec_asn1e_encode_item_store
Security:single module:__ZN11SecNssCoderD1Ev
Security:single module:__ZN11SecNssCoderD4Ev
Security:single module:__ZN7CLQueryC1E11CLQueryTypeRKN8Security8CssmDataEjbm
Security:single module:__ZN7CLQueryC4E11CLQueryTypeRKN8Security8CssmDataEjbm
Security:single module:__ZN8Security12CssmAutoData7releaseEv
Security:single module:_CSSM_CL_CertAbortQuery
Security:single module:__Z19cssm_CertAbortQuerymm
Security:single module:__ZThn40_N18AppleX509CLSession14CertAbortQueryEm
Security:single module:__ZN18AppleX509CLSession14CertAbortQueryEm
Security:single module:__ZN7CLQueryD1Ev
Security:single module:__ZN7CLQueryD4Ev
Security:single module:__Z17getField_TbsAlgIdR11DecodedItemjRmRN8Security13CssmOwnedDataE
Security:single module:_tbsGetCheck
Security:single module:_getField_AlgIdNSS
Security:single module:__Z12CL_copyAlgIdRK30cssm_x509_algorithm_identifierRS_RN8Security13CssmAllocatorE
Security:single module:__Z15clAllocCopyDataRN8Security13CssmAllocatorERK9cssm_dataRS2_
Security:single module:__Z11clAllocDataRN8Security13CssmAllocatorER9cssm_datam
Security:single module:_cssmOidToAlg
Security:single module:_compareCssmData
Security:single module:__ZN12TPClItemInfo9freeFieldEPK9cssm_dataPS0_
Security:single module:_CSSM_CL_FreeFieldValue
Security:single module:__Z19cssm_FreeFieldValuemPK9cssm_dataPS_
Security:single module:__ZThn40_N18AppleX509CLSession14FreeFieldValueERKN8Security8CssmDataERS1_
Security:single module:__ZN18AppleX509CLSession14FreeFieldValueERKN8Security8CssmDataERS1_
Security:single module:__ZN11DecodedCert17freeCertFieldDataERKN8Security8CssmDataERNS0_13CssmOwnedDataE
Security:single module:_freeField_AlgId
Security:single module:__ZN8Security14CssmRemoteData5resetEv
Security:single module:__ZN8Security14CssmRemoteData7releaseEv
Security:single module:__ZN12TPClItemInfo19fetchNotBeforeAfterEv
Security:single module:__Z18getField_NotBeforeR11DecodedItemjRmRN8Security13CssmOwnedDataE
Security:single module:_getField_TimeNSS
Security:single module:__Z16CL_nssTimeToCssmRK14NSS_TaggedItemR14cssm_x509_timeRN8Security13CssmAllocatorE
Security:single module:_timeStringToTm
Security:single module:__Z17getField_NotAfterR11DecodedItemjRmRN8Security13CssmOwnedDataE
Security:single module:_freeField_Time
Security:single module:__Z15CL_freeCssmTimeP14cssm_x509_timeRN8Security13CssmAllocatorE
Security:single module:__ZN12TPClItemInfo16calculateCurrentEPKc
Security:single module:_nowTime
Security:single module:_compareTimes
Security:single module:__Z19getFieldSubjectNormR11DecodedItemjRmRN8Security13CssmOwnedDataE
Security:single module:_CSSM_CL_CertGetKeyInfo
Security:single module:__Z19cssm_CertGetKeyInfomPK9cssm_dataPP8cssm_key
Security:single module:__ZThn40_N18AppleX509CLSession14CertGetKeyInfoERKN8Security8CssmDataERP8cssm_key
Security:single module:__ZN18AppleX509CLSession14CertGetKeyInfoERKN8Security8CssmDataERP8cssm_key
Security:single module:__ZNK11DecodedCert14extractCSSMKeyERN8Security13CssmAllocatorE
Security:single module:__Z20CL_extractCSSMKeyNSSRK33cssm_x509_subject_public_key_infoRN8Security13CssmAllocatorEPK11DecodedCert
Security:single module:__Z11CL_oidToAlgRK9cssm_data
Security:single module:__ZNK11DecodedCert13inferKeyUsageEv
Security:single module:__ZNK11DecodedItem14findDecodedExtERK9cssm_databmRm
Security:single module:__ZNK17DecodedExtensions12getExtensionEj
Security:single module:__Z21clBitStringToKeyUsageRK9cssm_data
Security:single module:_getGlobalCspHand
Security:single module:__ZN11CSPAttacher10getCspHandEb
Security:single module:_CSSM_QueryKeySizeInBits
Security:single module:__Z23cssm_QueryKeySizeInBitsmyPK12cssm_contextPK8cssm_keyP13cssm_key_size
Security:single module:__ZThn40_N8Security20CSPFullPluginSession18QueryKeySizeInBitsEyPKNS_7ContextEPKNS_7CssmKeyER13cssm_key_size
Security:single module:__ZN8Security20CSPFullPluginSession18QueryKeySizeInBitsEyPKNS_7ContextEPKNS_7CssmKeyER13cssm_key_size
Security:single module:__ZN15AppleCSPSession10getKeySizeERKN8Security7CssmKeyER13cssm_key_size
Security:single module:__ZN18RSAKeyInfoProviderC4ERKN8Security7CssmKeyER15AppleCSPSession
Security:single module:__ZN18RSAKeyInfoProvider18QueryKeySizeInBitsER13cssm_key_size
Security:single module:_rawCssmKeyToRsa
Security:single module:_RSA_new
Security:single module:_RSA_new_method
Security:single module:_RSA_PKCS1_SSLeay
Security:single module:_CRYPTO_malloc
Security:single module:__Z8osMallocm
Security:single module:_RSA_eay_init
Security:single module:_CRYPTO_new_ex_data
Security:single module:_RSAPublicKeyDecode
Security:single module:_BN_new
Security:single module:_BN_bin2bn
Security:single module:_bn_expand2
Security:single module:_RSA_size
Security:single module:_BN_num_bits
Security:single module:_RSA_free
Security:single module:_CRYPTO_add_lock
Security:single module:_CRYPTO_free_ex_data
Security:single module:_RSA_eay_finish
Security:single module:_BN_clear_free
Security:single module:_CRYPTO_free
Security:single module:__Z6osFreePv
Security:single module:__ZN11DecodedCertD1Ev
Security:single module:__ZN11DecodedCertD4Ev
Security:single module:__ZN11DecodedItemD2Ev
Security:single module:__ZN11DecodedItemD4Ev
Security:single module:__ZN17DecodedExtensionsD1Ev
Security:single module:__ZN17DecodedExtensionsD4Ev
Security:single module:__ZN12DecodedExtenD1Ev
Security:single module:__ZN12DecodedExtenD4Ev
Security:single module:_tpCompareCssmData
Security:single module:__ZN11TPCertGroup10appendCertEP10TPCertInfo
Security:single module:__ZN14AppleTPSession22CertGroupConstructPrivEmmR11TPCertGroupPK15cssm_dl_db_listPKcmPK9cssm_datamS1_RlSA_S1_
Security:single module:__ZN11TPCertGroup11certAtIndexEj
Security:single module:__ZN11TPCertGroup12setAllUnusedEv
Security:single module:__ZN11TPCertGroup14buildCertGroupERK12TPClItemInfoPS_PK15cssm_dl_db_listmmPKcmPK9cssm_dataRS_S3_lmRlSD_
Security:single module:__ZN11TPCertGroup8lastCertEv
Security:single module:__ZN11TPCertGroup22findIssuerForCertOrCrlERK12TPClItemInfoRb
Security:single module:__ZN10TPCertInfo10isIssuerOfERK12TPClItemInfo
Security:single module:_tpDbFindIssuerCert
Security:single module:__Z19cssm_CertAbortCachemm
Security:single module:__ZThn40_N18AppleX509CLSession14CertAbortCacheEm
Security:single module:__ZN18AppleX509CLSession14CertAbortCacheEm
Security:single module:__ZN12CLCachedCertD0Ev
Security:single module:__ZN12CLCachedCertD4Ev
Security:single module:__ZN11DecodedCertD0Ev
Security:single module:_CSSM_CL_CertAbortCache
Security:single module:__ZN12TPClItemInfo16releaseResourcesEv
Security:single module:__ZN10TPCertInfoD4Ev
Security:single module:__ZN12TPClItemInfoD2Ev
Security:single module:__ZN12TPClItemInfoD4Ev
Security:single module:__ZNK12TPClItemInfo16verifyWithIssuerEP10TPCertInfoS1_
Security:single module:__ZN10TPCertInfo13hasPartialKeyEv
Security:single module:_CSSM_CSP_CreateSignatureContext
Security:single module:_CSSM_CL_CertVerify
Security:single module:__Z15cssm_CertVerifymyPK9cssm_dataS1_PK10cssm_fieldm
Security:single module:__ZThn40_N18AppleX509CLSession10CertVerifyEyRKN8Security8CssmDataEPS2_PK10cssm_fieldm
Security:single module:__ZN18AppleX509CLSession10CertVerifyEyRKN8Security8CssmDataEPS2_PK10cssm_fieldm
Security:single module:__Z26CL_certCrlDecodeComponentsRKN8Security8CssmDataERNS_13CssmOwnedDataES4_S4_
Security:single module:__ZN18AppleX509CLSession10verifyDataEyRKN8Security8CssmDataES3_
Security:single module:_CSSM_VerifyData
Security:single module:__Z15cssm_VerifyDatamyPK12cssm_contextPK9cssm_datammS4_
Security:single module:__ZThn40_N8Security20CSPFullPluginSession10VerifyDataEyRKNS_7ContextEPKNS_8CssmDataEmmRS5_
Security:single module:__ZN8Security20CSPFullPluginSession10VerifyDataEyRKNS_7ContextEPKNS_8CssmDataEmmRS5_
Security:single module:__ZN8Security20CSPFullPluginSession14VerifyDataInitEyRKNS_7ContextE
Security:single module:__ZN16SignatureContext4initERKN8Security7ContextEb
Security:single module:__ZN9RSASigner10signerInitERKN8Security7ContextEb
Security:single module:__ZN9RSASigner14keyFromContextERKN8Security7ContextE
Security:single module:_contextToRsaKey
Security:single module:_cssmKeyToRsa
Security:single module:_RSA_blinding_off
Security:single module:__ZN8Security20CSPFullPluginSession16VerifyDataUpdateEyPKNS_8CssmDataEm
Security:single module:__ZN16SignatureContext6updateERKN8Security8CssmDataE
Security:single module:__ZN8Security20CSPFullPluginSession15VerifyDataFinalEyRKNS_8CssmDataE
Security:single module:__ZN16SignatureContext5finalERKN8Security8CssmDataE
Security:single module:__ZN9RSASigner6verifyEPKvmS1_m
Security:single module:_generateDigestInfo
Security:single module:_RSA_public_decrypt
Security:single module:_RSA_eay_public_decrypt
Security:single module:_BN_init
Security:single module:_BN_CTX_new
Security:single module:_BN_MONT_CTX_new
Security:single module:_BN_MONT_CTX_set
Security:single module:_BN_copy
Security:single module:_BN_set_word
Security:single module:_BN_set_bit
Security:single module:_BN_mod_inverse
Security:single module:_BN_CTX_start
Security:single module:_BN_CTX_get
Security:single module:_BN_div
Security:single module:_BN_ucmp
Security:single module:_BN_lshift
Security:single module:_bn_div_words
Security:single module:_BN_num_bits_word
Security:single module:_bn_mul_words
Security:single module:_BN_sub
Security:single module:_BN_usub
Security:single module:_BN_rshift
Security:single module:_BN_CTX_end
Security:single module:_BN_mul
Security:single module:_BN_add
Security:single module:_BN_uadd
Security:single module:_bn_add_words
Security:single module:_bn_mul_normal
Security:single module:_BN_mod
Security:single module:_BN_sub_word
Security:single module:_BN_free
Security:single module:_BN_mod_exp_mont
Security:single module:_BN_mod_mul_montgomery
Security:single module:_bn_mul_recursive
Security:single module:_bn_cmp_words
Security:single module:_bn_sub_words
Security:single module:_bn_mul_comba8
Security:single module:_BN_from_montgomery
Security:single module:_bn_mul_add_words
Security:single module:_BN_value_one
Security:single module:_BN_is_bit_set
Security:single module:_BN_sqr
Security:single module:_bn_sqr_recursive
Security:single module:_bn_sqr_comba8
Security:single module:_BN_bn2bin
Security:single module:_RSA_padding_check_PKCS1_type_1
Security:single module:_BN_CTX_free
Security:single module:__Z14CL_freeCSSMKeyP8cssm_keyRN8Security13CssmAllocatorEb
Security:single module:__ZN16SignatureContextD0Ev
Security:single module:__ZN16SignatureContextD4Ev
Security:single module:__ZN9RSASignerD0Ev
Security:single module:__ZN9RSASignerD4Ev
Security:single module:_BN_MONT_CTX_free
Security:single module:__ZN10TPCertInfoD1Ev
Security:single module:__ZN10TPCertInfo16releaseResourcesEv
Security:single module:_tpFreePluginMemory
Security:single module:_CSSM_GetAPIMemoryFunctions
Security:single module:__ZN10TPCrlGroupC4EPK13cssm_crlgroupmmRN8Security13CssmAllocatorEPKc12TPGroupOwner
Security:single module:_tp_policyVerify
Security:single module:__Z16iSignGetCertInfoRN8Security13CssmAllocatorEP10TPCertInfoP13iSignCertInfo
Security:single module:__Z19iSignFetchExtensionRN8Security13CssmAllocatorEP10TPCertInfoPK9cssm_dataP14iSignExtenInfo
Security:single module:_getFieldAuthorityKeyId
Security:single module:__Z26CL_nssAuthorityKeyIdToCssmRK18NSS_AuthorityKeyIdR17CE_AuthorityKeyIDR11SecNssCoderRN8Security13CssmAllocatorE
Security:single module:_getFieldExtenCommon
Security:single module:__ZNK12DecodedExten13convertToCdsaEPvP19cssm_x509_extensionRN8Security13CssmAllocatorE
Security:single module:__Z16tpSetupExtensionRN8Security13CssmAllocatorEP9cssm_dataP14iSignExtenInfo
Security:single module:_getFieldSubjectKeyId
Security:single module:_getFieldKeyUsage
Security:single module:__Z20clNssBitStringToCssmR9cssm_data
Security:single module:_getFieldExtKeyUsage
Security:single module:_getFieldBasicConstraints
Security:single module:_getFieldNetscapeCertType
Security:single module:_getFieldSubjAltName
Security:single module:__Z28iSignSearchUnknownExtensionsP10TPCertInfoP13iSignCertInfo
Security:single module:_getFieldUnknownExt
Security:single module:_freeFieldUnknownExt
Security:single module:_verifySetFreeExtension
Security:single module:_freeFieldExtenCommon
Security:single module:_CSSM_CL_CertGetNextCachedFieldValue
Security:single module:__Z32cssm_CertGetNextCachedFieldValuemmPP9cssm_data
Security:single module:__ZThn40_N18AppleX509CLSession27CertGetNextCachedFieldValueEmRP9cssm_data
Security:single module:__ZN18AppleX509CLSession27CertGetNextCachedFieldValueEmRP9cssm_data
Security:single module:__ZN18AppleX509CLSession21CertGetNextFieldValueEmRP9cssm_data
Security:single module:__Z16tp_verifySslOptsR11TPCertGroupPK9cssm_dataRK13iSignCertInfo
Security:single module:_tpToLower
Security:single module:__Z23tpCompareSubjectAltNameRK14iSignExtenInfoPKcm21SubjAltNameSearchTypeRbS5_
Security:single module:__Z11tpIsNumericPKcj
Security:single module:__Z20tpCompareSubjectNameR10TPCertInfo22SubjSubjNameSearchTypePKcmRb
Security:single module:__Z16getField_SubjectR11DecodedItemjRmRN8Security13CssmOwnedDataE
Security:single module:_getField_RDN_NSS
Security:single module:__Z16CL_nssNameToCssmRK8NSS_NameR14cssm_x509_nameRN8Security13CssmAllocatorE
Security:single module:__Z15CL_nssRdnToCssmRK7NSS_RDNR13cssm_x509_rdnRN8Security13CssmAllocatorER11SecNssCoder
Security:single module:__Z15CL_nssAtvToCssmRK7NSS_ATVR25cssm_x509_type_value_pairRN8Security13CssmAllocatorE
Security:single module:_tpCompareHostNames
Security:single module:_freeField_RDN
Security:single module:__Z15CL_freeX509NameP14cssm_x509_nameRN8Security13CssmAllocatorE
Security:single module:__Z14CL_freeX509RdnP13cssm_x509_rdnRN8Security13CssmAllocatorE
Security:single module:__Z17iSignFreeCertInfomP13iSignCertInfo
Security:single module:_freeFieldAuthorityKeyId
Security:single module:__Z21CL_freeAuthorityKeyIdR17CE_AuthorityKeyIDRN8Security13CssmAllocatorE
Security:single module:__Z23CL_freeCssmGeneralNamesP15CE_GeneralNamesRN8Security13CssmAllocatorE
Security:single module:_freeFieldSubjectKeyId
Security:single module:_freeFieldSimpleExtension
Security:single module:_freeFieldExtKeyUsage
Security:single module:_tpVerifyCertGroupWithCrls
Security:single module:__ZN10TPCrlGroupD1Ev
Security:single module:__ZN10TPCrlGroupD4Ev
Security:single module:__ZN11TPCertGroup18buildCssmCertGroupEv
Security:single module:_tpCopyCssmData
Security:single module:__ZN11TPCertGroup21buildCssmEvidenceInfoEv
Security:single module:__ZN11TPCertGroup13getReturnCodeEllll
Security:single module:__ZN11TPCertGroupD1Ev
Security:single module:__ZN11TPCertGroupD4Ev
Security:single module:__ZN8Security12KeychainCore5Trust15diagnoseOutcomeEv
Security:single module:__ZN8Security12KeychainCore5Trust17evaluateUserTrustERKNS_9CertGroupEPK27CSSM_TP_APPLE_EVIDENCE_INFONS_9CFCopyRefIPK9__CFArrayEE
Security:single module:__ZN8Security12KeychainCore10TrustStore4findEPNS0_11CertificateEPNS0_6PolicyE
Security:single module:__ZN8Security12KeychainCore10TrustStore8findItemEPNS0_11CertificateEPNS0_6PolicyE
Security:single module:__ZN8Security12KeychainCore14StorageManager12createCursorEmPK24SecKeychainAttributeList
Security:single module:__ZNK8Security9CssmError8osStatusEv
Security:single module:_stAppRealloc
Security:single module:_sslPubKeyFromCert
Security:single module:_SSLProcessServerHelloDone
Security:single module:_SSLPrepareAndQueueMessage
Security:single module:_SSLEncodeKeyExchange
Security:single module:__Z23SSLEncodeRSAKeyExchangeR9SSLRecordP10SSLContext
Security:single module:__Z27SSLEncodeRSAPremasterSecretP10SSLContext
Security:single module:_sslKeyLengthInBytes
Security:single module:_sslRsaEncrypt
Security:single module:_CSSM_CSP_CreateAsymmetricContext
Security:single module:__ZN16RSA_CryptContext4initERKN8Security7ContextEb
Security:single module:__ZN16RSA_CryptContext10outputSizeEbm
Security:single module:__ZN16RSA_CryptContext12encryptBlockEPKvmPvRmb
Security:single module:_RSA_public_encrypt
Security:single module:_RSA_eay_public_encrypt
Security:single module:_RSA_padding_add_PKCS1_type_2
Security:single module:_RAND_bytes
Security:single module:_cspGetRandomBytes
Security:single module:__ZN8Security18DevRandomGeneratorC2Eb
Security:single module:__ZN16RSA_CryptContextD0Ev
Security:single module:__ZN16RSA_CryptContextD4Ev
Security:single module:_stFreeCssmData
Security:single module:__Z24tls1GenerateMasterSecretP10SSLContext
Security:single module:_SSLInternal_PRF
Security:single module:__Z8tlsPHashP10SSLContextPK13HMACReferencePKhjPhjS6_j
Security:single module:__Z10HMAC_AllocPK13HMACReferenceP10SSLContextPKvjPP11HMACContext
Security:single module:_sslSetUpSymmKey
Security:single module:__Z9HMAC_HmacP11HMACContextPKvjPvPj
Security:single module:__Z9HMAC_InitP11HMACContext
Security:single module:_CSSM_GenerateMacInit
Security:single module:__Z20cssm_GenerateMacInitmyPK12cssm_context
Security:single module:__ZThn40_N8Security20CSPFullPluginSession15GenerateMacInitEyRKNS_7ContextE
Security:single module:__Z11HMAC_UpdateP11HMACContextPKvj
Security:single module:_CSSM_GenerateMacUpdate
Security:single module:__Z22cssm_GenerateMacUpdatemyPK9cssm_datam
Security:single module:__ZThn40_N8Security20CSPFullPluginSession17GenerateMacUpdateEyPKNS_8CssmDataEm
Security:single module:__Z10HMAC_FinalP11HMACContextPvPj
Security:single module:_CSSM_GenerateMacFinal
Security:single module:__Z21cssm_GenerateMacFinalmyP9cssm_data
Security:single module:__ZThn40_N8Security20CSPFullPluginSession16GenerateMacFinalEyRNS_8CssmDataE
Security:single module:_MD5Final
Security:single module:_SSLInitPendingCiphers
Security:single module:_SSLEncodeChangeCipherSpec
Security:single module:__Z11tls1FreeMacP13CipherContext
Security:single module:_SSLEncodeFinishedMessage
Security:single module:_CloneHashState
Security:single module:__Z13cdsaHashCloneRK9SSLBufferRS_
Security:single module:_CSSM_DigestDataClone
Security:single module:__Z20cssm_DigestDataClonemyy
Security:single module:__ZThn40_N8Security20CSPFullPluginSession15DigestDataCloneEyy
Security:single module:__ZN8Security20CSPFullPluginSession15DigestDataCloneEyy
Security:single module:__ZN13DigestContext5cloneERN8Security13CssmAllocatorE
Security:single module:__ZNK10SHA1Object11digestCloneEv
Security:single module:__ZNK9MD5Object11digestCloneEv
Security:single module:__Z22tls1ComputeFinishedMacP10SSLContext9SSLBufferS1_S1_h
Security:single module:__Z13cdsaHashFinalR9SSLBufferS0_
Security:single module:__ZNK9MD5Object17digestSizeInBytesEv
Security:single module:__ZN9MD5Object11digestFinalEPv
Security:single module:__Z9HMAC_FreeP11HMACContext
Security:single module:__Z14tls1ComputeMach9SSLBufferS_P13CipherContext9sslUint64P10SSLContext
Security:single module:_SSLEncodeUInt64
Security:single module:_CDSASymmEncrypt
Security:single module:_CSSM_EncryptDataUpdate
Security:single module:__Z22cssm_EncryptDataUpdatemyPK9cssm_datamPS_mPm
Security:single module:__ZThn40_N8Security20CSPFullPluginSession17EncryptDataUpdateEyPKNS_8CssmDataEmPS1_mRm
Security:single module:__ZN8Security20CSPFullPluginSession17EncryptDataUpdateEyPKNS_8CssmDataEmPS1_mRm
Security:single module:__ZN10RC4Context10outputSizeEbm
Security:single module:__ZN10RC4Context9inputSizeEm
Security:single module:__ZN10RC4Context6updateEPvRmS0_S1_
Security:single module:_RC4
Security:single module:_SSLProcessChangeCipherSpec
Security:single module:_CDSASymmDecrypt
Security:single module:_SSLVerifyMac
Security:single module:_SSLProcessFinished
Security:single module:_SSLWrite
Security:single module:_SSLGetBufferedReadSize
Security:single module:_SSLRead
Security:single module:_SSLClose
Security:single module:_SSLSendAlert
Security:single module:__Z14SSLEncodeAlertR9SSLRecord10AlertLevel16AlertDescriptionP10SSLContext
Security:single module:__ZN8Security12KeychainCore5TrustD1Ev
Security:single module:__ZN8Security12KeychainCore5TrustD4Ev
Security:single module:__ZN8Security12KeychainCore5Trust17releaseTPEvidenceERNS_14TPVerifyResultERNS_13CssmAllocatorE
Security:single module:__ZN8Security9CertGroup7destroyERNS_13CssmAllocatorE
Security:single module:__ZN8Security12KeychainCore6PolicyD1Ev
Security:single module:__ZN8Security12KeychainCore6PolicyD4Ev
Security:single module:__ZN8Security12KeychainCore11CertificateD1Ev
Security:single module:__ZN8Security12KeychainCore11CertificateD4Ev
Security:single module:__ZN8Security10CssmClient6CLImplD0Ev
Security:single module:__ZN8Security10CssmClient6CLImplD4Ev
Security:single module:__ZN8Security12KeychainCore8ItemImplD2Ev
Security:single module:__ZN8Security10CssmClient6TPImplD0Ev
Security:single module:__ZN8Security10CssmClient6TPImplD4Ev
Security:single module:__ZN18AppleX509CLSessionD0Ev
Security:single module:__ZN18AppleX509CLSessionD4Ev
Security:single module:__ZN14AppleTPSessionD0Ev
Security:single module:__ZN14AppleTPSessionD4Ev
Security:single module:__Z13cdsaHashCloseR9SSLBufferP10SSLContext
Security:single module:_CDSASymmFinish
Security:single module:__Z16disposeCipherCtxP13CipherContext
Security:single module:__ZN10RC4ContextD0Ev
Security:single module:__ZN10RC4ContextD4Ev
Security:single module:__ZN8Security12KeychainCore12PolicyCursorD1Ev
Security:single module:__ZN8Security12KeychainCore12PolicyCursorD4Ev
Security:single module:__Z15sslReleaseArrayPK9__CFArray
Security:single module:_attachToCl
Security:single module:__Z23tls1GenerateKeyMaterial9SSLBufferP10SSLContext
Security:single module:__Z11tls1InitMacP13CipherContextP10SSLContext
Security:single module:_CDSASymmInit
Security:single module:_stSetUpCssmData
Security:single module:_CSSM_EncryptDataInit
Security:single module:__Z20cssm_EncryptDataInitmyPK12cssm_contexty
Security:single module:__ZThn40_N8Security20CSPFullPluginSession15EncryptDataInitEyRKNS_7ContextEy
Security:single module:__ZN8Security20CSPFullPluginSession15EncryptDataInitEyRKNS_7ContextEy
Security:single module:__ZN10RC4Context4initERKN8Security7ContextEb
Security:single module:_RC4_set_key
Security:single module:_SSLReallocBuffer
Security:single module:_sslRealloc
Security:single module:__ZN8Security18DevRandomGenerator10addEntropyEPKvm
Security:single module:__ZN8Security12UnixPlusPlus8FileDesc5writeEPKvm
Security:single module:dyld_stub_binding_helper
Security:single module:cfm_stub_binding_helper
Security:single module:__dyld_func_lookup
Security:single module:___initialize_Cplusplus
Security:single module:__ZN8Security10CssmClient5CryptC1ERKNS0_3CSPEm
Security:single module:__ZN8Security10CssmClient7Encrypt4initEv
Security:single module:__ZN8Security10CssmClient7Encrypt5finalERNS_8CssmDataE
Security:single module:__ZN8Security10CssmClient7Encrypt7encryptEPKNS_8CssmDataEmPS2_m
Security:single module:__ZN8Security10CssmClient11PassThrough8activateEv
Security:single module:__ZN8Security10CssmClient11PassThroughclEmPKvPPv
Security:single module:__ZN8Security10CssmClient6Random4seedERKNS_14CssmCryptoDataE
Security:single module:__ZN8Security10CssmClient6Random4sizeEm
Security:single module:__ZN8Security10CssmClient6Random8activateEv
Security:single module:__ZN8Security10CssmClient6Random8generateERNS_8CssmDataEm
Security:single module:__ZN8Security10CssmClient7CSPImpl7freeKeyERNS_7CssmKeyEPKNS_17AccessCredentialsEb
Security:single module:__ZN8Security10CssmClient7CSPImplC1ERKNS0_6ModuleE
Security:single module:__ZN8Security10CssmClient7CSPImplC2ERKNS_4GuidE
Security:single module:__ZN8Security10CssmClient7CSPImplD1Ev
Security:single module:__ZN8Security10CssmClient7Context13getOutputSizeER20cssm_query_size_datamb
Security:single module:__ZN8Security10CssmClient7Context13getOutputSizeEmb
Security:single module:__ZN8Security10CssmClient7Context4initEv
Security:single module:__ZN8Security10CssmClient7Context9algorithmEm
Security:single module:__ZN8Security10CssmClient7ContextC1ERKNS0_3CSPEm
Security:single module:__ZN8Security10CssmClient7ContextD0Ev
Security:single module:__ZN8Security10CssmClient7ContextD1Ev
Security:single module:__ZN8Security10CssmClient10ModuleImplC2ERKNS_4GuidE
Security:single module:__ZN8Security10CssmClient10ModuleImplC2ERKNS_4GuidERKNS0_4CssmE
Security:single module:__ZN8Security10CssmClient10ModuleImplD1Ev
Security:single module:__ZN8Security10CssmClient10ModuleImplD2Ev
Security:single module:__ZN8Security10CssmClient10ObjectImplC1ERKNS0_6ObjectE
Security:single module:__ZN8Security10CssmClient10ObjectImplC1Ev
Security:single module:__ZN8Security10CssmClient10ObjectImplD0Ev
Security:single module:__ZN8Security10CssmClient10ObjectImplD1Ev
Security:single module:__ZN8Security10CssmClient14AttachmentImplC1ERKNS0_6ModuleEm
Security:single module:__ZN8Security10CssmClient14AttachmentImplC1ERKNS_4GuidEm
Security:single module:__ZN8Security10CssmClient14AttachmentImplD0Ev
Security:single module:__ZN8Security10CssmClient14AttachmentImplD1Ev
Security:single module:__ZN8Security10CssmClient8CssmImpl10deactivateEv
Security:single module:__ZN8Security10CssmClient8CssmImpl12StandardCssm7setCssmEPS1_
Security:single module:__ZN8Security10CssmClient8CssmImpl12StandardCssm9unsetCssmEPS1_
Security:single module:__ZN8Security10CssmClient8CssmImpl12StandardCssmD1Ev
Security:single module:__ZN8Security10CssmClient8CssmImpl12StandardCssmD2Ev
Security:single module:__ZN8Security10CssmClient8CssmImpl12StandardCssmD4Ev
Security:single module:__ZN8Security10CssmClient8CssmImpl13atExitHandlerEv
Security:single module:__ZN8Security10CssmClient8CssmImplC1Ev
Security:single module:__ZN8Security10CssmClient8CssmImplC2Eb
Security:single module:__ZN8Security10CssmClient8CssmImplC2Ev
Security:single module:__ZN8Security10CssmClient8CssmImplC4Ev
Security:single module:__ZN8Security10CssmClient8CssmImplD0Ev
Security:single module:__ZN8Security10CssmClient8CssmImplD1Ev
Security:single module:__ZN8Security10CssmClient8CssmImplD2Ev
Security:single module:__ZN8Security10CssmClient8CssmImplD4Ev
Security:single module:__ZNK8Security10CssmClient10ObjectImpleqERKS1_
Security:single module:__ZNK8Security10CssmClient10ObjectImplltERKS1_
Security:single module:__ZNK8Security10CssmClient14AttachmentImpl14subserviceMaskEv
Security:single module:__ZNK8Security10CssmClient5Error4whatEv
Security:single module:__ZNK8Security10CssmClient5Error9cssmErrorEv
Security:single module:__ZN8Security10CssmClient12DbAttributesC2ERKNS0_2DbEmRNS_13CssmAllocatorE
Security:single module:__ZN8Security10CssmClient12DbAttributesC2Ev
Security:single module:__ZN8Security10CssmClient12DbCursorImpl9allocatorERNS_13CssmAllocatorE
Security:single module:__ZN8Security10CssmClient12DbCursorImplC1ERKNS0_6ObjectERK10cssm_queryRNS_13CssmAllocatorE
Security:single module:__ZN8Security10CssmClient12DbCursorImplC1ERKNS0_6ObjectEmRNS_13CssmAllocatorE
Security:single module:__ZN8Security10CssmClient14DbDbCursorImpl8activateEv
Security:single module:__ZN8Security10CssmClient14DbDbCursorImplC1ERKNS0_2DbERK10cssm_queryRNS_13CssmAllocatorE
Security:single module:__ZN8Security10CssmClient14DbDbCursorImplD1Ev
Security:single module:__ZN8Security10CssmClient18DbUniqueRecordImpl12deleteRecordEv
Security:single module:__ZN8Security10CssmClient18DbUniqueRecordImpl6modifyEmPK29cssm_db_record_attribute_dataPK9cssm_datam
Security:single module:__ZN8Security10CssmClient18DbUniqueRecordImplD1Ev
Security:single module:__ZN8Security10CssmClient6DLImpl10getDbNamesEPPc
Security:single module:__ZN8Security10CssmClient6DLImpl12freeNameListEPPc
Security:single module:__ZN8Security10CssmClient6DLImplC2ERKNS_4GuidE
Security:single module:__ZN8Security10CssmClient6DLImplD1Ev
Security:single module:__ZN8Security10CssmClient6DbImpl11getSettingsERmRb
Security:single module:__ZN8Security10CssmClient6DbImpl11newDbCursorERK10cssm_queryRNS_13CssmAllocatorE
Security:single module:__ZN8Security10CssmClient6DbImpl11passThroughEmPKvPPv
Security:single module:__ZN8Security10CssmClient6DbImpl11setSettingsEmb
Security:single module:__ZN8Security10CssmClient6DbImpl12authenticateEmPK23cssm_access_credentials
Security:single module:__ZN8Security10CssmClient6DbImpl14createRelationEmPKcmPK29cssm_db_schema_attribute_infomPK25cssm_db_schema_index_info
Security:single module:__ZN8Security10CssmClient6DbImpl15destroyRelationEm
Security:single module:__ZN8Security10CssmClient6DbImpl16changePassphraseEPK23cssm_access_credentials
Security:single module:__ZN8Security10CssmClient6DbImpl17getUnlockKeyIndexERNS_8CssmDataE
Security:single module:__ZN8Security10CssmClient6DbImpl4lockEv
Security:single module:__ZN8Security10CssmClient6DbImpl4nameERPc
Security:single module:__ZN8Security10CssmClient6DbImpl6createEv
Security:single module:__ZN8Security10CssmClient6DbImpl6insertEmPK29cssm_db_record_attribute_dataPK9cssm_data
Security:single module:__ZN8Security10CssmClient6DbImpl6renameEPKc
Security:single module:__ZN8Security10CssmClient6DbImpl6unlockERK9cssm_data
Security:single module:__ZN8Security10CssmClient6DbImpl6unlockEv
Security:single module:__ZN8Security10CssmClient6DbImpl8deleteDbEv
Security:single module:__ZN8Security10CssmClient6DbImpl8isLockedEv
Security:single module:__ZN8Security10CssmClient6DbImplD1Ev
Security:single module:__ZNK8Security10CssmClient12DbCursorImpl9allocatorEv
Security:single module:__ZThn20_N8Security10CssmClient6DbImpl11newDbCursorERK10cssm_queryRNS_13CssmAllocatorE
Security:single module:__ZN8Security10CssmClient8DLDbList3addERKNS_14DLDbIdentifierE
Security:single module:__ZN8Security10CssmClient8DLDbList6removeERKNS_14DLDbIdentifierE
Security:single module:__ZN8Security10CssmClient8DLDbList4saveEv
Security:single module:__ZN8Security10CssmClient11GenerateKeyC2ERKNS0_3CSPEmm
Security:single module:__ZN8Security10CssmClient11GenerateKeyC1ERKNS0_3CSPEmm
Security:single module:__ZN8Security10CssmClient11GenerateKeyC4ERKNS0_3CSPEmm
Security:single module:__ZN8Security10CssmClient11GenerateKey8databaseERKNS0_2DbE
Security:single module:__ZN8Security10CssmClient11GenerateKey8activateEv
Security:single module:__ZN8Security10CssmClient11GenerateKeyclERKNS0_7KeySpecE
Security:single module:__ZN8Security10CssmClient11GenerateKeyclERNS_7CssmKeyERKNS0_7KeySpecE
Security:single module:__ZN8Security10CssmClient11GenerateKeyclERNS0_3KeyERKNS0_7KeySpecES3_S6_
Security:single module:__ZN8Security10CssmClient11GenerateKeyclERNS_7CssmKeyERKNS0_7KeySpecES3_S6_
Security:single module:__ZN8Security10CssmClient18KeychainAclFactoryC2ERNS_13CssmAllocatorE
Security:single module:__ZN8Security10CssmClient18KeychainAclFactoryC1ERNS_13CssmAllocatorE
Security:single module:__ZN8Security10CssmClient18KeychainAclFactoryC4ERNS_13CssmAllocatorE
Security:single module:__ZN8Security10CssmClient18KeychainAclFactoryD2Ev
Security:single module:__ZN8Security10CssmClient18KeychainAclFactoryD1Ev
Security:single module:__ZN8Security10CssmClient18KeychainAclFactoryD4Ev
Security:single module:__ZN8Security10CssmClient18KeychainAclFactory15nullCredentialsEv
Security:single module:__ZN8Security10CssmClient18KeychainAclFactory25keychainPromptCredentialsEv
Security:single module:__ZN8Security10CssmClient18KeychainAclFactory31keychainPromptUnlockCredentialsEv
Security:single module:__ZN8Security10CssmClient18KeychainAclFactory25passwordChangeCredentialsERKNS_8CssmDataE
Security:single module:__ZN8Security10CssmClient18KeychainAclFactory25passwordUnlockCredentialsERKNS_8CssmDataE
Security:single module:__ZN8Security10CssmClient18KeychainAclFactory19keychainPromptOwnerERKNS_8CssmDataE
Security:single module:__ZN8Security10CssmClient18KeychainAclFactory8anyOwnerEv
Security:single module:__ZN8Security10CssmClient18KeychainAclFactory7releaseEPNS_13AclEntryInputE
Security:single module:__ZN8Security10CssmClient18KeychainAclFactory7commentERNS_9TypedListE
Security:single module:__ZN8Security10CssmClient18KeychainAclFactory9uncommentERNS_9TypedListE
Security:single module:__ZN8Security10CssmClient7KeyImpl11changeOwnerERK24cssm_acl_owner_prototypePK23cssm_access_credentials
Security:single module:__ZN8Security10CssmClient7KeyImpl9changeAclERK13cssm_acl_editPK23cssm_access_credentials
Security:single module:__ZN8Security10CssmClient7KeyImpl9deleteKeyEPK23cssm_access_credentials
Security:single module:__ZN8Security10CssmClient7KeyImplC1ERKNS0_3CSPERK9cssm_data
Security:single module:__ZN8Security10CssmClient7KeyImplC2ERKNS0_3CSPERK8cssm_keyb
Security:single module:__ZN8Security10CssmClient7KeyImplC2ERKNS0_3CSPERK9cssm_data
Security:single module:__ZN8Security10CssmClient7KeyImplC4ERKNS0_3CSPERK9cssm_data
Security:single module:__ZN8Security10CssmClient7KeyImplD1Ev
Security:single module:__ZNK8Security10CssmClient7KeyImpl10sizeInBitsEv
Security:single module:__ZNK8Security10CssmClient7KeyImpl6getAclERNS_20AutoAclEntryInfoListEPKc
Security:single module:__ZNK8Security10CssmClient7KeyImpl8getOwnerERNS_21AutoAclOwnerPrototypeE
Security:single module:__ZThn20_N8Security10CssmClient7KeyImpl11changeOwnerERK24cssm_acl_owner_prototypePK23cssm_access_credentials
Security:single module:__ZThn20_N8Security10CssmClient7KeyImpl9changeAclERK13cssm_acl_editPK23cssm_access_credentials
Security:single module:__ZThn20_N8Security10CssmClient7KeyImplD0Ev
Security:single module:__ZThn20_N8Security10CssmClient7KeyImplD1Ev
Security:single module:__ZThn20_NK8Security10CssmClient7KeyImpl6getAclERNS_20AutoAclEntryInfoListEPKc
Security:single module:__ZThn20_NK8Security10CssmClient7KeyImpl8getOwnerERNS_21AutoAclOwnerPrototypeE
Security:single module:__ZN8Security10CssmClient11GenerateMac4initEv
Security:single module:__ZN8Security10CssmClient11GenerateMac4signEPKNS_8CssmDataEm
Security:single module:__ZN8Security10CssmClient11GenerateMacclERNS_8CssmDataE
Security:single module:__ZN8Security10CssmClient9VerifyMac4initEv
Security:single module:__ZN8Security10CssmClient9VerifyMac6verifyEPKNS_8CssmDataEm
Security:single module:__ZN8Security10CssmClient9VerifyMacclERKNS_8CssmDataE
Security:single module:__ZN8Security10CssmClient13MultiDLDbImplC2ERKSt6vectorINS_14DLDbIdentifierESaIS3_EEbRKNS0_4CssmE
Security:single module:__ZN8Security10CssmClient13MultiDLDbImplC1ERKSt6vectorINS_14DLDbIdentifierESaIS3_EEbRKNS0_4CssmE
Security:single module:__ZN8Security10CssmClient13MultiDLDbImplC4ERKSt6vectorINS_14DLDbIdentifierESaIS3_EEbRKNS0_4CssmE
Security:single module:__ZN8Security10CssmClient13MultiDLDbImplC2ERKSt6vectorINS_14DLDbIdentifierESaIS3_EEb
Security:single module:__ZN8Security10CssmClient13MultiDLDbImplC1ERKSt6vectorINS_14DLDbIdentifierESaIS3_EEb
Security:single module:__ZN8Security10CssmClient13MultiDLDbImplC4ERKSt6vectorINS_14DLDbIdentifierESaIS3_EEb
Security:single module:__ZN8Security10CssmClient13MultiDLDbImplD2Ev
Security:single module:__ZN8Security10CssmClient13MultiDLDbImplD1Ev
Security:single module:__ZN8Security10CssmClient13MultiDLDbImplD0Ev
Security:single module:__ZN8Security10CssmClient13MultiDLDbImplD4Ev
Security:single module:__ZN8Security10CssmClient13MultiDLDbImpl8databaseERKNS_14DLDbIdentifierE
Security:single module:__ZN8Security10CssmClient13MultiDLDbImpl4listERKSt6vectorINS_14DLDbIdentifierESaIS3_EE
Security:single module:__ZN8Security10CssmClient13MultiDLDbImpl11newDbCursorERK10cssm_queryRNS_13CssmAllocatorE
Security:single module:__ZThn20_N8Security10CssmClient13MultiDLDbImpl11newDbCursorERK10cssm_queryRNS_13CssmAllocatorE
Security:single module:__ZN8Security10CssmClient13MultiDLDbImpl11newDbCursorEmRNS_13CssmAllocatorE
Security:single module:__ZThn20_N8Security10CssmClient13MultiDLDbImpl11newDbCursorEmRNS_13CssmAllocatorE
Security:single module:__ZN8Security10CssmClient13MultiDLDbImpl8activateEv
Security:single module:__ZN8Security10CssmClient13MultiDLDbImpl10deactivateEv
Security:single module:__ZN8Security10CssmClient21MultiDLDbDbCursorImplC2ERKNS0_9MultiDLDbERK10cssm_queryRNS_13CssmAllocatorE
Security:single module:__ZN8Security10CssmClient21MultiDLDbDbCursorImplC1ERKNS0_9MultiDLDbERK10cssm_queryRNS_13CssmAllocatorE
Security:single module:__ZN8Security10CssmClient21MultiDLDbDbCursorImplC4ERKNS0_9MultiDLDbERK10cssm_queryRNS_13CssmAllocatorE
Security:single module:__ZN8Security10CssmClient21MultiDLDbDbCursorImplC2ERKNS0_9MultiDLDbEmRNS_13CssmAllocatorE
Security:single module:__ZN8Security10CssmClient21MultiDLDbDbCursorImplC1ERKNS0_9MultiDLDbEmRNS_13CssmAllocatorE
Security:single module:__ZN8Security10CssmClient21MultiDLDbDbCursorImplC4ERKNS0_9MultiDLDbEmRNS_13CssmAllocatorE
Security:single module:__ZN8Security10CssmClient21MultiDLDbDbCursorImplD2Ev
Security:single module:__ZN8Security10CssmClient21MultiDLDbDbCursorImplD1Ev
Security:single module:__ZN8Security10CssmClient21MultiDLDbDbCursorImplD0Ev
Security:single module:__ZN8Security10CssmClient21MultiDLDbDbCursorImplD4Ev
Security:single module:__ZN8Security10CssmClient21MultiDLDbDbCursorImpl4nextEPNS0_12DbAttributesEPNS_17CssmDataContainerERNS0_14DbUniqueRecordE
Security:single module:__ZN8Security10CssmClient21MultiDLDbDbCursorImpl8activateEv
Security:single module:__ZN8Security10CssmClient21MultiDLDbDbCursorImpl10deactivateEv
Security:single module:__ZN8Security11CodeSigning9OSXSigner6verifyERKNS0_8SignableEPKNS0_9SignatureE
Security:single module:__ZN8Security11CodeSigning9OSXSignerC2Ev
Security:single module:__ZN8Security10CssmClient11SSCSPDLImplC1ERKNS_4GuidE
Security:single module:__ZN8Security10CssmClient11SSCSPDLImplC2ERKNS0_6ModuleE
Security:single module:__ZN8Security10CssmClient11SSCSPDLImplC2ERKNS_4GuidE
Security:single module:__ZN8Security10CssmClient11SSCSPDLImplC4ERKNS_4GuidE
Security:single module:__ZN8Security10CssmClient11SSCSPDLImplD1Ev
Security:single module:__ZN8Security10CssmClient11SSCSPDLImplD2Ev
Security:single module:__ZN8Security10CssmClient11SSGroupImpl14encodeDataBlobEPK9cssm_dataPK23cssm_access_credentialsRNS_17CssmDataContainerE
Security:single module:__ZN8Security10CssmClient11SSGroupImplC1ERKNS0_4SSDbEPK29cssm_resource_control_context
Security:single module:__ZN8Security10CssmClient11SSGroupImplC2ERKNS0_4SSDbEPK29cssm_resource_control_context
Security:single module:__ZN8Security10CssmClient11SSGroupImplC2ERKNS0_4SSDbERK9cssm_data
Security:single module:__ZN8Security10CssmClient11SSGroupImplC4ERKNS0_4SSDbEPK29cssm_resource_control_context
Security:single module:__ZN8Security10CssmClient14SSDbCursorImpl10deactivateEv
Security:single module:__ZN8Security10CssmClient14SSDbCursorImpl7nextKeyEPNS0_12DbAttributesERNS0_3KeyERNS0_14DbUniqueRecordE
Security:single module:__ZN8Security10CssmClient14SSDbCursorImpl8activateEv
Security:single module:__ZN8Security10CssmClient14SSDbCursorImplC2ERKNS0_2DbERK10cssm_queryRNS_13CssmAllocatorE
Security:single module:__ZN8Security10CssmClient14SSDbCursorImplC2ERKNS0_2DbEmRNS_13CssmAllocatorE
Security:single module:__ZN8Security10CssmClient20SSDbUniqueRecordImpl12deleteRecordEPK23cssm_access_credentials
Security:single module:__ZN8Security10CssmClient20SSDbUniqueRecordImpl12deleteRecordEv
Security:single module:__ZN8Security10CssmClient20SSDbUniqueRecordImpl5groupEv
Security:single module:__ZN8Security10CssmClient20SSDbUniqueRecordImpl6modifyEmPK29cssm_db_record_attribute_dataPK9cssm_datam
Security:single module:__ZN8Security10CssmClient20SSDbUniqueRecordImpl6modifyEmPK29cssm_db_record_attribute_dataPK9cssm_datamPK23cssm_access_credentials
Security:single module:__ZN8Security10CssmClient20SSDbUniqueRecordImplC2ERKNS0_2DbE
Security:single module:__ZN8Security10CssmClient20SSDbUniqueRecordImplD1Ev
Security:single module:__ZN8Security10CssmClient20SSDbUniqueRecordImplD2Ev
Security:single module:__ZN8Security10CssmClient8SSDbImpl6createEv
Security:single module:__ZN8Security10CssmClient8SSDbImpl6insertEmPK29cssm_db_record_attribute_dataPK9cssm_dataPK29cssm_resource_control_context
Security:single module:__ZN8Security10CssmClient8SSDbImpl6insertEmPK29cssm_db_record_attribute_dataPK9cssm_dataRKNS0_7SSGroupEPK23cssm_access_credentials
Security:single module:__ZN8Security10CssmClient8SSDbImplC2ERKNS0_7SSCSPDLEPKcPK16cssm_net_address
Security:single module:__ZN8Security10CssmClient8SSDbImplD1Ev
Security:single module:__ZN8Security10CssmClient8SSDbImplD2Ev
Security:single module:__ZN8Security10CssmClient9CSPDLImpl9allocatorERNS_13CssmAllocatorE
Security:single module:__ZN8Security10CssmClient9CSPDLImplC1ERKNS0_6ModuleE
Security:single module:__ZN8Security10CssmClient9CSPDLImplC1ERKNS_4GuidE
Security:single module:__ZN8Security10CssmClient9CSPDLImplC2ERKNS_4GuidE
Security:single module:__ZN8Security10CssmClient9CSPDLImplC4ERKNS_4GuidE
Security:single module:__ZN8Security10CssmClient9CSPDLImplD0Ev
Security:single module:__ZN8Security10CssmClient9CSPDLImplD1Ev
Security:single module:__ZNK8Security10CssmClient11SSGroupImpl5labelEv
Security:single module:__ZNK8Security10CssmClient9CSPDLImpleqERKS1_
Security:single module:__ZNK8Security10CssmClient9CSPDLImplltERKS1_
Security:single module:__ZThn64_N8Security10CssmClient11SSCSPDLImpl5newDbEPKcPK16cssm_net_address
Security:single module:__ZThn64_N8Security10CssmClient11SSCSPDLImplD1Ev
Security:single module:__ZThn64_N8Security10CssmClient9CSPDLImpl9allocatorERNS_13CssmAllocatorE
Security:single module:__ZThn64_N8Security10CssmClient9CSPDLImplD0Ev
Security:single module:__ZThn64_N8Security10CssmClient9CSPDLImplD1Ev
Security:single module:__ZN8Security10CssmClient14SigningContext8activateEv
Security:single module:__ZN8Security10CssmClient4Sign4signEPKNS_8CssmDataEmRS2_
Security:single module:__ZN8Security10CssmClient4Sign4initEv
Security:single module:__ZN8Security10CssmClient4Sign4signEPKNS_8CssmDataEm
Security:single module:__ZN8Security10CssmClient4SignclERNS_8CssmDataE
Security:single module:__ZN8Security10CssmClient6Verify6verifyEPKNS_8CssmDataEmRS3_
Security:single module:__ZN8Security10CssmClient6Verify4initEv
Security:single module:__ZN8Security10CssmClient6Verify6verifyEPKNS_8CssmDataEm
Security:single module:__ZN8Security10CssmClient6VerifyclERKNS_8CssmDataE
Security:single module:__ZN8Security10CssmClient7WrapKey8activateEv
Security:single module:__ZN8Security10CssmClient7WrapKeyclERKNS_7CssmKeyERS2_PKNS_8CssmDataE
Security:single module:__ZN8Security10CssmClient7WrapKeyclERNS0_3KeyEPKNS_8CssmDataE
Security:single module:__ZN8Security10CssmClient9DeriveKeyclEPNS_8CssmDataERKNS0_7KeySpecERNS_7CssmKeyE
Security:single module:__ZN8Security10CssmClient9UnwrapKeyclERKNS_7CssmKeyERKNS0_7KeySpecEPNS_8CssmDataE
Security:single module:__ZN8Security10CssmClient9UnwrapKeyclERKNS_7CssmKeyERKNS0_7KeySpecERNS0_3KeyE
Security:single module:__ZN8Security10CssmClient9UnwrapKeyclERKNS_7CssmKeyERKNS0_7KeySpecERNS0_3KeyEPNS_8CssmDataE
Security:single module:__ZN8Security10CssmClient9UnwrapKeyclERKNS_7CssmKeyERKNS0_7KeySpecERS2_
Security:single module:__ZN8Security10CssmClient9UnwrapKeyclERKNS_7CssmKeyERKNS0_7KeySpecERS2_PS3_
Security:single module:__ZN8Security13ReferencedKeyC1ERNS_7KeyPoolE
Security:single module:__ZN8Security13ReferencedKeyD0Ev
Security:single module:__ZN8Security13ReferencedKeyD1Ev
Security:single module:__ZN8Security16CSPPluginSession13PluginContextD0Ev
Security:single module:__ZN8Security16CSPPluginSession13PluginContextD1Ev
Security:single module:__ZN8Security16CSPPluginSession13contextCreateEyRKNS_7ContextE
Security:single module:__ZN8Security20CSPFullPluginSession10CSPContext10outputSizeEbm
Security:single module:__ZN8Security20CSPFullPluginSession10CSPContext15minimumProgressERmS2_
Security:single module:__ZN8Security20CSPFullPluginSession10CSPContext18setDigestAlgorithmEm
Security:single module:__ZN8Security20CSPFullPluginSession10CSPContext4initERKNS_7ContextEb
Security:single module:__ZN8Security20CSPFullPluginSession10CSPContext5cloneERNS_13CssmAllocatorE
Security:single module:__ZN8Security20CSPFullPluginSession10CSPContext5finalERKNS_8CssmDataE
Security:single module:__ZN8Security20CSPFullPluginSession10CSPContext5finalERNS_8CssmDataE
Security:single module:__ZN8Security20CSPFullPluginSession10CSPContext6updateEPvRmS2_S3_
Security:single module:__ZN8Security20CSPFullPluginSession10CSPContext6updateERKNS_8CssmDataE
Security:single module:__ZN8Security20CSPFullPluginSession10CSPContext8generateERKNS_7ContextERNS_7CssmKeyES6_
Security:single module:__ZN8Security20CSPFullPluginSession10CSPContext8generateERKNS_7ContextEmRNS_8CssmDataERmRPNS2_4AttrE
Security:single module:__ZN8Security20CSPFullPluginSession10CSPContext9inputSizeEm
Security:single module:__ZN8Security20CSPFullPluginSession10getKeySizeERKNS_7CssmKeyER13cssm_key_size
Security:single module:__ZN8Security20CSPFullPluginSession11GenerateKeyEyRKNS_7ContextEmmPKNS_8CssmDataEPK29cssm_resource_control_contextRNS_7CssmKeyEy
Security:single module:__ZN8Security20CSPFullPluginSession11GetKeyOwnerERKNS_7CssmKeyER24cssm_acl_owner_prototype
Security:single module:__ZN8Security20CSPFullPluginSession11GetLoginAclEPA68_KcRmRP19cssm_acl_entry_info
Security:single module:__ZN8Security20CSPFullPluginSession11PassThroughEyRKNS_7ContextEmPKvPPv
Security:single module:__ZN8Security20CSPFullPluginSession12ChangeKeyAclERKNS_17AccessCredentialsERK13cssm_acl_editRKNS_7CssmKeyE
Security:single module:__ZN8Security20CSPFullPluginSession12GetTimeValueEmRNS_8CssmDataE
Security:single module:__ZN8Security20CSPFullPluginSession12SignDataInitEyRKNS_7ContextE
Security:single module:__ZN8Security20CSPFullPluginSession12VerifyDeviceERKNS_8CssmDataE
Security:single module:__ZN8Security20CSPFullPluginSession13GetLoginOwnerER24cssm_acl_owner_prototype
Security:single module:__ZN8Security20CSPFullPluginSession13SignDataFinalEyRNS_8CssmDataE
Security:single module:__ZN8Security20CSPFullPluginSession14ChangeKeyOwnerERKNS_17AccessCredentialsERKNS_7CssmKeyERK24cssm_acl_owner_prototype
Security:single module:__ZN8Security20CSPFullPluginSession14ChangeLoginAclERKNS_17AccessCredentialsERK13cssm_acl_edit
Security:single module:__ZN8Security20CSPFullPluginSession14GenerateRandomEyRKNS_7ContextERNS_8CssmDataE
Security:single module:__ZN8Security20CSPFullPluginSession14SignDataUpdateEyPKNS_8CssmDataEm
Security:single module:__ZN8Security20CSPFullPluginSession15GenerateKeyPairEyRKNS_7ContextEmmPKNS_8CssmDataERNS_7CssmKeyEmmS6_PK29cssm_resource_control_contextS8_y
Security:single module:__ZN8Security20CSPFullPluginSession15RetrieveCounterERNS_8CssmDataE
Security:single module:__ZN8Security20CSPFullPluginSession16ChangeLoginOwnerERKNS_17AccessCredentialsERK24cssm_acl_owner_prototype
Security:single module:__ZN8Security20CSPFullPluginSession16EncryptDataFinalEyRNS_8CssmDataE
Security:single module:__ZN8Security20CSPFullPluginSession16RetrieveUniqueIdERNS_8CssmDataE
Security:single module:__ZN8Security20CSPFullPluginSession23GenerateAlgorithmParamsEyRKNS_7ContextEmRNS_8CssmDataERmRP22cssm_context_attribute
Security:single module:__ZN8Security20CSPFullPluginSession24GetOperationalStatisticsERNS_24CSPOperationalStatisticsE
Security:single module:__ZN8Security20CSPFullPluginSession29ObtainPrivateKeyFromPublicKeyERKNS_7CssmKeyERS1_
Security:single module:__ZN8Security20CSPFullPluginSession5LoginERKNS_17AccessCredentialsEPKNS_8CssmDataEPKv
Security:single module:__ZN8Security20CSPFullPluginSession6LogoutEv
Security:single module:__ZN8Security20CSPFullPluginSession7WrapKeyEyRKNS_7ContextERKNS_17AccessCredentialsERKNS_7CssmKeyEPKNS_8CssmDataERS7_y
Security:single module:__ZN8Security20CSPFullPluginSession8SignDataEyRKNS_7ContextEPKNS_8CssmDataEmmRS4_
Security:single module:__ZN8Security20CSPFullPluginSession9DeriveKeyEyRKNS_7ContextERNS_8CssmDataEmmPKS4_PK29cssm_resource_control_contextRNS_7CssmKeyE
Security:single module:__ZN8Security20CSPFullPluginSession9GetKeyAclERKNS_7CssmKeyEPA68_KcRmRP19cssm_acl_entry_info
Security:single module:__ZN8Security20CSPFullPluginSession9QuerySizeEyRKNS_7ContextElmPNS_13QuerySizeDataE
Security:single module:__ZN8Security20CSPFullPluginSession9UnwrapKeyEyRKNS_7ContextEPKNS_7CssmKeyERS5_mmPKNS_8CssmDataEPK29cssm_resource_control_contextRS4_RS8_y
Security:single module:__ZN8Security7KeyPool7freeKeyERNS_13CssmAllocatorER8cssm_key
Security:single module:__ZN8Security7KeyPoolC1Ev
Security:single module:__ZN8Security7KeyPoolD0Ev
Security:single module:__ZN8Security7KeyPoolD1Ev
Security:single module:__ZN8Security7KeyPoolD2Ev
Security:single module:__ZN8Security7KeyPoolD4Ev
Security:single module:__ZThn40_N8Security16CSPPluginSession11EventNotifyEmyRKNS_7ContextE
Security:single module:__ZThn40_N8Security20CSPFullPluginSession11GenerateKeyEyRKNS_7ContextEmmPKNS_8CssmDataEPK29cssm_resource_control_contextRNS_7CssmKeyEy
Security:single module:__ZThn40_N8Security20CSPFullPluginSession11GetKeyOwnerERKNS_7CssmKeyER24cssm_acl_owner_prototype
Security:single module:__ZThn40_N8Security20CSPFullPluginSession11GetLoginAclEPA68_KcRmRP19cssm_acl_entry_info
Security:single module:__ZThn40_N8Security20CSPFullPluginSession11PassThroughEyRKNS_7ContextEmPKvPPv
Security:single module:__ZThn40_N8Security20CSPFullPluginSession12ChangeKeyAclERKNS_17AccessCredentialsERK13cssm_acl_editRKNS_7CssmKeyE
Security:single module:__ZThn40_N8Security20CSPFullPluginSession12GetTimeValueEmRNS_8CssmDataE
Security:single module:__ZThn40_N8Security20CSPFullPluginSession12SignDataInitEyRKNS_7ContextE
Security:single module:__ZThn40_N8Security20CSPFullPluginSession12VerifyDeviceERKNS_8CssmDataE
Security:single module:__ZThn40_N8Security20CSPFullPluginSession13GetLoginOwnerER24cssm_acl_owner_prototype
Security:single module:__ZThn40_N8Security20CSPFullPluginSession13SignDataFinalEyRNS_8CssmDataE
Security:single module:__ZThn40_N8Security20CSPFullPluginSession13VerifyMacInitEyRKNS_7ContextE
Security:single module:__ZThn40_N8Security20CSPFullPluginSession14ChangeKeyOwnerERKNS_17AccessCredentialsERKNS_7CssmKeyERK24cssm_acl_owner_prototype
Security:single module:__ZThn40_N8Security20CSPFullPluginSession14ChangeLoginAclERKNS_17AccessCredentialsERK13cssm_acl_edit
Security:single module:__ZThn40_N8Security20CSPFullPluginSession14GenerateRandomEyRKNS_7ContextERNS_8CssmDataE
Security:single module:__ZThn40_N8Security20CSPFullPluginSession14SignDataUpdateEyPKNS_8CssmDataEm
Security:single module:__ZThn40_N8Security20CSPFullPluginSession14VerifyDataInitEyRKNS_7ContextE
Security:single module:__ZThn40_N8Security20CSPFullPluginSession14VerifyMacFinalEyRKNS_8CssmDataE
Security:single module:__ZThn40_N8Security20CSPFullPluginSession15GenerateKeyPairEyRKNS_7ContextEmmPKNS_8CssmDataERNS_7CssmKeyEmmS6_PK29cssm_resource_control_contextS8_y
Security:single module:__ZThn40_N8Security20CSPFullPluginSession15RetrieveCounterERNS_8CssmDataE
Security:single module:__ZThn40_N8Security20CSPFullPluginSession15VerifyDataFinalEyRKNS_8CssmDataE
Security:single module:__ZThn40_N8Security20CSPFullPluginSession15VerifyMacUpdateEyPKNS_8CssmDataEm
Security:single module:__ZThn40_N8Security20CSPFullPluginSession16ChangeLoginOwnerERKNS_17AccessCredentialsERK24cssm_acl_owner_prototype
Security:single module:__ZThn40_N8Security20CSPFullPluginSession16EncryptDataFinalEyRNS_8CssmDataE
Security:single module:__ZThn40_N8Security20CSPFullPluginSession16RetrieveUniqueIdERNS_8CssmDataE
Security:single module:__ZThn40_N8Security20CSPFullPluginSession16VerifyDataUpdateEyPKNS_8CssmDataEm
Security:single module:__ZThn40_N8Security20CSPFullPluginSession23GenerateAlgorithmParamsEyRKNS_7ContextEmRNS_8CssmDataERmRP22cssm_context_attribute
Security:single module:__ZThn40_N8Security20CSPFullPluginSession24GetOperationalStatisticsERNS_24CSPOperationalStatisticsE
Security:single module:__ZThn40_N8Security20CSPFullPluginSession29ObtainPrivateKeyFromPublicKeyERKNS_7CssmKeyERS1_
Security:single module:__ZThn40_N8Security20CSPFullPluginSession5LoginERKNS_17AccessCredentialsEPKNS_8CssmDataEPKv
Security:single module:__ZThn40_N8Security20CSPFullPluginSession6LogoutEv
Security:single module:__ZThn40_N8Security20CSPFullPluginSession7FreeKeyEPKNS_17AccessCredentialsERNS_7CssmKeyEl
Security:single module:__ZThn40_N8Security20CSPFullPluginSession7WrapKeyEyRKNS_7ContextERKNS_17AccessCredentialsERKNS_7CssmKeyEPKNS_8CssmDataERS7_y
Security:single module:__ZThn40_N8Security20CSPFullPluginSession8SignDataEyRKNS_7ContextEPKNS_8CssmDataEmmRS4_
Security:single module:__ZThn40_N8Security20CSPFullPluginSession9DeriveKeyEyRKNS_7ContextERNS_8CssmDataEmmPKS4_PK29cssm_resource_control_contextRNS_7CssmKeyE
Security:single module:__ZThn40_N8Security20CSPFullPluginSession9GetKeyAclERKNS_7CssmKeyEPA68_KcRmRP19cssm_acl_entry_info
Security:single module:__ZThn40_N8Security20CSPFullPluginSession9QuerySizeEyRKNS_7ContextElmPNS_13QuerySizeDataE
Security:single module:__ZThn40_N8Security20CSPFullPluginSession9UnwrapKeyEyRKNS_7ContextEPKNS_7CssmKeyERS5_mmPKNS_8CssmDataEPK29cssm_resource_control_contextRS4_RS8_y
Security:single module:__ZN8Security20CSPFullPluginSession6Writer3putEPvm
Security:single module:__ZN8Security20CSPFullPluginSession6WriterC2EPNS_8CssmDataEmS3_
Security:single module:__ZN8Security20CSPFullPluginSession6setKeyERNS_7CssmKeyERKNS_7ContextEmmm
Security:single module:__ZN8Security10CssmPluginC1Ev
Security:single module:__ZN8Security10CssmPluginD0Ev
Security:single module:__ZN8Security10CssmPluginD1Ev
Security:single module:__ZN8Security10CssmPluginD2Ev
Security:single module:__ZN8Security10CssmPluginD4Ev
Security:single module:__ZNK8Security10CssmPlugin12sendCallbackEmmm
Security:single module:__ZN8Security15DLPluginSession7reallocEPvm
Security:single module:__ZThn44_N8Security15DLPluginSession7reallocEPvm
Security:single module:__ZN8Security13PluginSessionC1EmRNS_10CssmPluginERK12cssm_versionmmmRK12cssm_upcalls
Security:single module:__ZN8Security13PluginSessionD0Ev
Security:single module:__ZN8Security13PluginSessionD1Ev
Security:single module:__ZNK8Security13PluginSession12sendCallbackEmmm
Security:single module:__ZNK8Security13AnyAclSubject5Maker4makeERKNS_9TypedListE
Security:single module:__ZNK8Security13AnyAclSubject6toListERNS_13CssmAllocatorE
Security:single module:__ZNK8Security13AnyAclSubject8validateERKNS_20AclValidationContextE
Security:single module:__ZN8Security23CodeSignatureAclSubject10exportBlobERNS_23LowLevelMemoryUtilities6Writer7CounterES4_
Security:single module:__ZN8Security23CodeSignatureAclSubject10exportBlobERNS_23LowLevelMemoryUtilities6WriterES3_
Security:single module:__ZN8Security23CodeSignatureAclSubjectC1ERNS_13CssmAllocatorEPKNS_11CodeSigning9SignatureE
Security:single module:__ZN8Security23CodeSignatureAclSubjectC2ERNS_13CssmAllocatorEPKNS_11CodeSigning9SignatureE
Security:single module:__ZN8Security23CodeSignatureAclSubjectC2ERNS_13CssmAllocatorEPKNS_11CodeSigning9SignatureEPKvm
Security:single module:__ZN8Security23CodeSignatureAclSubjectC4ERNS_13CssmAllocatorEPKNS_11CodeSigning9SignatureE
Security:single module:__ZN8Security23CodeSignatureAclSubjectD1Ev
Security:single module:__ZN8Security23CodeSignatureAclSubjectD2Ev
Security:single module:__ZNK8Security23CodeSignatureAclSubject5Maker4makeERKNS_9TypedListE
Security:single module:__ZNK8Security23CodeSignatureAclSubject6toListERNS_13CssmAllocatorE
Security:single module:__ZNK8Security17CommentAclSubject8validateERKNS_20AclValidationContextE
Security:single module:__ZNK8Security17CommentAclSubject6toListERNS_13CssmAllocatorE
Security:single module:__ZNK8Security17CommentAclSubject5Maker4makeERKNS_9TypedListE
Security:single module:__ZNK8Security17CommentAclSubject5Maker4makeEhRNS_23LowLevelMemoryUtilities6ReaderES4_
Security:single module:__ZN8Security17CommentAclSubject10exportBlobERNS_23LowLevelMemoryUtilities6Writer7CounterES4_
Security:single module:__ZN8Security17CommentAclSubject10exportBlobERNS_23LowLevelMemoryUtilities6WriterES3_
Security:single module:__ZN8Security18PasswordAclSubjectC2ERNS_13CssmAllocatorERKNS_8CssmDataE
Security:single module:__ZN8Security18PasswordAclSubjectC1ERNS_13CssmAllocatorERKNS_8CssmDataE
Security:single module:__ZN8Security18PasswordAclSubjectC4ERNS_13CssmAllocatorERKNS_8CssmDataE
Security:single module:__ZN8Security18PasswordAclSubjectC2ERNS_13CssmAllocatorERNS_15CssmManagedDataE
Security:single module:__ZN8Security18PasswordAclSubjectC1ERNS_13CssmAllocatorERNS_15CssmManagedDataE
Security:single module:__ZN8Security18PasswordAclSubjectC4ERNS_13CssmAllocatorERNS_15CssmManagedDataE
Security:single module:__ZNK8Security18PasswordAclSubject8validateERKNS_20AclValidationContextERKNS_9TypedListE
Security:single module:__ZNK8Security18PasswordAclSubject6toListERNS_13CssmAllocatorE
Security:single module:__ZNK8Security18PasswordAclSubject5Maker4makeERKNS_9TypedListE
Security:single module:__ZNK8Security18PasswordAclSubject5Maker4makeEhRNS_23LowLevelMemoryUtilities6ReaderES4_
Security:single module:__ZN8Security18PasswordAclSubject10exportBlobERNS_23LowLevelMemoryUtilities6Writer7CounterES4_
Security:single module:__ZN8Security18PasswordAclSubject10exportBlobERNS_23LowLevelMemoryUtilities6WriterES3_
Security:single module:__ZNK8Security17ProcessAclSubject8validateERKNS_20AclValidationContextE
Security:single module:__ZNK8Security17ProcessAclSubject6toListERNS_13CssmAllocatorE
Security:single module:__ZNK8Security17ProcessAclSubject5Maker4makeERKNS_9TypedListE
Security:single module:__ZNK8Security17ProcessAclSubject5Maker4makeEhRNS_23LowLevelMemoryUtilities6ReaderES4_
Security:single module:__ZN8Security17ProcessAclSubject10exportBlobERNS_23LowLevelMemoryUtilities6Writer7CounterES4_
Security:single module:__ZN8Security17ProcessAclSubject10exportBlobERNS_23LowLevelMemoryUtilities6WriterES3_
Security:single module:__ZNK8Security17ProcessAclSubject11Environment6getuidEv
Security:single module:__ZNK8Security17ProcessAclSubject11Environment6getgidEv
Security:single module:___tcf_0
Security:single module:__ZN8Security19ThresholdAclSubject10exportBlobERNS_23LowLevelMemoryUtilities6Writer7CounterES4_
Security:single module:__ZN8Security19ThresholdAclSubject10exportBlobERNS_23LowLevelMemoryUtilities6WriterES3_
Security:single module:__ZN8Security19ThresholdAclSubjectC2EmmRKSt6vectorINS_10RefPointerINS_10AclSubjectEEESaIS4_EE
Security:single module:__ZNK8Security19ThresholdAclSubject5Maker4makeERKNS_9TypedListE
Security:single module:__ZNK8Security19ThresholdAclSubject6toListERNS_13CssmAllocatorE
Security:single module:__ZN8Security10DbModifier11createTableEPNS_10MetaRecordE
Security:single module:__ZN8Security10DbModifier11deleteTableEm
Security:single module:__ZN8Security10DbModifier11insertTableERKNS_25CssmDbRecordAttributeInfoEPK25cssm_db_record_index_infoPK27cssm_db_parsing_module_info
Security:single module:__ZN8Security10DbModifier11insertTableEmRKSsmPK29cssm_db_schema_attribute_infomPK25cssm_db_schema_index_info
Security:single module:__ZN8Security10DbModifier12deleteRecordEmRKNS_8RecordIdE
Security:single module:__ZN8Security10DbModifier12insertRecordEmPK29cssm_db_record_attribute_dataPKNS_8CssmDataE
Security:single module:__ZN8Security10DbModifier12updateRecordEmRKNS_8RecordIdEPK29cssm_db_record_attribute_dataPKNS_8CssmDataEm
Security:single module:__ZN8Security10DbModifier14createDatabaseERK11cssm_dbinfoPK20cssm_acl_entry_inputt
Security:single module:__ZN8Security10DbModifier14deleteDatabaseEv
Security:single module:__ZN8Security10DbModifier14modifyDatabaseEv
Security:single module:__ZN8Security10DbModifier16writeAuthSectionEm
Security:single module:__ZN8Security10DbModifier17insertTableSchemaERKNS_25CssmDbRecordAttributeInfoEPK25cssm_db_record_index_info
Security:single module:__ZN8Security10DbModifier18writeSchemaSectionEm
Security:single module:__ZN8Security10DbModifier8rollbackEv
Security:single module:__ZN8Security10DbModifier9findTableEm
Security:single module:__ZN8Security10DbModifierC2ERNS_10AtomicFileERKNS_13AppleDatabaseE
Security:single module:__ZN8Security10DbModifierD2Ev
Security:single module:__ZN8Security11IndexCursorC2EPNS_10DbQueryKeyERKNS_9DbVersionERKNS_5TableEPKNS_12DbConstIndexE
Security:single module:__ZN8Security11IndexCursorD1Ev
Security:single module:__ZN8Security11IndexCursorD2Ev
Security:single module:__ZN8Security11MultiCursor4nextERmP29cssm_db_record_attribute_dataPNS_8CssmDataERNS_13CssmAllocatorERNS_8RecordIdE
Security:single module:__ZN8Security11MultiCursorC1EPK10cssm_queryRKNS_9DbVersionE
Security:single module:__ZN8Security11MultiCursorC2EPK10cssm_queryRKNS_9DbVersionE
Security:single module:__ZN8Security11MultiCursorC4EPK10cssm_queryRKNS_9DbVersionE
Security:single module:__ZN8Security11MultiCursorD0Ev
Security:single module:__ZN8Security11MultiCursorD1Ev
Security:single module:__ZN8Security11MultiCursorD2Ev
Security:single module:__ZN8Security11MultiCursorD4Ev
Security:single module:__ZN8Security12LinearCursorC2EPK10cssm_queryRKNS_9DbVersionERKNS_5TableE
Security:single module:__ZN8Security12LinearCursorD1Ev
Security:single module:__ZN8Security12LinearCursorD2Ev
Security:single module:__ZN8Security13AppleDatabase10dataDeleteERNS_9DbContextERK21cssm_db_unique_record
Security:single module:__ZN8Security13AppleDatabase10dataInsertERNS_9DbContextEmPK29cssm_db_record_attribute_dataPKNS_8CssmDataE
Security:single module:__ZN8Security13AppleDatabase10dataModifyERNS_9DbContextEmR21cssm_db_unique_recordPK29cssm_db_record_attribute_dataPKNS_8CssmDataEm
Security:single module:__ZN8Security13AppleDatabase10getDbOwnerERNS_9DbContextER24cssm_acl_owner_prototype
Security:single module:__ZN8Security13AppleDatabase11changeDbAclERNS_9DbContextERKNS_17AccessCredentialsERK13cssm_acl_edit
Security:single module:__ZN8Security13AppleDatabase11passThroughERNS_9DbContextEmPKvPPv
Security:single module:__ZN8Security13AppleDatabase12authenticateERNS_9DbContextEmRKNS_17AccessCredentialsE
Security:single module:__ZN8Security13AppleDatabase13changeDbOwnerERNS_9DbContextERKNS_17AccessCredentialsERK24cssm_acl_owner_prototype
Security:single module:__ZN8Security13AppleDatabase14createRelationERNS_9DbContextEmPKcmRK29cssm_db_schema_attribute_infomRK25cssm_db_schema_index_info
Security:single module:__ZN8Security13AppleDatabase15destroyRelationERNS_9DbContextEm
Security:single module:__ZN8Security13AppleDatabase8dbCreateERNS_9DbContextERK11cssm_dbinfoPK20cssm_acl_entry_input
Security:single module:__ZN8Security13AppleDatabase8dbDeleteERNS_15DatabaseSessionEPKNS_17AccessCredentialsE
Security:single module:__ZN8Security13AppleDatabase8getDbAclERNS_9DbContextEPA68_KcRmRP19cssm_acl_entry_info
Security:single module:__ZN8Security13AppleDatabaseC2ERKNS_6DbNameEPKNS_22AppleDatabaseTableNameE
Security:single module:__ZN8Security13AppleDatabaseD1Ev
Security:single module:__ZN8Security13AppleDatabaseD2Ev
Security:single module:__ZN8Security13ModifiedTable10writeTableERNS_14AtomicTempFileEm
Security:single module:__ZN8Security13ModifiedTable11modifyTableEv
Security:single module:__ZN8Security13ModifiedTable12deleteRecordERKNS_8RecordIdE
Security:single module:__ZN8Security13ModifiedTable12insertRecordEmPK29cssm_db_record_attribute_dataPKNS_8CssmDataE
Security:single module:__ZN8Security13ModifiedTable12updateRecordERKNS_8RecordIdEPK29cssm_db_record_attribute_dataPKNS_8CssmDataEm
Security:single module:__ZN8Security13ModifiedTable16nextRecordNumberEv
Security:single module:__ZN8Security13ModifiedTable17writeIndexSectionERNS_12WriteSectionEm
Security:single module:__ZN8Security13ModifiedTable20createMutableIndexesEv
Security:single module:__ZN8Security13ModifiedTable9findIndexEmRKNS_10MetaRecordEb
Security:single module:__ZN8Security13ModifiedTableC1EPKNS_5TableE
Security:single module:__ZN8Security13ModifiedTableC1EPNS_10MetaRecordE
Security:single module:__ZN8Security13ModifiedTableC2EPKNS_5TableE
Security:single module:__ZN8Security13ModifiedTableC2EPNS_10MetaRecordE
Security:single module:__ZN8Security13ModifiedTableC4EPKNS_5TableE
Security:single module:__ZN8Security13ModifiedTableC4EPNS_10MetaRecordE
Security:single module:__ZN8Security13ModifiedTableD1Ev
Security:single module:__ZN8Security13ModifiedTableD2Ev
Security:single module:__ZN8Security13ModifiedTableD4Ev
Security:single module:__ZN8Security14AppleDbContextC2ERNS_8DatabaseERNS_15DatabaseSessionEmPKNS_17AccessCredentialsEPKv
Security:single module:__ZN8Security14AppleDbContextD1Ev
Security:single module:__ZN8Security14AppleDbContextD2Ev
Security:single module:__ZN8Security20AppleDatabaseManagerC2EPKNS_22AppleDatabaseTableNameE
Security:single module:__ZN8Security5TableC2ERKNS_11ReadSectionE
Security:single module:__ZN8Security5TableD2Ev
Security:single module:__ZN8Security6CursorD0Ev
Security:single module:__ZN8Security6CursorD1Ev
Security:single module:__ZN8Security9DbVersionC2ERKNS_13AppleDatabaseERKNS_10RefPointerINS_18AtomicBufferedFileEEE
Security:single module:__ZN8Security9DbVersionD2Ev
Security:single module:__ZNK8Security13AppleDatabase10recordNameEm
Security:single module:__ZNK8Security13AppleDatabase19getDbNameFromHandleERKNS_9DbContextE
Security:single module:__ZNK8Security13ModifiedTable13getMetaRecordEv
Security:single module:__ZNK8Security13ModifiedTable17recordNumberCountEv
Security:single module:__ZNK8Security5Table11popFreeListERm
Security:single module:__ZNK8Security5Table14matchesTableIdEm
Security:single module:__ZN8Security10AtomicFile13performDeleteEv
Security:single module:__ZN8Security10AtomicFile5writeEv
Security:single module:__ZN8Security10AtomicFile6createEt
Security:single module:__ZN8Security10AtomicFile6mkpathERKSst
Security:single module:__ZN8Security10AtomicFile6renameERKSs
Security:single module:__ZN8Security10AtomicFileC2ERKSs
Security:single module:__ZN8Security10AtomicFileD2Ev
Security:single module:__ZN8Security14AtomicTempFile5closeEv
Security:single module:__ZN8Security14AtomicTempFile5fsyncEv
Security:single module:__ZN8Security14AtomicTempFile5writeENS_10AtomicFile10OffsetTypeExPKhm
Security:single module:__ZN8Security14AtomicTempFile5writeENS_10AtomicFile10OffsetTypeExPKmm
Security:single module:__ZN8Security14AtomicTempFile5writeENS_10AtomicFile10OffsetTypeExm
Security:single module:__ZN8Security14AtomicTempFile6commitEv
Security:single module:__ZN8Security14AtomicTempFile6createEt
Security:single module:__ZN8Security14AtomicTempFile8rollbackEv
Security:single module:__ZN8Security14AtomicTempFileC1ERNS_10AtomicFileERKNS_10RefPointerINS_16AtomicLockedFileEEE
Security:single module:__ZN8Security14AtomicTempFileC1ERNS_10AtomicFileERKNS_10RefPointerINS_16AtomicLockedFileEEEt
Security:single module:__ZN8Security14AtomicTempFileC2ERNS_10AtomicFileERKNS_10RefPointerINS_16AtomicLockedFileEEE
Security:single module:__ZN8Security14AtomicTempFileC2ERNS_10AtomicFileERKNS_10RefPointerINS_16AtomicLockedFileEEEt
Security:single module:__ZN8Security14AtomicTempFileC4ERNS_10AtomicFileERKNS_10RefPointerINS_16AtomicLockedFileEEE
Security:single module:__ZN8Security14AtomicTempFileC4ERNS_10AtomicFileERKNS_10RefPointerINS_16AtomicLockedFileEEEt
Security:single module:__ZN8Security14AtomicTempFileD1Ev
Security:single module:__ZN8Security14AtomicTempFileD2Ev
Security:single module:__ZN8Security14AtomicTempFileD4Ev
Security:single module:__ZN8Security16AtomicLockedFile4lockEt
Security:single module:__ZN8Security16AtomicLockedFile5rlinkEPKcS2_R4stat
Security:single module:__ZN8Security16AtomicLockedFile6uniqueEt
Security:single module:__ZN8Security16AtomicLockedFile6unlockEv
Security:single module:__ZN8Security16AtomicLockedFile6xcreatEPKctRl
Security:single module:__ZN8Security16AtomicLockedFile8myrenameEPKcS2_
Security:single module:__ZN8Security16AtomicLockedFileC1ERNS_10AtomicFileE
Security:single module:__ZN8Security16AtomicLockedFileC2ERNS_10AtomicFileE
Security:single module:__ZN8Security16AtomicLockedFileC4ERNS_10AtomicFileE
Security:single module:__ZN8Security16AtomicLockedFileD1Ev
Security:single module:__ZN8Security16AtomicLockedFileD2Ev
Security:single module:__ZN8Security16AtomicLockedFileD4Ev
Security:single module:__ZN8Security18AtomicBufferedFileC2ERKSs
Security:single module:__ZN8Security18AtomicBufferedFileD2Ev
Security:single module:__ZNK8Security10AtomicFile4modeEv
Security:single module:__ZN8Security17ModuleCallbackSet6Runner6actionEv
Security:single module:__ZNK8Security14ModuleCallbackclEmRKNS_4GuidEmm
Security:single module:__ZNK8Security17ModuleCallbackSetclEmRKNS_4GuidEmm
Security:single module:__ZN8Security7Context15deleteAttributeEm
Security:single module:__ZN8Security7Context7postIPCEPvP22cssm_context_attribute
Security:single module:__ZN8Security7ContextC1Emm
Security:single module:__ZN8Security10AclSubject10exportBlobERNS_23LowLevelMemoryUtilities6Writer7CounterES4_
Security:single module:__ZN8Security10AclSubject10exportBlobERNS_23LowLevelMemoryUtilities6WriterES3_
Security:single module:__ZN8Security10AclSubject10importBlobERNS_23LowLevelMemoryUtilities6ReaderES3_
Security:single module:__ZN8Security10AclSubject5Maker5crackERKNS_8CssmListEmPPNS_11ListElementEz
Security:single module:__ZN8Security10AclSubject5Maker7getWordERKNS_11ListElementEii
Security:single module:__ZN8Security10AclSubject5MakerC1El
Security:single module:__ZN8Security10AclSubject5MakerC2El
Security:single module:__ZN8Security10AclSubject5MakerC4El
Security:single module:__ZN8Security10AclSubject5MakerD0Ev
Security:single module:__ZN8Security10AclSubject5MakerD1Ev
Security:single module:__ZN8Security10AclSubject5MakerD2Ev
Security:single module:__ZN8Security10AclSubject5MakerD4Ev
Security:single module:__ZN8Security10AclSubjectD0Ev
Security:single module:__ZN8Security10AclSubjectD1Ev
Security:single module:__ZN8Security20AclValidationContextD0Ev
Security:single module:__ZN8Security20AclValidationContextD1Ev
Security:single module:__ZN8Security24AclValidationEnvironmentD0Ev
Security:single module:__ZN8Security24AclValidationEnvironmentD1Ev
Security:single module:__ZN8Security9ObjectAcl10changedAclEv
Security:single module:__ZN8Security9ObjectAcl10cssmGetAclEPKcRmRPNS_12AclEntryInfoE
Security:single module:__ZN8Security9ObjectAcl10exportBlobERNS_8CssmDataES2_
Security:single module:__ZN8Security9ObjectAcl12cssmGetOwnerERNS_17AclOwnerPrototypeE
Security:single module:__ZN8Security9ObjectAcl13cssmChangeAclERKNS_7AclEditEPKNS_17AccessCredentialsEPNS_24AclValidationEnvironmentE
Security:single module:__ZN8Security9ObjectAcl13validateOwnerElPKNS_17AccessCredentialsEPNS_24AclValidationEnvironmentE
Security:single module:__ZN8Security9ObjectAcl14cssmSetInitialERKNS_10RefPointerINS_10AclSubjectEEE
Security:single module:__ZN8Security9ObjectAcl14cssmSetInitialERKNS_17AclEntryPrototypeE
Security:single module:__ZN8Security9ObjectAcl14instantiateAclEv
Security:single module:__ZN8Security9ObjectAcl15cssmChangeOwnerERKNS_17AclOwnerPrototypeEPKNS_17AccessCredentialsEPNS_24AclValidationEnvironmentE
Security:single module:__ZN8Security9ObjectAcl15findEntryHandleEm
Security:single module:__ZN8Security9ObjectAcl4makeERKNS_9TypedListE
Security:single module:__ZN8Security9ObjectAcl5Entry4initERKNS_10RefPointerINS_10AclSubjectEEEb
Security:single module:__ZN8Security9ObjectAcl5EntryD0Ev
Security:single module:__ZN8Security9ObjectAcl5EntryD1Ev
Security:single module:__ZN8Security9ObjectAcl8AclEntryC1ERKNS_10RefPointerINS_10AclSubjectEEE
Security:single module:__ZN8Security9ObjectAcl8AclEntryC1ERKNS_17AclEntryPrototypeE
Security:single module:__ZN8Security9ObjectAcl8AclEntryC2ERKNS_10RefPointerINS_10AclSubjectEEE
Security:single module:__ZN8Security9ObjectAcl8AclEntryC2ERKNS_17AclEntryPrototypeE
Security:single module:__ZN8Security9ObjectAcl8AclEntryC4ERKNS_10RefPointerINS_10AclSubjectEEE
Security:single module:__ZN8Security9ObjectAcl8AclEntryC4ERKNS_17AclEntryPrototypeE
Security:single module:__ZN8Security9ObjectAclC1ERKNS_17AclEntryPrototypeERNS_13CssmAllocatorE
Security:single module:__ZN8Security9ObjectAclC1ERNS_13CssmAllocatorE
Security:single module:__ZN8Security9ObjectAclC2ERKNS_17AclEntryPrototypeERNS_13CssmAllocatorE
Security:single module:__ZN8Security9ObjectAclC4ERKNS_17AclEntryPrototypeERNS_13CssmAllocatorE
Security:single module:__ZN8Security9ObjectAclD0Ev
Security:single module:__ZN8Security9ObjectAclD1Ev
Security:single module:__ZNK8Security10AclSubject9debugDumpEv
Security:single module:__ZNK8Security9ObjectAcl10OwnerEntry10authorizesEl
Security:single module:__ZNK8Security9ObjectAcl10OwnerEntry8validateERKNS_20AclValidationContextE
Security:single module:__ZNK8Security9ObjectAcl8AclEntry11toEntryInfoER24cssm_acl_entry_prototypeRNS_13CssmAllocatorE
Security:single module:__ZNK8Security9ObjectAcl9debugDumpEPKc
Security:single module:__ZN8Security18AuthorizationGroupC2ERKSt3setIlSt4lessIlESaIlEERNS_13CssmAllocatorE
Security:single module:__ZN8Security18AuthorizationGroupC1ERKSt3setIlSt4lessIlESaIlEERNS_13CssmAllocatorE
Security:single module:__ZN8Security18AuthorizationGroupC4ERKSt3setIlSt4lessIlESaIlEERNS_13CssmAllocatorE
Security:single module:__ZN8Security18AuthorizationGroup7destroyERNS_13CssmAllocatorE
Security:single module:__ZNK8Security18AuthorizationGroup8containsEl
Security:single module:__ZNK8Security18AuthorizationGroupcvSt3setIlSt4lessIlESaIlEEEv
Security:single module:__ZN8Security17AclEntryPrototypeC2ERKNS_17AclOwnerPrototypeE
Security:single module:__ZN8Security17AclEntryPrototypeC1ERKNS_17AclOwnerPrototypeE
Security:single module:__ZN8Security17AclEntryPrototypeC4ERKNS_17AclOwnerPrototypeE
Security:single module:__ZN8Security17AclEntryPrototype3tagEPKc
Security:single module:__ZN8Security21AutoAclOwnerPrototype4makeEv
Security:single module:__ZN8Security21AutoAclOwnerPrototypeD2Ev
Security:single module:__ZN8Security21AutoAclOwnerPrototypeD1Ev
Security:single module:__ZN8Security21AutoAclOwnerPrototypeD4Ev
Security:single module:__ZN8Security21AutoAclOwnerPrototype9allocatorERNS_13CssmAllocatorE
Security:single module:__ZN8Security20AutoAclEntryInfoListD2Ev
Security:single module:__ZN8Security20AutoAclEntryInfoListD1Ev
Security:single module:__ZN8Security20AutoAclEntryInfoListD4Ev
Security:single module:__ZN8Security20AutoAclEntryInfoList9allocatorERNS_13CssmAllocatorE
Security:single module:__ZN22SensitiveCssmAllocator7reallocEPvm
Security:single module:__ZN8Security13CssmAllocatorD0Ev
Security:single module:__ZN8Security13CssmAllocatorD1Ev
Security:single module:__ZN8Security17TrackingAllocatorD0Ev
Security:single module:__ZN8Security17TrackingAllocatorD2Ev
Security:single module:__ZN8Security28CssmAllocatorMemoryFunctions11relayCallocEmmPv
Security:single module:__ZN8Security28CssmAllocatorMemoryFunctionsC2ERNS_13CssmAllocatorE
Security:single module:__ZN8Security8CssmHeapdlEPvm
Security:single module:__ZN8Security8CssmHeapdlEPvmPNS_13CssmAllocatorE
Security:single module:__ZN8Security8CssmHeapnwEmPNS_13CssmAllocatorE
Security:single module:__ZNK8Security13CssmAllocatoreqERKS0_
Security:single module:__ZN8Security15AutoCredentialsC1ERNS_13CssmAllocatorE
Security:single module:__ZN8Security15AutoCredentialsC2ERNS_13CssmAllocatorE
Security:single module:__ZN8Security15AutoCredentialsC2ERNS_13CssmAllocatorEm
Security:single module:__ZN8Security15AutoCredentialsC4ERNS_13CssmAllocatorE
Security:single module:__ZNK8Security11SampleGroup7collectElRSt4listINS_10CssmSampleESaIS2_EE
Security:single module:__ZN8Security12CssmDateDataC1ERK9cssm_date
Security:single module:__ZN8Security12CssmDateDataC2ERK9cssm_date
Security:single module:__ZN8Security12CssmDateDataC4ERK9cssm_date
Security:single module:__ZN8Security12CssmGuidDataC1ERK9cssm_guid
Security:single module:__ZN8Security12CssmGuidDataC2ERK9cssm_guid
Security:single module:__ZN8Security12CssmGuidDataC4ERK9cssm_guid
Security:single module:__ZN8Security13CssmOwnedData3setERNS_15CssmManagedDataE
Security:single module:__ZN8Security15CssmManagedDataD0Ev
Security:single module:__ZN8Security15CssmManagedDataD1Ev
Security:single module:__ZN8SecurityeqERK9cssm_dataS2_
Security:single module:__ZNK8Security14CssmDLPolyDatacvNS_4GuidEEv
Security:single module:__ZN8Security8CssmDateC2EPKcS2_S2_
Security:single module:__ZN8Security8CssmDateC1EPKcS2_S2_
Security:single module:__ZN8Security8CssmDateC4EPKcS2_S2_
Security:single module:__ZN8Security8CssmDateC2Eiii
Security:single module:__ZN8Security8CssmDateC1Eiii
Security:single module:__ZN8Security8CssmDateC4Eiii
Security:single module:__ZNK8Security8CssmDate4yearEv
Security:single module:__ZNK8Security8CssmDate5monthEv
Security:single module:__ZNK8Security8CssmDate3dayEv
Security:single module:__ZN8Security8CssmDate6assignEPciPKc
Security:single module:__ZN8Security15CssmUniformDateC2EPK8__CFDate
Security:single module:__ZN8Security15CssmUniformDateC1EPK8__CFDate
Security:single module:__ZN8Security15CssmUniformDateC4EPK8__CFDate
Security:single module:__ZNK8Security15CssmUniformDatecvPK8__CFDateEv
Security:single module:__ZN8Security15CssmUniformDateC2ERKNS_8CssmDateE
Security:single module:__ZN8Security15CssmUniformDateC1ERKNS_8CssmDateE
Security:single module:__ZN8Security15CssmUniformDateC4ERKNS_8CssmDateE
Security:single module:__ZNK8Security15CssmUniformDatecvNS_8CssmDateEEv
Security:single module:__ZN8Security15CssmUniformDateC2ERK9cssm_data
Security:single module:__ZN8Security15CssmUniformDateC1ERK9cssm_data
Security:single module:__ZN8Security15CssmUniformDateC4ERK9cssm_data
Security:single module:__ZNK8Security15CssmUniformDate9convertToERNS_13CssmOwnedDataE
Security:single module:__ZN8Security15CssmUniformDateC2EPKc
Security:single module:__ZN8Security15CssmUniformDateC1EPKc
Security:single module:__ZN8Security15CssmUniformDateC4EPKc
Security:single module:__ZNK8Security15CssmUniformDate9convertToEPcm
Security:single module:__ZN8Security15CssmUniformDate13setFromStringEPKcS2_m
Security:single module:__ZN8Security13CssmAutoQueryC1ERK10cssm_queryRNS_13CssmAllocatorE
Security:single module:__ZN8Security13CssmAutoQueryD1Ev
Security:single module:__ZN8Security19CssmDbAttributeData11deleteValueERKNS_8CssmDataERNS_13CssmAllocatorE
Security:single module:__ZN8Security19CssmDbAttributeData12deleteValuesERKS0_RNS_13CssmAllocatorE
Security:single module:__ZN8Security19CssmDbAttributeData3addERKS0_RNS_13CssmAllocatorE
Security:single module:__ZN8Security25CssmDbRecordAttributeData4findERK22cssm_db_attribute_info
Security:single module:__ZN8Security29CssmAutoDbRecordAttributeData3addERK22cssm_db_attribute_infoRKNS_12CssmPolyDataE
Security:single module:__ZN8Security29CssmAutoDbRecordAttributeDataD1Ev
Security:single module:__ZNK8Security19CssmDbAttributeDataltERKS0_
Security:single module:__ZNK8Security19CssmDbAttributeInfoeqERKS0_
Security:single module:__ZNK8Security19CssmDbAttributeInfoltERKS0_
Security:single module:__ZNK8Security25CssmDbRecordAttributeDataltERKS0_
Security:single module:__ZN8Security8ErrorMapC2Ev
Security:single module:__ZN8Security8ErrorMapC1Ev
Security:single module:__ZN8Security8ErrorMapC4Ev
Security:single module:_cssmPerror
Security:single module:__ZN8Security15cssmErrorStringEl
Security:single module:__ZN8Security15cssmErrorStringERKNS_15CssmCommonErrorE
Security:single module:__ZN8Security11ListElement4dataEv
Security:single module:__ZN8Security11ListElement5clearERNS_13CssmAllocatorE
Security:single module:__ZN8Security11ListElement9typedListEv
Security:single module:__ZN8Security11ListElementC1ERKNS_8CssmDataE
Security:single module:__ZN8Security11ListElementC1ERNS_13CssmAllocatorERKNS_8CssmDataE
Security:single module:__ZN8Security11ListElementC1ERNS_13CssmAllocatorERKSs
Security:single module:__ZN8Security11ListElementC2ERKNS_8CssmDataE
Security:single module:__ZN8Security11ListElementC2ERKNS_8CssmListE
Security:single module:__ZN8Security11ListElementC2ERNS_13CssmAllocatorERKNS_8CssmDataE
Security:single module:__ZN8Security11ListElementC2ERNS_13CssmAllocatorERKSs
Security:single module:__ZN8Security11ListElementC2El
Security:single module:__ZN8Security11ListElementC4ERKNS_8CssmDataE
Security:single module:__ZN8Security11ListElementC4ERNS_13CssmAllocatorERKNS_8CssmDataE
Security:single module:__ZN8Security11ListElementC4ERNS_13CssmAllocatorERKSs
Security:single module:__ZN8Security8CssmList4snipEv
Security:single module:__ZN8Security8CssmList5clearERNS_13CssmAllocatorE
Security:single module:__ZN8Security8CssmList6insertEPNS_11ListElementES2_
Security:single module:__ZN8Security8CssmList6removeEPNS_11ListElementE
Security:single module:__ZN8Security9TypedListC1ERNS_13CssmAllocatorElPNS_11ListElementES4_
Security:single module:__ZN8Security9TypedListC1ERNS_13CssmAllocatorElPNS_11ListElementES4_S4_
Security:single module:__ZN8Security9TypedListC1ERNS_13CssmAllocatorElPNS_11ListElementES4_S4_S4_
Security:single module:__ZN8Security9TypedListC2ERNS_13CssmAllocatorEl
Security:single module:__ZN8Security9TypedListC2ERNS_13CssmAllocatorElPNS_11ListElementE
Security:single module:__ZN8Security9TypedListC2ERNS_13CssmAllocatorElPNS_11ListElementES4_
Security:single module:__ZN8Security9TypedListC2ERNS_13CssmAllocatorElPNS_11ListElementES4_S4_
Security:single module:__ZN8Security9TypedListC2ERNS_13CssmAllocatorElPNS_11ListElementES4_S4_S4_
Security:single module:__ZN8Security9TypedListC4ERNS_13CssmAllocatorElPNS_11ListElementES4_
Security:single module:__ZN8Security9TypedListC4ERNS_13CssmAllocatorElPNS_11ListElementES4_S4_
Security:single module:__ZN8Security9TypedListC4ERNS_13CssmAllocatorElPNS_11ListElementES4_S4_S4_
Security:single module:__ZNK8Security11ListElement4dataEv
Security:single module:__ZNK8Security11ListElement4listEv
Security:single module:__ZNK8Security11ListElement9typedListEv
Security:single module:__ZNK8Security8CssmList6lengthEv
Security:single module:__ZNK8Security8CssmListixEj
Security:single module:__ZNK8Security9TypedList11checkProperEl
Security:single module:__ZN8Security6Daemon9incarnateEv
Security:single module:__ZN8Security6Daemon11executeSelfEPPc
Security:single module:__ZN8Security15DatabaseManager10getDbNamesERNS_15DatabaseSessionE
Security:single module:__ZN8Security15DatabaseManager12freeNameListERNS_15DatabaseSessionER14cssm_name_list
Security:single module:__ZN8Security15DatabaseManager8dbCreateERNS_15DatabaseSessionERKNS_6DbNameERK11cssm_dbinfomPK29cssm_resource_control_contextPKv
Security:single module:__ZN8Security15DatabaseManager8dbDeleteERNS_15DatabaseSessionERKNS_6DbNameEPKNS_17AccessCredentialsE
Security:single module:__ZN8Security15DatabaseManagerC1Ev
Security:single module:__ZN8Security15DatabaseManagerD0Ev
Security:single module:__ZN8Security15DatabaseManagerD1Ev
Security:single module:__ZN8Security15DatabaseManagerD2Ev
Security:single module:__ZN8Security15DatabaseManagerD4Ev
Security:single module:__ZN8Security8Database9_dbCreateERNS_15DatabaseSessionERK11cssm_dbinfomPK29cssm_resource_control_contextPKv
Security:single module:__ZN8Security8DatabaseC1ERKNS_6DbNameE
Security:single module:__ZN8Security8DatabaseD0Ev
Security:single module:__ZN8Security8DatabaseD1Ev
Security:single module:__ZN8Security15DatabaseSession10DataDeleteEmRK21cssm_db_unique_record
Security:single module:__ZN8Security15DatabaseSession10DataInsertEmmPK29cssm_db_record_attribute_dataPKNS_8CssmDataERP21cssm_db_unique_record
Security:single module:__ZN8Security15DatabaseSession10DataModifyEmmR21cssm_db_unique_recordPK29cssm_db_record_attribute_dataPKNS_8CssmDataEm
Security:single module:__ZN8Security15DatabaseSession10GetDbNamesERP14cssm_name_list
Security:single module:__ZN8Security15DatabaseSession10GetDbOwnerEmR24cssm_acl_owner_prototype
Security:single module:__ZN8Security15DatabaseSession11ChangeDbAclEmRKNS_17AccessCredentialsERK13cssm_acl_edit
Security:single module:__ZN8Security15DatabaseSession11PassThroughEmmPKvPPv
Security:single module:__ZN8Security15DatabaseSession12AuthenticateEmmRKNS_17AccessCredentialsE
Security:single module:__ZN8Security15DatabaseSession12FreeNameListER14cssm_name_list
Security:single module:__ZN8Security15DatabaseSession13ChangeDbOwnerEmRKNS_17AccessCredentialsERK24cssm_acl_owner_prototype
Security:single module:__ZN8Security15DatabaseSession14CreateRelationEmmPKcmRK29cssm_db_schema_attribute_infomRK25cssm_db_schema_index_info
Security:single module:__ZN8Security15DatabaseSession15DestroyRelationEmm
Security:single module:__ZN8Security15DatabaseSession19GetDbNameFromHandleEmPPc
Security:single module:__ZN8Security15DatabaseSession8DbCreateEPKcPK16cssm_net_addressRK11cssm_dbinfomPK29cssm_resource_control_contextPKvRm
Security:single module:__ZN8Security15DatabaseSession8DbDeleteEPKcPK16cssm_net_addressPKNS_17AccessCredentialsE
Security:single module:__ZN8Security15DatabaseSession8GetDbAclEmPA68_KcRmRP19cssm_acl_entry_info
Security:single module:__ZN8Security15DatabaseSession8closeAllEv
Security:single module:__ZN8Security15DatabaseSessionC1ERNS_15DatabaseManagerE
Security:single module:__ZN8Security15DatabaseSessionD0Ev
Security:single module:__ZN8Security15DatabaseSessionD1Ev
Security:single module:__ZThn4_N8Security15DatabaseSessionD0Ev
Security:single module:__ZThn4_N8Security15DatabaseSessionD1Ev
Security:single module:__ZN8Security9DbContextC1ERNS_8DatabaseERNS_15DatabaseSessionEmPK23cssm_access_credentials
Security:single module:__ZN8Security9DbContextD0Ev
Security:single module:__ZN8Security9DbContextD1Ev
Security:single module:__ZN8Security10DbQueryKeyC2ERKNS_12DbConstIndexE
Security:single module:__ZN8Security12DbConstIndexC1ERKNS_5TableEmb
Security:single module:__ZN8Security12DbConstIndexC2ERKNS_5TableERKNS_11ReadSectionE
Security:single module:__ZN8Security12DbConstIndexC2ERKNS_5TableEmb
Security:single module:__ZN8Security12DbConstIndexC4ERKNS_5TableEmb
Security:single module:__ZN8Security14DbMutableIndex10writeIndexERNS_12WriteSectionEm
Security:single module:__ZN8Security14DbMutableIndex12insertRecordEmRKNS_11ReadSectionE
Security:single module:__ZN8Security14DbMutableIndex12removeRecordEm
Security:single module:__ZN8Security14DbMutableIndex17insertRecordMultiEmRKNS_11ReadSectionEmRNS_12WriteSectionEm
Security:single module:__ZN8Security14DbMutableIndex18insertRecordSingleEmRKNS_11ReadSectionE
Security:single module:__ZN8Security14DbMutableIndexC1ERKNS_10MetaRecordEmb
Security:single module:__ZN8Security14DbMutableIndexC1ERKNS_12DbConstIndexE
Security:single module:__ZN8Security14DbMutableIndexC2ERKNS_10MetaRecordEmb
Security:single module:__ZN8Security14DbMutableIndexC2ERKNS_12DbConstIndexE
Security:single module:__ZN8Security14DbMutableIndexC4ERKNS_10MetaRecordEmb
Security:single module:__ZN8Security14DbMutableIndexC4ERKNS_12DbConstIndexE
Security:single module:__ZN8Security14DbMutableIndexD1Ev
Security:single module:__ZN8Security14DbMutableIndexD2Ev
Security:single module:__ZN8Security14DbMutableIndexD4Ev
Security:single module:__ZN8Security7DbIndexC1ERKNS_10MetaRecordEmb
Security:single module:__ZNK8Security10DbIndexKeyltERKS0_
Security:single module:__ZN8Security14CssmNetAddressC1ERK16cssm_net_address
Security:single module:__ZN8Security14CssmNetAddressC1EmRKNS_8CssmDataE
Security:single module:__ZN8Security14CssmNetAddressC2ERK16cssm_net_address
Security:single module:__ZN8Security14CssmNetAddressC2EmRKNS_8CssmDataE
Security:single module:__ZN8Security14CssmNetAddressC4ERK16cssm_net_address
Security:single module:__ZN8Security14CssmNetAddressC4EmRKNS_8CssmDataE
Security:single module:__ZN8Security14CssmNetAddressD1Ev
Security:single module:__ZN8Security14CssmNetAddressD2Ev
Security:single module:__ZN8Security14CssmNetAddressD4Ev
Security:single module:__ZN8Security6DbNameC2EPKcPK16cssm_net_address
Security:single module:__ZN8Security6DbNameC2ERKS0_
Security:single module:__ZN8Security6DbNameD2Ev
Security:single module:__ZN8Security6DbNameaSERKS0_
Security:single module:__ZN8Security7DbQueryC2Ev
Security:single module:__ZN8Security7DbQueryC1Ev
Security:single module:__ZN8Security7DbQueryC4Ev
Security:single module:__ZN8Security7DbQueryD2Ev
Security:single module:__ZN8Security7DbQueryD1Ev
Security:single module:__ZN8Security7DbQueryD0Ev
Security:single module:__ZN8Security7DbQueryD4Ev
Security:single module:__ZN8Security11BigNumValue7compareEPKhS2_i
Security:single module:__ZN8Security11BigNumValueC1ERK9cssm_data
Security:single module:__ZN8Security11BigNumValueC1ERKNS_11ReadSectionERm
Security:single module:__ZN8Security11BigNumValueC2ERK9cssm_data
Security:single module:__ZN8Security11BigNumValueC2ERKNS_11ReadSectionERm
Security:single module:__ZN8Security11BigNumValueC4ERK9cssm_data
Security:single module:__ZN8Security11BigNumValueC4ERKNS_11ReadSectionERm
Security:single module:__ZN8Security11BigNumValueD0Ev
Security:single module:__ZN8Security11BigNumValueD1Ev
Security:single module:__ZN8Security11BigNumValueD2Ev
Security:single module:__ZN8Security11BigNumValueD4Ev
Security:single module:__ZN8Security11DoubleValueC1ERK9cssm_data
Security:single module:__ZN8Security11DoubleValueC1ERKNS_11ReadSectionERm
Security:single module:__ZN8Security11DoubleValueC2ERK9cssm_data
Security:single module:__ZN8Security11DoubleValueC2ERKNS_11ReadSectionERm
Security:single module:__ZN8Security11DoubleValueC4ERK9cssm_data
Security:single module:__ZN8Security11DoubleValueC4ERKNS_11ReadSectionERm
Security:single module:__ZN8Security11DoubleValueD0Ev
Security:single module:__ZN8Security11DoubleValueD1Ev
Security:single module:__ZN8Security11DoubleValueD2Ev
Security:single module:__ZN8Security11DoubleValueD4Ev
Security:single module:__ZN8Security11SInt32ValueC1ERK9cssm_data
Security:single module:__ZN8Security11SInt32ValueC1ERKNS_11ReadSectionERm
Security:single module:__ZN8Security11SInt32ValueC2ERK9cssm_data
Security:single module:__ZN8Security11SInt32ValueC2ERKNS_11ReadSectionERm
Security:single module:__ZN8Security11SInt32ValueC4ERK9cssm_data
Security:single module:__ZN8Security11SInt32ValueC4ERKNS_11ReadSectionERm
Security:single module:__ZN8Security11SInt32ValueD0Ev
Security:single module:__ZN8Security11SInt32ValueD1Ev
Security:single module:__ZN8Security11SInt32ValueD2Ev
Security:single module:__ZN8Security11SInt32ValueD4Ev
Security:single module:__ZN8Security11StringValue10ComparatorclEPKhS3_m
Security:single module:__ZN8Security11StringValueC1ERK9cssm_data
Security:single module:__ZN8Security11StringValueC2ERK9cssm_data
Security:single module:__ZN8Security11StringValueC2ERKNS_11ReadSectionERm
Security:single module:__ZN8Security11StringValueC4ERK9cssm_data
Security:single module:__ZN8Security11StringValueD0Ev
Security:single module:__ZN8Security11StringValueD2Ev
Security:single module:__ZN8Security11UInt32ValueC2ERK9cssm_data
Security:single module:__ZN8Security11UInt32ValueC2ERKNS_11ReadSectionERm
Security:single module:__ZN8Security11UInt32ValueD2Ev
Security:single module:__ZN8Security13TimeDateValueC1ERK9cssm_data
Security:single module:__ZN8Security13TimeDateValueC1ERKNS_11ReadSectionERm
Security:single module:__ZN8Security13TimeDateValueC2ERK9cssm_data
Security:single module:__ZN8Security13TimeDateValueC2ERKNS_11ReadSectionERm
Security:single module:__ZN8Security13TimeDateValueC4ERK9cssm_data
Security:single module:__ZN8Security13TimeDateValueC4ERKNS_11ReadSectionERm
Security:single module:__ZN8Security13TimeDateValueD0Ev
Security:single module:__ZN8Security13TimeDateValueD1Ev
Security:single module:__ZN8Security13TimeDateValueD2Ev
Security:single module:__ZN8Security13TimeDateValueD4Ev
Security:single module:__ZN8Security16MultiUInt32ValueC1ERK9cssm_data
Security:single module:__ZN8Security16MultiUInt32ValueC1ERKNS_11ReadSectionERm
Security:single module:__ZN8Security16MultiUInt32ValueC2ERK9cssm_data
Security:single module:__ZN8Security16MultiUInt32ValueC2ERKNS_11ReadSectionERm
Security:single module:__ZN8Security16MultiUInt32ValueC4ERK9cssm_data
Security:single module:__ZN8Security16MultiUInt32ValueC4ERKNS_11ReadSectionERm
Security:single module:__ZN8Security16MultiUInt32ValueD0Ev
Security:single module:__ZN8Security16MultiUInt32ValueD1Ev
Security:single module:__ZN8Security16MultiUInt32ValueD2Ev
Security:single module:__ZN8Security16MultiUInt32ValueD4Ev
Security:single module:__ZN8Security7DbValueD0Ev
Security:single module:__ZN8Security7DbValueD1Ev
Security:single module:__ZN8Security9BlobValue10ComparatorD0Ev
Security:single module:__ZN8Security9BlobValue10ComparatorD2Ev
Security:single module:__ZN8Security9BlobValueC2ERK9cssm_data
Security:single module:__ZNK8Security11BigNumValue8evaluateERKS0_m
Security:single module:__ZNK8Security11DoubleValue4packERNS_12WriteSectionERm
Security:single module:__ZNK8Security11SInt32Value4packERNS_12WriteSectionERm
Security:single module:__ZNK8Security11StringValue8evaluateERKS0_m
Security:single module:__ZNK8Security11UInt32Value4packERNS_12WriteSectionERm
Security:single module:__ZNK8Security13TimeDateValue10rangeValueEmm
Security:single module:__ZNK8Security13TimeDateValue11isValidDateEv
Security:single module:__ZNK8Security13TimeDateValue4packERNS_12WriteSectionERm
Security:single module:__ZNK8Security16MultiUInt32Value4packERNS_12WriteSectionERm
Security:single module:__ZNK8Security16MultiUInt32Value8evaluateERKS0_m
Security:single module:__ZN8Security5Debug10SyslogSink3putEPKcj
Security:single module:__ZN8Security5Debug10SyslogSink4dumpEPKc
Security:single module:__ZN8Security5Debug10SyslogSink9configureEPKc
Security:single module:__ZN8Security5Debug4dumpEPKcz
Security:single module:__ZN8Security5Debug6Target10terminatorEv
Security:single module:__ZN8Security5Debug6Target18setFromEnvironmentEv
Security:single module:__ZN8Security5Debug6Target2toEP7__sFILE
Security:single module:__ZN8Security5Debug6Target2toEPKc
Security:single module:__ZN8Security5Debug6Target2toEPNS1_4SinkE
Security:single module:__ZN8Security5Debug6Target2toEi
Security:single module:__ZN8Security5Debug6Target4Sink4dumpEPKc
Security:single module:__ZN8Security5Debug6Target4Sink9configureEPKc
Security:single module:__ZN8Security5Debug6Target4SinkD0Ev
Security:single module:__ZN8Security5Debug6Target4SinkD1Ev
Security:single module:__ZN8Security5Debug6Target4SinkD2Ev
Security:single module:__ZN8Security5Debug6Target4SinkD4Ev
Security:single module:__ZN8Security5Debug6Target4dumpEPKc
Security:single module:__ZN8Security5Debug6Target4dumpEPKcPc
Security:single module:__ZN8Security5Debug6Target8SelectorC1Ev
Security:single module:__ZN8Security5Debug6Target8SelectorC2Ev
Security:single module:__ZN8Security5Debug6Target8SelectorC4Ev
Security:single module:__ZN8Security5Debug6Target8SelectoraSEPKc
Security:single module:__ZN8Security5Debug6Target9configureEPKc
Security:single module:__ZN8Security5Debug6Target9configureEv
Security:single module:__ZN8Security5Debug6Target9debuggingEPKc
Security:single module:__ZN8Security5Debug6TargetC1Ev
Security:single module:__ZN8Security5Debug6TargetC2Ev
Security:single module:__ZN8Security5Debug6TargetC4Ev
Security:single module:__ZN8Security5Debug6TargetD0Ev
Security:single module:__ZN8Security5Debug6TargetD1Ev
Security:single module:__ZN8Security5Debug6TargetD2Ev
Security:single module:__ZN8Security5Debug6TargetD4Ev
Security:single module:__ZN8Security5Debug6vdebugEPKcS2_Pc
Security:single module:__ZN8Security5Debug7dumpingEPKc
Security:single module:__ZN8Security5Debug8FileSink3putEPKcj
Security:single module:__ZN8Security5Debug8FileSink4dumpEPKc
Security:single module:__ZN8Security5Debug8FileSink9configureEPKc
Security:single module:__ZN8Security5Debug8dumpDataEPKcPKvm
Security:single module:__ZN8Security5Debug8dumpDataEPKvm
Security:single module:__ZN8Security5Debug9debuggingEPKc
Security:single module:___security_debug
Security:single module:___security_debugging
Security:single module:__ZN8Security11GlobalNexus5ErrorD0Ev
Security:single module:__ZN8Security11GlobalNexus5ErrorD1Ev
Security:single module:__ZN8Security11GlobalNexus5ErrorD2Ev
Security:single module:__ZN8Security11GlobalNexus5ErrorD4Ev
Security:single module:__ZN8Security16ProcessNexusBaseC1EPKc
Security:single module:__ZN8Security16ProcessNexusBaseC2EPKc
Security:single module:__ZN8Security16ProcessNexusBaseC4EPKc
Security:single module:__ZN8Security12HandleObject4lockEv
Security:single module:__ZN8Security12HandleObject5StateC2Ev
Security:single module:__ZN8Security12HandleObject7tryLockEv
Security:single module:__ZN8Security12HandleObjectD0Ev
Security:single module:__ZN8Security12HandleObjectD1Ev
Security:single module:__ZN8Security6Syslog4openEPKcii
Security:single module:__ZN8Security6Syslog6outputEiPKcPc
Security:single module:__ZN8Security6Syslog6syslogEiPKcz
Security:single module:__ZN8Security6Syslog9emergencyEPKcz
Security:single module:__ZN8Security6Syslog5alertEPKcz
Security:single module:__ZN8Security6Syslog8criticalEPKcz
Security:single module:__ZN8Security6Syslog5errorEPKcz
Security:single module:__ZN8Security6Syslog7warningEPKcz
Security:single module:__ZN8Security6Syslog6noticeEPKcz
Security:single module:__ZN8Security6Syslog4infoEPKcz
Security:single module:__ZN8Security6Syslog5debugEPKcz
Security:single module:__ZN8Security6Syslog4maskEv
Security:single module:__ZN8Security6Syslog4uptoEi
Security:single module:__ZN8Security6Syslog6enableEi
Security:single module:__ZN8Security6Syslog7disableEi
Security:single module:__ZN8Security12MachPlusPlus11StBootstrapC2ERKNS0_9BootstrapERKNS0_8TaskPortE
Security:single module:__ZN8Security12MachPlusPlus11StBootstrapD1Ev
Security:single module:__ZN8Security12MachPlusPlus11StBootstrapD2Ev
Security:single module:__ZN8Security12MachPlusPlus11StBootstrapD4Ev
Security:single module:__ZN8Security12MachPlusPlus4Port12cancelNotifyEi
Security:single module:__ZN8Security12MachPlusPlus4Port7getRefsEj
Security:single module:__ZN8Security12MachPlusPlus5Error7throwMeEi
Security:single module:__ZN8Security12MachPlusPlus5ErrorC1Ei
Security:single module:__ZN8Security12MachPlusPlus5ErrorC2Ei
Security:single module:__ZN8Security12MachPlusPlus5ErrorC4Ei
Security:single module:__ZN8Security12MachPlusPlus5ErrorD0Ev
Security:single module:__ZN8Security12MachPlusPlus5ErrorD1Ev
Security:single module:__ZN8Security12MachPlusPlus5ErrorD2Ev
Security:single module:__ZN8Security12MachPlusPlus5ErrorD4Ev
Security:single module:__ZN8Security12MachPlusPlus7Message11sendReceiveEjijj
Security:single module:__ZN8Security12MachPlusPlus7Message4sendEijj
Security:single module:__ZN8Security12MachPlusPlus7Message5checkEi
Security:single module:__ZN8Security12MachPlusPlus7Message7receiveEjijj
Security:single module:__ZN8Security12MachPlusPlus7MessageC1EPvm
Security:single module:__ZN8Security12MachPlusPlus7MessageC1Em
Security:single module:__ZN8Security12MachPlusPlus7MessageC2EPvm
Security:single module:__ZN8Security12MachPlusPlus7MessageC2Em
Security:single module:__ZN8Security12MachPlusPlus7MessageC4EPvm
Security:single module:__ZN8Security12MachPlusPlus7MessageC4Em
Security:single module:__ZN8Security12MachPlusPlus7MessageD0Ev
Security:single module:__ZN8Security12MachPlusPlus7MessageD2Ev
Security:single module:__ZN8Security12MachPlusPlus8TaskPort6forPidEi
Security:single module:__ZN8Security12MachPlusPlus8allocateEm
Security:single module:__ZN8Security12MachPlusPlus9Bootstrap6subsetENS0_4PortE
Security:single module:__ZNK8Security12MachPlusPlus5Error8osStatusEv
Security:single module:__ZNK8Security12MachPlusPlus5Error9cssmErrorEv
Security:single module:__ZNK8Security12MachPlusPlus7PortSet7membersEv
Security:single module:__ZNK8Security12MachPlusPlus7PortSet8containsENS0_4PortE
Security:single module:__ZNK8Security12MachPlusPlus9Bootstrap10registerAsEjPKc
Security:single module:__ZNK8Security12MachPlusPlus9Bootstrap7checkInEPKc
Security:single module:__Xmach_notify_port_destroyed
Security:single module:__Xmach_notify_send_once
Security:single module:_notify_server_routine
Security:single module:__ZN8Security12MachPlusPlus17MachRunLoopServer12alsoListenOnENS0_4PortE
Security:single module:__ZN8Security12MachPlusPlus17MachRunLoopServer12stopListenOnENS0_4PortE
Security:single module:__ZN8Security12MachPlusPlus17MachRunLoopServerC1EPKc
Security:single module:__ZN8Security12MachPlusPlus17MachRunLoopServerC1EPKcRKNS0_9BootstrapE
Security:single module:__ZN8Security12MachPlusPlus17MachRunLoopServerC2EPKc
Security:single module:__ZN8Security12MachPlusPlus17MachRunLoopServerC4EPKc
Security:single module:__ZN8Security12MachPlusPlus17MachRunLoopServerD0Ev
Security:single module:__ZN8Security12MachPlusPlus17MachRunLoopServerD1Ev
Security:single module:__ZN8Security12MachPlusPlus17MachRunLoopServerD2Ev
Security:single module:__ZN8Security12MachPlusPlus17MachRunLoopServerD4Ev
Security:single module:__ZN8Security12MachPlusPlus10MachServer14NoReplyHandler6handleEP17mach_msg_header_tS4_
Security:single module:__ZN8Security12MachPlusPlus10MachServer14notifyDeadNameENS0_4PortE
Security:single module:__ZN8Security12MachPlusPlus10MachServer14notifySendOnceENS0_4PortE
Security:single module:__ZN8Security12MachPlusPlus10MachServer15notifyNoSendersENS0_4PortEj
Security:single module:__ZN8Security12MachPlusPlus10MachServer19notifyPortDestroyedENS0_4PortE
Security:single module:__ZN8Security12MachPlusPlus10MachServer3addENS0_4PortE
Security:single module:__ZN8Security12MachPlusPlus10MachServer3addERNS1_7HandlerE
Security:single module:__ZN8Security12MachPlusPlus10MachServer3runEmi
Security:single module:__ZN8Security12MachPlusPlus10MachServer5setupEPKc
Security:single module:__ZN8Security12MachPlusPlus10MachServer6removeENS0_4PortE
Security:single module:__ZN8Security12MachPlusPlus10MachServer6removeERNS1_7HandlerE
Security:single module:__ZN8Security12MachPlusPlus10MachServer9addThreadEPNS_6ThreadE
Security:single module:__ZN8Security12MachPlusPlus10MachServerC1EPKc
Security:single module:__ZN8Security12MachPlusPlus10MachServerC1EPKcRKNS0_9BootstrapE
Security:single module:__ZN8Security12MachPlusPlus10MachServerC2EPKc
Security:single module:__ZN8Security12MachPlusPlus10MachServerC4EPKc
Security:single module:__ZN8Security12MachPlusPlus10MachServerD0Ev
Security:single module:__ZN8Security12MachPlusPlus10MachServerD1Ev
Security:single module:__ZN8Security12MachPlusPlus10MachServerD2Ev
Security:single module:__ZN8Security12MachPlusPlus10MachServerD4Ev
Security:single module:__ZNK8Security12MachPlusPlus10MachServer14notifyIfUnusedENS0_4PortEb
Security:single module:_cdsa_mach_notify_port_destroyed
Security:single module:_cdsa_mach_notify_send_once
Security:single module:__ZN8Security13MetaAttributeD0Ev
Security:single module:__ZN8Security13MetaAttributeD1Ev
Security:single module:__ZNK8Security13MetaAttribute13packAttributeERNS_12WriteSectionERmmPK9cssm_data
Security:single module:__ZNK8Security13MetaAttribute14copyValueBytesEmRKNS_11ReadSectionERNS_12WriteSectionERm
Security:single module:__ZNK8Security13MetaAttribute17getNumberOfValuesERKNS_11ReadSectionE
Security:single module:__ZNK8Security13MetaAttribute18packNumberOfValuesERNS_12WriteSectionEmRm
Security:single module:__ZN8Security10MetaRecordC1ERK29cssm_db_record_attribute_info
Security:single module:__ZN8Security10MetaRecordC1EmmPK29cssm_db_schema_attribute_info
Security:single module:__ZN8Security10MetaRecordC2ERK29cssm_db_record_attribute_info
Security:single module:__ZN8Security10MetaRecordC2Em
Security:single module:__ZN8Security10MetaRecordC2EmmPK29cssm_db_schema_attribute_info
Security:single module:__ZN8Security10MetaRecordC4ERK29cssm_db_record_attribute_info
Security:single module:__ZN8Security10MetaRecordC4EmmPK29cssm_db_schema_attribute_info
Security:single module:__ZN8Security10MetaRecordD2Ev
Security:single module:__ZNK8Security10MetaRecord10packRecordERNS_12WriteSectionEPK29cssm_db_record_attribute_dataPKNS_8CssmDataE
Security:single module:__ZNK8Security10MetaRecord12updateRecordERKNS_11ReadSectionERNS_12WriteSectionEPKNS_25CssmDbRecordAttributeDataEPKNS_8CssmDataEm
Security:single module:__ZN8Security11CodeSigning13GenericBundle12lookupSymbolEPKc
Security:single module:__ZN8Security11CodeSigning13GenericBundleD1Ev
Security:single module:__ZN8Security11CodeSigning14LoadableBundle4loadEv
Security:single module:__ZN8Security11CodeSigning14LoadableBundle6unloadEv
Security:single module:__ZNK8Security11CodeSigning14ExecutableTool13canonicalPathEv
Security:single module:__ZNK8Security11CodeSigning14LoadableBundle8isLoadedEv
Security:single module:__ZN8Security18SelectionPredicateC2ERKNS_10MetaRecordERK24cssm_selection_predicate
Security:single module:__ZN8Security18SelectionPredicateD2Ev
Security:single module:__ZN8Security12NestingMutex4lockEv
Security:single module:__ZN8Security12NestingMutex6unlockEv
Security:single module:__ZN8Security12NestingMutex7tryLockEv
Security:single module:__ZN8Security12NestingMutexC1Ev
Security:single module:__ZN8Security12NestingMutexC2Ev
Security:single module:__ZN8Security12NestingMutexC4Ev
Security:single module:__ZN8Security12ThreadRunner6actionEv
Security:single module:__ZN8Security12ThreadRunnerC1EPFvvE
Security:single module:__ZN8Security12ThreadRunnerC2EPFvvE
Security:single module:__ZN8Security12ThreadRunnerC4EPFvvE
Security:single module:__ZN8Security13CountingMutex10finishExitEv
Security:single module:__ZN8Security13CountingMutex5enterEv
Security:single module:__ZN8Security15ThreadStoreSlotC1EPFvPvE
Security:single module:__ZN8Security15ThreadStoreSlotD1Ev
Security:single module:__ZN8Security6Thread3runEv
Security:single module:__ZN8Security6Thread5yieldEv
Security:single module:__ZN8Security6Thread8Identity11getIdStringEPc
Security:single module:__ZN8Security6ThreadD0Ev
Security:single module:__ZN8Security6ThreadD1Ev
Security:single module:__ZN8Security10MacOSError7throwMeEi
Security:single module:__ZN8Security10MacOSErrorC1Ei
Security:single module:__ZN8Security10MacOSErrorC2Ei
Security:single module:__ZN8Security10MacOSErrorC4Ei
Security:single module:__ZN8Security15CryptoDataClassD0Ev
Security:single module:__ZN8Security15CryptoDataClassD1Ev
Security:single module:__ZN8Security15CryptoDataClassD2Ev
Security:single module:__ZN8Security15CryptoDataClassD4Ev
Security:single module:__ZN8Security15CssmCommonErrorC1ERKS0_
Security:single module:__ZN8Security15CssmCommonErrorC1Ev
Security:single module:__ZN8Security15CssmCommonErrorC2ERKS0_
Security:single module:__ZN8Security15CssmCommonErrorC4ERKS0_
Security:single module:__ZN8Security15CssmCommonErrorD0Ev
Security:single module:__ZN8Security15CssmCommonErrorD1Ev
Security:single module:__ZN8Security17CssmSubserviceUidC2ERK9cssm_guidPK12cssm_versionmm
Security:single module:__ZN8Security4GuidC2EPKc
Security:single module:__ZN8Security7CssmKeyC1ERK8cssm_key
Security:single module:__ZN8Security7CssmKeyC1ERK9cssm_data
Security:single module:__ZN8Security7CssmKeyC2ERK9cssm_data
Security:single module:__ZN8Security7CssmKeyC2EmPv
Security:single module:__ZN8Security7CssmKeyC4ERK9cssm_data
Security:single module:__ZN8Security9CssmErrorC2El
Security:single module:__ZN8Security9UnixError4makeEi
Security:single module:__ZN8Security9UnixError7throwMeEi
Security:single module:__ZN8Security9UnixErrorC1Ei
Security:single module:__ZN8Security9UnixErrorC1Ev
Security:single module:__ZN8Security9UnixErrorC2Ei
Security:single module:__ZN8Security9UnixErrorC2Ev
Security:single module:__ZN8Security9UnixErrorC4Ei
Security:single module:__ZN8Security9UnixErrorC4Ev
Security:single module:__ZNK8Security10MacOSError4whatEv
Security:single module:__ZNK8Security10MacOSError8osStatusEv
Security:single module:__ZNK8Security10MacOSError9cssmErrorEv
Security:single module:__ZNK8Security15CssmCommonError13debugDiagnoseEPKv
Security:single module:__ZNK8Security15CssmCommonError8osStatusEv
Security:single module:__ZNK8Security15CssmCommonError9unixErrorEv
Security:single module:__ZNK8Security4Guid8toStringEPc
Security:single module:__ZNK8Security8CssmData8toStringEv
Security:single module:__ZNK8Security9CssmError4whatEv
Security:single module:__ZNK8Security9UnixError4whatEv
Security:single module:__ZNK8Security9UnixError8osStatusEv
Security:single module:__ZNK8Security9UnixError9cssmErrorEv
Security:single module:__ZNK8Security9UnixError9unixErrorEv
Security:single module:__ZN8Security11DataWalkers15ChunkFreeWalker4freeEv
Security:single module:__ZN15AttachmentMakerD0Ev
Security:single module:__ZN15AttachmentMakerD1Ev
Security:single module:__ZN15AttachmentMakerD2Ev
Security:single module:__ZN15AttachmentMakerD4Ev
Security:single module:__ZN17AttachmentFactoryC1Ev
Security:single module:__ZN10Attachment12upcallCallocEmmm
Security:single module:__ZN10Attachment16upcallCcToHandleEyPm
Security:single module:__ZN10Attachment19upcallGetModuleInfoEmP9cssm_guidP12cssm_versionPmS4_S4_S4_P17cssm_memory_funcsP19cssm_func_name_addrm
Security:single module:__ZN10AttachmentC1EP6ModuleRK12cssm_versionmmRK17cssm_memory_funcsmm
Security:single module:__ZN10AttachmentD0Ev
Security:single module:__ZN10AttachmentD1Ev
Security:single module:__ZThn12_N10AttachmentD0Ev
Security:single module:__ZThn12_N10AttachmentD1Ev
Security:single module:_CSSM_GetModuleGUIDFromHandle
Security:single module:_CSSM_GetPrivilege
Security:single module:_CSSM_GetSubserviceUIDFromHandle
Security:single module:_CSSM_Introduce
Security:single module:_CSSM_ListAttachedModuleManagers
Security:single module:_CSSM_SetPrivilege
Security:single module:_CSSM_Terminate
Security:single module:_CSSM_Unintroduce
Security:single module:__ZN13HandleContext4lockEv
Security:single module:__ZN13HandleContextD0Ev
Security:single module:__ZN13HandleContextD2Ev
Security:single module:__ZN12MdsComponent3MDSC2Ev
Security:single module:__ZN12MdsComponent3MDSD1Ev
Security:single module:__ZN12MdsComponent3MDSD2Ev
Security:single module:__ZN12MdsComponent3MDSD4Ev
Security:single module:__ZN12MdsComponentD0Ev
Security:single module:__ZN11CssmManager11unIntroduceERKN8Security4GuidE
Security:single module:__ZN11CssmManager9introduceERKN8Security4GuidEm
Security:single module:__ZN11CssmManager9terminateEv
Security:single module:__ZN11CssmManagerC2Ev
Security:single module:__ZN11CssmManagerD0Ev
Security:single module:__ZN11CssmManagerD1Ev
Security:single module:__ZN11CssmManagerD2Ev
Security:single module:__ZN11CssmManagerD4Ev
Security:single module:__ZN6Module13spiEventRelayEPK9cssm_guidPvmmm
Security:single module:__ZN6Module8spiEventEmRKN8Security4GuidEmm
Security:single module:__ZN6ModuleC2EP11CssmManagerRK12MdsComponentPN8Security6PluginE
Security:single module:__ZN6ModuleD1Ev
Security:single module:__ZN6ModuleD2Ev
Security:single module:_cssmAlgToOid
Security:single module:_CSSM_AC_AuthCompute
Security:single module:_CSSM_AC_PassThrough
Security:single module:_CSSM_CL_CertCreateTemplate
Security:single module:_CSSM_CL_CertDescribeFormat
Security:single module:_CSSM_CL_CertGetAllFields
Security:single module:_CSSM_CL_CertGetAllTemplateFields
Security:single module:_CSSM_CL_CertGetFirstFieldValue
Security:single module:_CSSM_CL_CertGetNextFieldValue
Security:single module:_CSSM_CL_CertGroupFromVerifiedBundle
Security:single module:_CSSM_CL_CertGroupToSignedBundle
Security:single module:_CSSM_CL_CertSign
Security:single module:_CSSM_CL_CertVerifyWithKey
Security:single module:_CSSM_CL_CrlAbortCache
Security:single module:_CSSM_CL_CrlAbortQuery
Security:single module:_CSSM_CL_CrlAddCert
Security:single module:_CSSM_CL_CrlCache
Security:single module:_CSSM_CL_CrlCreateTemplate
Security:single module:_CSSM_CL_CrlDescribeFormat
Security:single module:_CSSM_CL_CrlGetAllCachedRecordFields
Security:single module:_CSSM_CL_CrlGetAllFields
Security:single module:_CSSM_CL_CrlGetFirstCachedFieldValue
Security:single module:_CSSM_CL_CrlGetFirstFieldValue
Security:single module:_CSSM_CL_CrlGetNextCachedFieldValue
Security:single module:_CSSM_CL_CrlGetNextFieldValue
Security:single module:_CSSM_CL_CrlRemoveCert
Security:single module:_CSSM_CL_CrlSetFields
Security:single module:_CSSM_CL_CrlSign
Security:single module:_CSSM_CL_CrlVerify
Security:single module:_CSSM_CL_CrlVerifyWithKey
Security:single module:_CSSM_CL_FreeFields
Security:single module:_CSSM_CL_IsCertInCachedCrl
Security:single module:_CSSM_CL_IsCertInCrl
Security:single module:_CSSM_CL_PassThrough
Security:single module:_CSSM_CSP_ChangeLoginAcl
Security:single module:_CSSM_CSP_ChangeLoginOwner
Security:single module:_CSSM_CSP_CreateKeyGenContext
Security:single module:_CSSM_CSP_CreatePassThroughContext
Security:single module:_CSSM_CSP_CreateRandomGenContext
Security:single module:_CSSM_CSP_GetLoginAcl
Security:single module:_CSSM_CSP_GetLoginOwner
Security:single module:_CSSM_CSP_GetOperationalStatistics
Security:single module:_CSSM_CSP_Login
Security:single module:_CSSM_CSP_Logout
Security:single module:_CSSM_CSP_ObtainPrivateKeyFromPublicKey
Security:single module:_CSSM_CSP_PassThrough
Security:single module:_CSSM_ChangeKeyAcl
Security:single module:_CSSM_ChangeKeyOwner
Security:single module:_CSSM_DL_Authenticate
Security:single module:_CSSM_DL_ChangeDbAcl
Security:single module:_CSSM_DL_ChangeDbOwner
Security:single module:_CSSM_DL_CreateRelation
Security:single module:_CSSM_DL_DataDelete
Security:single module:_CSSM_DL_DataInsert
Security:single module:_CSSM_DL_DataModify
Security:single module:_CSSM_DL_DbCreate
Security:single module:_CSSM_DL_DbDelete
Security:single module:_CSSM_DL_DestroyRelation
Security:single module:_CSSM_DL_FreeNameList
Security:single module:_CSSM_DL_GetDbAcl
Security:single module:_CSSM_DL_GetDbNameFromHandle
Security:single module:_CSSM_DL_GetDbNames
Security:single module:_CSSM_DL_GetDbOwner
Security:single module:_CSSM_DL_PassThrough
Security:single module:_CSSM_DecryptDataInitP
Security:single module:_CSSM_DecryptDataP
Security:single module:_CSSM_DeleteContextAttributes
Security:single module:_CSSM_EncryptDataFinal
Security:single module:_CSSM_EncryptDataInitP
Security:single module:_CSSM_EncryptDataP
Security:single module:_CSSM_FreeContext
Security:single module:_CSSM_GenerateAlgorithmParams
Security:single module:_CSSM_GenerateKey
Security:single module:_CSSM_GenerateKeyP
Security:single module:_CSSM_GenerateKeyPair
Security:single module:_CSSM_GenerateKeyPairP
Security:single module:_CSSM_GenerateRandom
Security:single module:_CSSM_GetContext
Security:single module:_CSSM_GetContextAttribute
Security:single module:_CSSM_GetKeyAcl
Security:single module:_CSSM_GetKeyOwner
Security:single module:_CSSM_GetTimeValue
Security:single module:_CSSM_QuerySize
Security:single module:_CSSM_RetrieveCounter
Security:single module:_CSSM_RetrieveUniqueId
Security:single module:_CSSM_SignData
Security:single module:_CSSM_SignDataFinal
Security:single module:_CSSM_SignDataInit
Security:single module:_CSSM_SignDataUpdate
Security:single module:_CSSM_TP_ApplyCrlToDb
Security:single module:_CSSM_TP_CertCreateTemplate
Security:single module:_CSSM_TP_CertGetAllTemplateFields
Security:single module:_CSSM_TP_CertGroupConstruct
Security:single module:_CSSM_TP_CertGroupPrune
Security:single module:_CSSM_TP_CertGroupToTupleGroup
Security:single module:_CSSM_TP_CertReclaimAbort
Security:single module:_CSSM_TP_CertReclaimKey
Security:single module:_CSSM_TP_CertRemoveFromCrlTemplate
Security:single module:_CSSM_TP_CertRevoke
Security:single module:_CSSM_TP_CertSign
Security:single module:_CSSM_TP_ConfirmCredResult
Security:single module:_CSSM_TP_CrlCreateTemplate
Security:single module:_CSSM_TP_CrlSign
Security:single module:_CSSM_TP_CrlVerify
Security:single module:_CSSM_TP_FormRequest
Security:single module:_CSSM_TP_FormSubmit
Security:single module:_CSSM_TP_PassThrough
Security:single module:_CSSM_TP_ReceiveConfirmation
Security:single module:_CSSM_TP_RetrieveCredResult
Security:single module:_CSSM_TP_SubmitCredRequest
Security:single module:_CSSM_TP_TupleGroupToCertGroup
Security:single module:_CSSM_UnwrapKeyP
Security:single module:_CSSM_VerifyDataFinal
Security:single module:_CSSM_VerifyDataInit
Security:single module:_CSSM_VerifyDataUpdate
Security:single module:_CSSM_VerifyDevice
Security:single module:_CSSM_VerifyMacFinal
Security:single module:_CSSM_VerifyMacInit
Security:single module:_CSSM_VerifyMacUpdate
Security:single module:_CSSM_WrapKey
Security:single module:_CSSM_WrapKeyP
Security:single module:__Z14sslKeyToSigAlgPK8cssm_keyRm
Security:single module:__Z18sslAddBlindingAttry
Security:single module:_attachToTp
Security:single module:_sslDhGenKeyPairClient
Security:single module:_sslDhGenerateKeyPair
Security:single module:_sslDhKeyExchange
Security:single module:_sslGetMaxSigSize
Security:single module:_sslGetPubKeyBits
Security:single module:_sslGetPubKeyFromBits
Security:single module:_sslRawSign
Security:single module:_sslRawVerify
Security:single module:_sslRsaDecrypt
Security:single module:_stAppCalloc
Security:single module:_stMallocCssmData
Security:single module:__ZN12SessionCache10deletePrivEPK9SSLBuffer
Security:single module:__ZN12SessionCache10deletePrivESt15_Deque_iteratorIP17SessionCacheEntryRS2_PS2_E
Security:single module:__ZN12SessionCache10lookupPrivEPK9SSLBuffer
Security:single module:__ZN12SessionCache11deleteEntryE9SSLBuffer
Security:single module:__ZN12SessionCache11lookupEntryE9SSLBufferPS0_
Security:single module:__ZN12SessionCache8addEntryE9SSLBufferS0_
Security:single module:__ZN12SessionCacheD1Ev
Security:single module:__ZN12SessionCacheD2Ev
Security:single module:__ZN12SessionCacheD4Ev
Security:single module:__ZN17SessionCacheEntry11sessionDataERK9SSLBuffer
Security:single module:__ZN17SessionCacheEntry7isStaleERKN8Security4Time8AbsoluteE
Security:single module:__ZN17SessionCacheEntry7isStaleEv
Security:single module:__ZN17SessionCacheEntryC1ERK9SSLBufferS2_RKN8Security4Time8AbsoluteE
Security:single module:__ZN17SessionCacheEntryC2ERK9SSLBufferS2_RKN8Security4Time8AbsoluteE
Security:single module:__ZN17SessionCacheEntryC4ERK9SSLBufferS2_RKN8Security4Time8AbsoluteE
Security:single module:__ZN17SessionCacheEntryD1Ev
Security:single module:__ZN17SessionCacheEntryD2Ev
Security:single module:__ZN17SessionCacheEntryD4Ev
Security:single module:__ZNK17SessionCacheEntry8matchKeyERK9SSLBuffer
Security:single module:_sslAddSession
Security:single module:_sslDeleteSession
Security:single module:_sslGetSession
Security:single module:_SSLGetEnabledCiphers
Security:single module:_SSLGetNumberEnabledCiphers
Security:single module:_SSLGetNumberSupportedCiphers
Security:single module:_SSLGetSupportedCiphers
Security:single module:_SSLSetEnabledCiphers
Security:single module:__Z25cipherSpecsToCipherSuitesmPK13SSLCipherSpecPmS2_
Security:single module:__Z12HashNullInitR9SSLBufferP10SSLContext
Security:single module:__Z13HashNullCloneRK9SSLBufferRS_
Security:single module:__Z13HashNullCloseR9SSLBufferP10SSLContext
Security:single module:__Z13HashNullFinalR9SSLBufferS0_
Security:single module:__Z14HashNullUpdateR9SSLBufferRKS_
Security:single module:_SSLEncodeCertificate
Security:single module:_SSLEncodeCertificateRequest
Security:single module:_SSLEncodeCertificateVerify
Security:single module:_SSLProcessCertificateRequest
Security:single module:_SSLProcessCertificateVerify
Security:single module:_SSLEncodeServerHelloDone
Security:single module:_SSLEncodeClientHello
Security:single module:_SSLEncodeServerHello
Security:single module:_SSLProcessClientHello
Security:single module:__Z15SSLEncodeRandomPhP10SSLContext
Security:single module:_SSLEncodeServerKeyExchange
Security:single module:_SSLProcessKeyExchange
Security:single module:_SSLProcessServerKeyExchange
Security:single module:__Z20SSLDecodeDHKeyParamsP10SSLContextRPhm
Security:single module:__Z20SSLEncodeDHKeyParamsP10SSLContextPh
Security:single module:__Z21SSLEncodeRSAKeyParamsP9SSLBufferPP8cssm_keyP10SSLContext
Security:single module:__Z23SSLDecodeRSAKeyExchange9SSLBufferP10SSLContext
Security:single module:__Z26SSLGenServerDHParamsAndKeyP10SSLContext
Security:single module:__Z28SSLDecodeDHClientKeyExchange9SSLBufferP10SSLContext
Security:single module:__Z28SSLEncodeDHClientKeyExchangeR9SSLRecordP10SSLContext
Security:single module:__Z28SSLGenClientDHKeyAndExchangeP10SSLContext
Security:single module:__Z32SSLDecodeDHanonServerKeyExchange9SSLBufferP10SSLContext
Security:single module:__Z32SSLDecodeSignedServerKeyExchange9SSLBufferP10SSLContext
Security:single module:__Z32SSLEncodeDHanonServerKeyExchangeR9SSLRecordP10SSLContext
Security:single module:__Z32SSLEncodeSignedServerKeyExchangeR9SSLRecordP10SSLContext
Security:single module:__ZN14ServerDhParamsC1Ev
Security:single module:__ZN14ServerDhParamsC2Ev
Security:single module:__ZN14ServerDhParamsC4Ev
Security:single module:__ZN14ServerDhParamsD1Ev
Security:single module:__ZN14ServerDhParamsD2Ev
Security:single module:__ZN14ServerDhParamsD4Ev
Security:single module:__ZN14ModuleAttacher10getCspHandEv
Security:single module:__ZN14ModuleAttacher12unloadModuleEmPK9cssm_guid
Security:single module:__ZN14ModuleAttacher9getClHandEv
Security:single module:__ZN14ModuleAttacher9getTpHandEv
Security:single module:__ZN14ModuleAttacherD1Ev
Security:single module:__ZN14ModuleAttacherD2Ev
Security:single module:__ZN14ModuleAttacherD4Ev
Security:single module:__Z10NullFinishP13CipherContextP10SSLContext
Security:single module:__Z8NullInitPhS_P13CipherContextP10SSLContext
Security:single module:_SSL2EncodeClientFinished
Security:single module:_SSL2EncodeClientMasterKey
Security:single module:_SSL2EncodeServerFinished
Security:single module:_SSL2EncodeServerHello
Security:single module:_SSL2EncodeServerVerify
Security:single module:_SSL2ProcessClientFinished
Security:single module:_SSL2ProcessClientHello
Security:single module:_SSL2ProcessClientMasterKey
Security:single module:_SSL2ProcessServerFinished
Security:single module:_SSL2ProcessServerHello
Security:single module:_SSL2ProcessServerVerify
Security:single module:_SSL2CompareSessionIDs
Security:single module:_SSL2GenerateSessionID
Security:single module:_SSL2InitCiphers
Security:single module:_SSL2InstallSessionKey
Security:single module:_SSL2ProcessMessage
Security:single module:_SSL2ReadRecord
Security:single module:_SSL2SendError
Security:single module:__Z13SSL2VerifyMACR9SSLBufferPhP10SSLContext
Security:single module:__Z16SSL2CalculateMACR9SSLBufferS0_mRK13HashReferenceS0_P10SSLContext
Security:single module:__Z17SSL2DecryptRecordR9SSLBufferP10SSLContext
Security:single module:_SSLFatalSessionAlert
Security:single module:_SSLProcessAlert
Security:single module:__Z21SSLDetectCertRejectedP10SSLContext16AlertDescription
Security:single module:_SSLAllocCopyBuffer
Security:single module:_SSLCopyBuffer
Security:single module:_SSLCopyBufferFromData
Security:single module:_sslAllocCopy
Security:single module:_sslDecodeRsaBlob
Security:single module:_sslEncodeRsaBlob
Security:single module:_sslDecodeDhParams
Security:single module:_sslEncodeDhParams
Security:single module:_SSLAddDistinguishedName
Security:single module:_SSLGetAllowsAnyRoot
Security:single module:_SSLGetAllowsExpiredCerts
Security:single module:_SSLGetAllowsExpiredRoots
Security:single module:_SSLGetClientCertificateState
Security:single module:_SSLGetConnection
Security:single module:_SSLGetDiffieHellmanParams
Security:single module:_SSLGetEnableCertVerify
Security:single module:_SSLGetNegotiatedCipher
Security:single module:_SSLGetNegotiatedProtocolVersion
Security:single module:_SSLGetPeerCertificates
Security:single module:_SSLGetPeerDomainName
Security:single module:_SSLGetPeerDomainNameLength
Security:single module:_SSLGetPeerID
Security:single module:_SSLGetPeerSecTrust
Security:single module:_SSLGetProtocolVersion
Security:single module:_SSLGetProtocolVersionEnabled
Security:single module:_SSLGetResumableSessionInfo
Security:single module:_SSLGetRsaBlinding
Security:single module:_SSLGetTrustedRoots
Security:single module:_SSLInternalClientRandom
Security:single module:_SSLInternalMasterSecret
Security:single module:_SSLInternalServerRandom
Security:single module:_SSLSetCertificate
Security:single module:_SSLSetClientSideAuthenticate
Security:single module:_SSLSetDiffieHellmanParams
Security:single module:_SSLSetEncryptionCertificate
Security:single module:_SSLSetPeerID
Security:single module:_SSLSetProtocolVersionEnabled
Security:single module:_SSLSetRsaBlinding
Security:single module:_SSLSetTrustedRoots
Security:single module:__Z19convertProtToExtern18SSLProtocolVersion
Security:single module:_SSL3ReceiveSSL2ClientHello
Security:single module:__Z16secCertToSslCertP10SSLContextP23OpaqueSecCertificateRefPP14SSLCertificate
Security:single module:_parseIncomingCerts
Security:single module:_SSLAddSessionData
Security:single module:_SSLGetSessionData
Security:single module:_SSLDeleteSessionData
Security:single module:_SSLRetrieveSessionID
Security:single module:_SSLRetrieveSessionProtocolVersion
Security:single module:_SSLInstallSessionFromData
Security:single module:_sslTime
Security:single module:_AuthorizationFreeItemSet
Security:single module:_AuthorizationRightGet
Security:single module:_AuthorizationRightRemove
Security:single module:_AuthorizationRightSet
Security:single module:_AuthorizationExecuteWithPrivileges
Security:single module:__Z9argVectorPKcS0_S0_PKPc
Security:single module:_AuthorizationCopyPrivilegedReference
Security:single module:__Z16cssm_PassThroughmmmyPK15cssm_dl_db_listmPKvPPv
Security:single module:__Z16cssm_AuthComputemPK15cssm_tuplegroupS1_mPK9cssm_listS4_S4_PS_
Security:single module:__ZN8Security15ACPluginSession9constructEv
Security:single module:__Z12cssm_CrlSignmyPK9cssm_dataPK10cssm_fieldmPS_
Security:single module:__Z13cssm_CertSignmyPK9cssm_dataPK10cssm_fieldmPS_
Security:single module:__Z13cssm_CrlCachemPK9cssm_dataPm
Security:single module:__Z14cssm_CrlVerifymyPK9cssm_dataS1_PK10cssm_fieldm
Security:single module:__Z15cssm_CrlAddCertmyPK9cssm_datamPK10cssm_fieldS1_PS_
Security:single module:__Z15cssm_FreeFieldsmmPP10cssm_field
Security:single module:__Z16cssm_IsCertInCrlmPK9cssm_dataS1_Pl
Security:single module:__Z16cssm_PassThroughmymPKvPPv
Security:single module:__Z17cssm_CrlSetFieldsmmPK10cssm_fieldPK9cssm_dataPS2_
Security:single module:__Z18cssm_CrlAbortCachemm
Security:single module:__Z18cssm_CrlAbortQuerymm
Security:single module:__Z18cssm_CrlRemoveCertmPK9cssm_dataS1_PS_
Security:single module:__Z20cssm_CrlGetAllFieldsmPK9cssm_dataPmPP10cssm_field
Security:single module:__Z21cssm_CertGetAllFieldsmPK9cssm_dataPmPP10cssm_field
Security:single module:__Z21cssm_CrlVerifyWithKeymyPK9cssm_data
Security:single module:__Z22cssm_CertVerifyWithKeymyPK9cssm_data
Security:single module:__Z22cssm_CrlCreateTemplatemmPK10cssm_fieldP9cssm_data
Security:single module:__Z22cssm_CrlDescribeFormatmPmPP9cssm_data
Security:single module:__Z22cssm_IsCertInCachedCrlmPK9cssm_datamPlPS_
Security:single module:__Z23cssm_CertCreateTemplatemmPK10cssm_fieldP9cssm_data
Security:single module:__Z23cssm_CertDescribeFormatmPmPP9cssm_data
Security:single module:__Z25cssm_CrlGetNextFieldValuemmPP9cssm_data
Security:single module:__Z26cssm_CertGetNextFieldValuemmPP9cssm_data
Security:single module:__Z26cssm_CrlGetFirstFieldValuemPK9cssm_dataS1_PmS2_PPS_
Security:single module:__Z27cssm_CertGetFirstFieldValuemPK9cssm_dataS1_PmS2_PPS_
Security:single module:__Z28cssm_CertGroupToSignedBundlemyPK14cssm_certgroupPK23cssm_cert_bundle_headerP9cssm_data
Security:single module:__Z29cssm_CertGetAllTemplateFieldsmPK9cssm_dataPmPP10cssm_field
Security:single module:__Z31cssm_CrlGetNextCachedFieldValuemmPP9cssm_data
Security:single module:__Z32cssm_CertGroupFromVerifiedBundlemyPK16cssm_cert_bundlePK9cssm_dataPP14cssm_certgroup
Security:single module:__Z32cssm_CrlGetAllCachedRecordFieldsmmPK9cssm_dataPmPP10cssm_field
Security:single module:__Z32cssm_CrlGetFirstCachedFieldValuemmPK9cssm_dataS1_PmS2_PPS_
Security:single module:__Z10cssm_LoginmPK23cssm_access_credentialsPK9cssm_dataPKv
Security:single module:__Z11cssm_Logoutm
Security:single module:__Z12cssm_WrapKeymyPK12cssm_contextPK23cssm_access_credentialsPK8cssm_keyPK9cssm_dataPS5_y
Security:single module:__Z13cssm_SignDatamyPK12cssm_contextPK9cssm_datammPS2_
Security:single module:__Z14cssm_GetKeyAclmPK8cssm_keyPA68_KcPmPP19cssm_acl_entry_info
Security:single module:__Z14cssm_QuerySizemyPK12cssm_contextlmP20cssm_query_size_data
Security:single module:__Z16cssm_GenerateKeymyPK12cssm_contextmmPK9cssm_dataPK29cssm_resource_control_contextP8cssm_keyy
Security:single module:__Z16cssm_GetKeyOwnermPK8cssm_keyP24cssm_acl_owner_prototype
Security:single module:__Z16cssm_GetLoginAclmPA68_KcPmPP19cssm_acl_entry_info
Security:single module:__Z16cssm_PassThroughmyPK12cssm_contextmPKvPPv
Security:single module:__Z17cssm_ChangeKeyAclmPK23cssm_access_credentialsPK13cssm_acl_editPK8cssm_key
Security:single module:__Z17cssm_GetTimeValuemmP9cssm_data
Security:single module:__Z17cssm_SignDataInitmyPK12cssm_context
Security:single module:__Z17cssm_VerifyDevicemPK9cssm_data
Security:single module:__Z18cssm_GetLoginOwnermP24cssm_acl_owner_prototype
Security:single module:__Z18cssm_SignDataFinalmyP9cssm_data
Security:single module:__Z18cssm_VerifyMacInitmyPK12cssm_context
Security:single module:__Z19cssm_ChangeKeyOwnermPK23cssm_access_credentialsPK8cssm_keyPK24cssm_acl_owner_prototype
Security:single module:__Z19cssm_ChangeLoginAclmPK23cssm_access_credentialsPK13cssm_acl_edit
Security:single module:__Z19cssm_GenerateRandommyPK12cssm_contextP9cssm_data
Security:single module:__Z19cssm_SignDataUpdatemyPK9cssm_datam
Security:single module:__Z19cssm_VerifyDataInitmyPK12cssm_context
Security:single module:__Z19cssm_VerifyMacFinalmyPK9cssm_data
Security:single module:__Z20cssm_GenerateKeyPairmyPK12cssm_contextmmPK9cssm_dataP8cssm_keymmS4_PK29cssm_resource_control_contextS6_y
Security:single module:__Z20cssm_RetrieveCountermP9cssm_data
Security:single module:__Z20cssm_VerifyDataFinalmyPK9cssm_data
Security:single module:__Z20cssm_VerifyMacUpdatemyPK9cssm_datam
Security:single module:__Z21cssm_ChangeLoginOwnermPK23cssm_access_credentialsPK24cssm_acl_owner_prototype
Security:single module:__Z21cssm_EncryptDataFinalmyP9cssm_data
Security:single module:__Z21cssm_RetrieveUniqueIdmP9cssm_data
Security:single module:__Z21cssm_VerifyDataUpdatemyPK9cssm_datam
Security:single module:__Z28cssm_GenerateAlgorithmParamsmyPK12cssm_contextmP9cssm_dataPmPP22cssm_context_attribute
Security:single module:__Z29cssm_GetOperationalStatisticsmP31cssm_csp_operational_statistics
Security:single module:__Z34cssm_ObtainPrivateKeyFromPublicKeymPK8cssm_keyPS_
Security:single module:__Z13cssm_DbCreatemPKcPK16cssm_net_addressPK11cssm_dbinfomPK29cssm_resource_control_contextPKvPm
Security:single module:__Z13cssm_DbDeletemPKcPK16cssm_net_addressPK23cssm_access_credentials
Security:single module:__Z13cssm_GetDbAcl17cssm_dl_db_handlePA68_KcPmPP19cssm_acl_entry_info
Security:single module:__Z15cssm_DataDelete17cssm_dl_db_handlePK21cssm_db_unique_record
Security:single module:__Z15cssm_DataInsert17cssm_dl_db_handlemPK29cssm_db_record_attribute_dataPK9cssm_dataPP21cssm_db_unique_record
Security:single module:__Z15cssm_DataModify17cssm_dl_db_handlemP21cssm_db_unique_recordPK29cssm_db_record_attribute_dataPK9cssm_datam
Security:single module:__Z15cssm_GetDbNamesmPP14cssm_name_list
Security:single module:__Z15cssm_GetDbOwner17cssm_dl_db_handleP24cssm_acl_owner_prototype
Security:single module:__Z16cssm_ChangeDbAcl17cssm_dl_db_handlePK23cssm_access_credentialsPK13cssm_acl_edit
Security:single module:__Z16cssm_PassThrough17cssm_dl_db_handlemPKvPPv
Security:single module:__Z17cssm_Authenticate17cssm_dl_db_handlemPK23cssm_access_credentials
Security:single module:__Z17cssm_FreeNameListmP14cssm_name_list
Security:single module:__Z18cssm_ChangeDbOwner17cssm_dl_db_handlePK23cssm_access_credentialsPK24cssm_acl_owner_prototype
Security:single module:__Z19cssm_CreateRelation17cssm_dl_db_handlemPKcmPK29cssm_db_schema_attribute_infomPK25cssm_db_schema_index_info
Security:single module:__Z20cssm_DestroyRelation17cssm_dl_db_handlem
Security:single module:__Z24cssm_GetDbNameFromHandle17cssm_dl_db_handlePPc
Security:single module:__Z12cssm_CrlSignmmyPK16cssm_encoded_crlPK14cssm_certgroupPK22cssm_tp_verify_contextP29cssm_tp_verify_context_resultP9cssm_data
Security:single module:__Z13cssm_CertSignmmyPK9cssm_dataPK14cssm_certgroupPK22cssm_tp_verify_contextP29cssm_tp_verify_context_resultPS_
Security:single module:__Z14cssm_CrlVerifymmmPK16cssm_encoded_crlPK14cssm_certgroupPK22cssm_tp_verify_contextP29cssm_tp_verify_context_result
Security:single module:__Z15cssm_CertRevokemmmPK9cssm_dataPK14cssm_certgroupS4_PK22cssm_tp_verify_contextP29cssm_tp_verify_context_resultmPS_
Security:single module:__Z15cssm_FormSubmitmmPK9cssm_dataPK20cssm_tp_authority_idS4_P23cssm_access_credentials
Security:single module:__Z16cssm_FormRequestmPK20cssm_tp_authority_idmP9cssm_data
Security:single module:__Z16cssm_PassThroughmmyPK15cssm_dl_db_listmPKvPPv
Security:single module:__Z17cssm_ApplyCrlToDbmmmPK16cssm_encoded_crlPK14cssm_certgroupPK22cssm_tp_verify_contextP29cssm_tp_verify_context_result
Security:single module:__Z19cssm_CertGroupPrunemmPK15cssm_dl_db_listPK14cssm_certgroupPPS2_
Security:single module:__Z19cssm_CertReclaimKeymPK14cssm_certgroupmymPK29cssm_resource_control_context
Security:single module:__Z21cssm_CertReclaimAbortmy
Security:single module:__Z22cssm_ConfirmCredResultmPK9cssm_dataPK26cssm_tp_callerauth_contextPK24cssm_tp_confirm_responsePK20cssm_tp_authority_id
Security:single module:__Z22cssm_CrlCreateTemplatemmmPK10cssm_fieldP9cssm_data
Security:single module:__Z22cssm_SubmitCredRequestmPK20cssm_tp_authority_idmPK19cssm_tp_request_setPK26cssm_tp_callerauth_contextPlP9cssm_data
Security:single module:__Z23cssm_CertCreateTemplatemmmPK10cssm_fieldP9cssm_data
Security:single module:__Z23cssm_CertGroupConstructmmmPK15cssm_dl_db_listPKvPK14cssm_certgroupPPS4_
Security:single module:__Z23cssm_RetrieveCredResultmPK9cssm_dataPK26cssm_tp_callerauth_contextPlS5_PP18cssm_tp_result_set
Security:single module:__Z24cssm_ReceiveConfirmationmPK9cssm_dataPP24cssm_tp_confirm_responsePl
Security:single module:__Z26cssm_CertGroupToTupleGroupmmPK14cssm_certgroupPP15cssm_tuplegroup
Security:single module:__Z26cssm_TupleGroupToCertGroupmmPK15cssm_tuplegroupPP14cssm_certgroup
Security:single module:__Z29cssm_CertGetAllTemplateFieldsmmPK9cssm_dataPmPP10cssm_field
Security:single module:__Z30cssm_CertRemoveFromCrlTemplatemmmPK9cssm_dataPK14cssm_certgroupS4_PK22cssm_tp_verify_contextP29cssm_tp_verify_context_resultPS_
Security:single module:__ZN8Security14SecurityServer13ClientSession11contactNameEPKc
Security:single module:__ZN8Security14SecurityServer13ClientSession6GlobalC2Ev
Security:single module:__ZN8Security14SecurityServer13ClientSession9terminateEv
Security:single module:__ZN8Security14SecurityServer13ClientSessionD0Ev
Security:single module:__ZN8Security14SecurityServer13ClientSessionD2Ev
Security:single module:__ZNK8Security14SecurityServer13ClientSession11contactNameEv
Security:single module:__ZN8Security10DataOutputD2Ev
Security:single module:__ZN8Security11SendContextC2ERKNS_7ContextE
Security:single module:__ZN8Security14SecurityServer13ClientSession10getDbOwnerEmRNS_17AclOwnerPrototypeERNS_13CssmAllocatorE
Security:single module:__ZN8Security14SecurityServer13ClientSession11changeDbAclEmRKNS_17AccessCredentialsERKNS_7AclEditE
Security:single module:__ZN8Security14SecurityServer13ClientSession11changeOwnerENS0_7AclKindEmRKNS_17AccessCredentialsERKNS_17AclOwnerPrototypeE
Security:single module:__ZN8Security14SecurityServer13ClientSession11generateKeyEmRKNS_7ContextEmmPKNS_17AccessCredentialsEPKNS_13AclEntryInputERmRNS_7CssmKey6HeaderE
Security:single module:__ZN8Security14SecurityServer13ClientSession11generateKeyEmRKNS_7ContextEmmmmPKNS_17AccessCredentialsEPKNS_13AclEntryInputERmRNS_7CssmKey6HeaderESB_SE_
Security:single module:__ZN8Security14SecurityServer13ClientSession11generateMacERKNS_7ContextEmRKNS_8CssmDataERS5_RNS_13CssmAllocatorE
Security:single module:__ZN8Security14SecurityServer13ClientSession11getKeyOwnerEmRNS_17AclOwnerPrototypeERNS_13CssmAllocatorE
Security:single module:__ZN8Security14SecurityServer13ClientSession12changeKeyAclEmRKNS_17AccessCredentialsERKNS_7AclEditE
Security:single module:__ZN8Security14SecurityServer13ClientSession12getKeyDigestEmRNS_8CssmDataERNS_13CssmAllocatorE
Security:single module:__ZN8Security14SecurityServer13ClientSession13changeDbOwnerEmRKNS_17AccessCredentialsERKNS_17AclOwnerPrototypeE
Security:single module:__ZN8Security14SecurityServer13ClientSession13getOutputSizeERKNS_7ContextEmmb
Security:single module:__ZN8Security14SecurityServer13ClientSession14authenticateDbEmmPKNS_17AccessCredentialsE
Security:single module:__ZN8Security14SecurityServer13ClientSession14changeKeyOwnerEmRKNS_17AccessCredentialsERKNS_17AclOwnerPrototypeE
Security:single module:__ZN8Security14SecurityServer13ClientSession14generateRandomERNS_8CssmDataE
Security:single module:__ZN8Security14SecurityServer13ClientSession15getDbParametersEmRNS0_12DBParametersE
Security:single module:__ZN8Security14SecurityServer13ClientSession15setDbParametersEmRKNS0_12DBParametersE
Security:single module:__ZN8Security14SecurityServer13ClientSession15verifySignatureERKNS_7ContextEmRKNS_8CssmDataES7_m
Security:single module:__ZN8Security14SecurityServer13ClientSession16changePassphraseEmPKNS_17AccessCredentialsE
Security:single module:__ZN8Security14SecurityServer13ClientSession16extractMasterKeyEmRKNS_7ContextEmmmPKNS_17AccessCredentialsEPKNS_13AclEntryInputERmRNS_7CssmKey6HeaderERNS_13CssmAllocatorE
Security:single module:__ZN8Security14SecurityServer13ClientSession16stopNotificationENS_12MachPlusPlus4PortE
Security:single module:__ZN8Security14SecurityServer13ClientSession17generateSignatureERKNS_7ContextEmRKNS_8CssmDataERS5_RNS_13CssmAllocatorEm
Security:single module:__ZN8Security14SecurityServer13ClientSession18authorizationdbGetEPKcRNS_8CssmDataERNS_13CssmAllocatorE
Security:single module:__ZN8Security14SecurityServer13ClientSession18authorizationdbSetERKNS0_17AuthorizationBlobEPKcjPKv
Security:single module:__ZN8Security14SecurityServer13ClientSession18queryKeySizeInBitsEm
Security:single module:__ZN8Security14SecurityServer13ClientSession19getDbSuggestedIndexEmRNS_8CssmDataERNS_13CssmAllocatorE
Security:single module:__ZN8Security14SecurityServer13ClientSession19requestNotificationENS_12MachPlusPlus4PortEmm
Security:single module:__ZN8Security14SecurityServer13ClientSession20dispatchNotificationEPK17mach_msg_header_tPFlmmPKvmPvES7_
Security:single module:__ZN8Security14SecurityServer13ClientSession21authorizationdbRemoveERKNS0_17AuthorizationBlobEPKc
Security:single module:__ZN8Security14SecurityServer13ClientSession21removeCodeEquivalenceERKNS_8CssmDataEPKcb
Security:single module:__ZN8Security14SecurityServer13ClientSession22setAlternateSystemRootEPKc
Security:single module:__ZN8Security14SecurityServer13ClientSession4lockEm
Security:single module:__ZN8Security14SecurityServer13ClientSession6getAclENS0_7AclKindEmPKcRmRPNS_12AclEntryInfoERNS_13CssmAllocatorE
Security:single module:__ZN8Security14SecurityServer13ClientSession6unlockEm
Security:single module:__ZN8Security14SecurityServer13ClientSession6unlockEmRKNS_8CssmDataE
Security:single module:__ZN8Security14SecurityServer13ClientSession7encryptERKNS_7ContextEmRKNS_8CssmDataERS5_RNS_13CssmAllocatorE
Security:single module:__ZN8Security14SecurityServer13ClientSession7lockAllEb
Security:single module:__ZN8Security14SecurityServer13ClientSession7wrapKeyERKNS_7ContextEmmPKNS_17AccessCredentialsEPKNS_8CssmDataERNS_7CssmKeyERNS_13CssmAllocatorE
Security:single module:__ZN8Security14SecurityServer13ClientSession8createDbERKNS_14DLDbIdentifierEPKNS_17AccessCredentialsEPKNS_13AclEntryInputERKNS0_12DBParametersE
Security:single module:__ZN8Security14SecurityServer13ClientSession8encodeDbEmRNS_8CssmDataERNS_13CssmAllocatorE
Security:single module:__ZN8Security14SecurityServer13ClientSession8getDbAclEmPKcRmRPNS_12AclEntryInfoERNS_13CssmAllocatorE
Security:single module:__ZN8Security14SecurityServer13ClientSession8getOwnerENS0_7AclKindEmRNS_17AclOwnerPrototypeERNS_13CssmAllocatorE
Security:single module:__ZN8Security14SecurityServer13ClientSession8isLockedEm
Security:single module:__ZN8Security14SecurityServer13ClientSession9changeAclENS0_7AclKindEmRKNS_17AccessCredentialsERKNS_7AclEditE
Security:single module:__ZN8Security14SecurityServer13ClientSession9deriveKeyEmRKNS_7ContextEmmmRNS_8CssmDataEPKNS_17AccessCredentialsEPKNS_13AclEntryInputERmRNS_7CssmKey6HeaderERNS_13CssmAllocatorE
Security:single module:__ZN8Security14SecurityServer13ClientSession9encodeKeyEmRNS_8CssmDataEPNS0_6KeyUIDERNS_13CssmAllocatorE
Security:single module:__ZN8Security14SecurityServer13ClientSession9getKeyAclEmPKcRmRPNS_12AclEntryInfoERNS_13CssmAllocatorE
Security:single module:__ZN8Security14SecurityServer13ClientSession9unwrapKeyEmRKNS_7ContextEmmRKNS_7CssmKeyEmmPKNS_17AccessCredentialsEPKNS_13AclEntryInputERNS_8CssmDataERmRNS5_6HeaderERNS_13CssmAllocatorE
Security:single module:__ZN8Security14SecurityServer13ClientSession9verifyMacERKNS_7ContextEmRKNS_8CssmDataES7_
Security:single module:__ZN8Security25DatabaseAccessCredentials12mapKeySampleERmRNS_7CssmKeyE
Security:single module:__ZN8Security25DatabaseAccessCredentialsC2EPKNS_17AccessCredentialsERNS_13CssmAllocatorE
Security:single module:__ZN8Security9chunkCopyERNS_8CssmListERNS_13CssmAllocatorE
Security:single module:__ZN8Security13NameValuePairC1ERKNS_8CssmDataE
Security:single module:__ZN8Security13NameValuePairC2ERKNS_8CssmDataE
Security:single module:__ZN8Security13NameValuePairC2EmRKNS_8CssmDataE
Security:single module:__ZN8Security13NameValuePairC4ERKNS_8CssmDataE
Security:single module:__ZN8Security13NameValuePairD2Ev
Security:single module:__ZN8Security19NameValueDictionary12RemoveByNameEm
Security:single module:__ZN8Security19NameValueDictionary41MakeDLDbIdentifierFromNameValueDictionaryERKS0_
Security:single module:__ZN8Security19NameValueDictionaryC1ERKNS_8CssmDataE
Security:single module:__ZN8Security19NameValueDictionaryC2ERKNS_8CssmDataE
Security:single module:__ZN8Security19NameValueDictionaryC2Ev
Security:single module:__ZN8Security19NameValueDictionaryC4ERKNS_8CssmDataE
Security:single module:__ZN8Security19NameValueDictionaryD2Ev
Security:single module:__ZNK8Security19NameValueDictionary10FindByNameEm
Security:single module:__ZNK8Security19NameValueDictionary18FindPositionByNameEm
Security:single module:__ZN8Security14SecurityServer13EventListenerC2ERNS_13CssmAllocatorES3_
Security:single module:__ZN8Security14SecurityServer13EventListenerC1ERNS_13CssmAllocatorES3_
Security:single module:__ZN8Security14SecurityServer13EventListenerC4ERNS_13CssmAllocatorES3_
Security:single module:__ZN8Security14SecurityServer13EventListenerD2Ev
Security:single module:__ZN8Security14SecurityServer13EventListenerD1Ev
Security:single module:__ZN8Security14SecurityServer13EventListenerD0Ev
Security:single module:__ZN8Security14SecurityServer13EventListenerD4Ev
Security:single module:__ZN8Security14SecurityServer13EventListener8CallbackEP12__CFMachPortPvlS4_
Security:single module:__ZN8Security14SecurityServer13EventListener10InitializeEv
Security:single module:__ZN8Security14SecurityServer13EventListener14HandleCallbackEP12__CFMachPortPvl
Security:single module:__ZN8Security14SecurityServer13EventListener14ProcessMessageEmmPKvmPv
Security:single module:__ZN8Security14SecurityServer13EventListener13RequestEventsEmm
Security:single module:__ZN8Security14SecurityServer13EventListener13EventReceivedEmmPKvm
Security:single module:__Z28__MIG_check__Reply__getAcl_tP17__Reply__getAcl_t
Security:single module:__Z28__MIG_check__Reply__lockDb_tP17__Reply__lockDb_t
Security:single module:__Z29__MIG_check__Reply__encrypt_tP18__Reply__encrypt_t
Security:single module:__Z29__MIG_check__Reply__lockAll_tP18__Reply__lockAll_t
Security:single module:__Z29__MIG_check__Reply__wrapKey_tP18__Reply__wrapKey_t
Security:single module:__Z30__MIG_check__Reply__createDb_tP19__Reply__createDb_t
Security:single module:__Z30__MIG_check__Reply__encodeDb_tP19__Reply__encodeDb_t
Security:single module:__Z30__MIG_check__Reply__getOwner_tP19__Reply__getOwner_t
Security:single module:__Z30__MIG_check__Reply__isLocked_tP19__Reply__isLocked_t
Security:single module:__Z30__MIG_check__Reply__setOwner_tP19__Reply__setOwner_t
Security:single module:__Z30__MIG_check__Reply__teardown_tP19__Reply__teardown_t
Security:single module:__Z30__MIG_check__Reply__unlockDb_tP19__Reply__unlockDb_t
Security:single module:__Z31__MIG_check__Reply__changeAcl_tP20__Reply__changeAcl_t
Security:single module:__Z31__MIG_check__Reply__deriveKey_tP20__Reply__deriveKey_t
Security:single module:__Z31__MIG_check__Reply__encodeKey_tP20__Reply__encodeKey_t
Security:single module:__Z31__MIG_check__Reply__unwrapKey_tP20__Reply__unwrapKey_t
Security:single module:__Z31__MIG_check__Reply__verifyMac_tP20__Reply__verifyMac_t
Security:single module:__Z32__MIG_check__Reply__getDbIndex_tP21__Reply__getDbIndex_t
Security:single module:__Z33__MIG_check__Reply__generateKey_tP22__Reply__generateKey_t
Security:single module:__Z33__MIG_check__Reply__generateMac_tP22__Reply__generateMac_t
Security:single module:__Z34__MIG_check__Reply__getKeyDigest_tP23__Reply__getKeyDigest_t
Security:single module:__Z35__MIG_check__Reply__getOutputSize_tP24__Reply__getOutputSize_t
Security:single module:__Z36__MIG_check__Reply__authenticateDb_tP25__Reply__authenticateDb_t
Security:single module:__Z36__MIG_check__Reply__generateRandom_tP25__Reply__generateRandom_t
Security:single module:__Z37__MIG_check__Reply__generateKeyPair_tP26__Reply__generateKeyPair_t
Security:single module:__Z37__MIG_check__Reply__getDbParameters_tP26__Reply__getDbParameters_t
Security:single module:__Z37__MIG_check__Reply__setDbParameters_tP26__Reply__setDbParameters_t
Security:single module:__Z37__MIG_check__Reply__verifySignature_tP26__Reply__verifySignature_t
Security:single module:__Z38__MIG_check__Reply__changePassphrase_tP27__Reply__changePassphrase_t
Security:single module:__Z38__MIG_check__Reply__extractMasterKey_tP27__Reply__extractMasterKey_t
Security:single module:__Z38__MIG_check__Reply__stopNotification_tP27__Reply__stopNotification_t
Security:single module:__Z39__MIG_check__Reply__generateSignature_tP28__Reply__generateSignature_t
Security:single module:__Z40__MIG_check__Reply__authorizationdbGet_tP29__Reply__authorizationdbGet_t
Security:single module:__Z40__MIG_check__Reply__authorizationdbSet_tP29__Reply__authorizationdbSet_t
Security:single module:__Z40__MIG_check__Reply__queryKeySizeInBits_tP29__Reply__queryKeySizeInBits_t
Security:single module:__Z41__MIG_check__Reply__requestNotification_tP30__Reply__requestNotification_t
Security:single module:__Z43__MIG_check__Reply__authorizationdbRemove_tP32__Reply__authorizationdbRemove_t
Security:single module:__Z43__MIG_check__Reply__removeCodeEquivalence_tP32__Reply__removeCodeEquivalence_t
Security:single module:__Z44__MIG_check__Reply__setAlternateSystemRoot_tP33__Reply__setAlternateSystemRoot_t
Security:single module:__Z44__MIG_check__Reply__unlockDbWithPassphrase_tP33__Reply__unlockDbWithPassphrase_t
Security:single module:_ucsp_client_authenticateDb
Security:single module:_ucsp_client_authorizationdbGet
Security:single module:_ucsp_client_authorizationdbRemove
Security:single module:_ucsp_client_authorizationdbSet
Security:single module:_ucsp_client_changeAcl
Security:single module:_ucsp_client_changePassphrase
Security:single module:_ucsp_client_createDb
Security:single module:_ucsp_client_deriveKey
Security:single module:_ucsp_client_encodeDb
Security:single module:_ucsp_client_encodeKey
Security:single module:_ucsp_client_encrypt
Security:single module:_ucsp_client_extractMasterKey
Security:single module:_ucsp_client_generateKey
Security:single module:_ucsp_client_generateKeyPair
Security:single module:_ucsp_client_generateMac
Security:single module:_ucsp_client_generateRandom
Security:single module:_ucsp_client_generateSignature
Security:single module:_ucsp_client_getAcl
Security:single module:_ucsp_client_getDbIndex
Security:single module:_ucsp_client_getDbParameters
Security:single module:_ucsp_client_getKeyDigest
Security:single module:_ucsp_client_getOutputSize
Security:single module:_ucsp_client_getOwner
Security:single module:_ucsp_client_isLocked
Security:single module:_ucsp_client_lockAll
Security:single module:_ucsp_client_lockDb
Security:single module:_ucsp_client_queryKeySizeInBits
Security:single module:_ucsp_client_removeCodeEquivalence
Security:single module:_ucsp_client_requestNotification
Security:single module:_ucsp_client_setAlternateSystemRoot
Security:single module:_ucsp_client_setDbParameters
Security:single module:_ucsp_client_setOwner
Security:single module:_ucsp_client_stopNotification
Security:single module:_ucsp_client_teardown
Security:single module:_ucsp_client_unlockDb
Security:single module:_ucsp_client_unlockDbWithPassphrase
Security:single module:_ucsp_client_unwrapKey
Security:single module:_ucsp_client_verifyMac
Security:single module:_ucsp_client_verifySignature
Security:single module:_ucsp_client_wrapKey
Security:single module:__ZN8Security12KeychainCore12CallbackInfoC2Ev
Security:single module:__ZN8Security12KeychainCore12CallbackInfoC1Ev
Security:single module:__ZN8Security12KeychainCore12CallbackInfoC4Ev
Security:single module:__ZN8Security12KeychainCore12CallbackInfoC2EPFlmP23SecKeychainCallbackInfoPvEmS4_
Security:single module:__ZN8Security12KeychainCore12CallbackInfoC1EPFlmP23SecKeychainCallbackInfoPvEmS4_
Security:single module:__ZN8Security12KeychainCore12CallbackInfoC4EPFlmP23SecKeychainCallbackInfoPvEmS4_
Security:single module:__ZN8Security12KeychainCore12CallbackInfoD2Ev
Security:single module:__ZN8Security12KeychainCore12CallbackInfoD1Ev
Security:single module:__ZN8Security12KeychainCore12CallbackInfoD4Ev
Security:single module:__ZNK8Security12KeychainCore12CallbackInfoeqERKS1_
Security:single module:__ZNK8Security12KeychainCore12CallbackInfoneERKS1_
Security:single module:__ZN8Security12KeychainCore12CCallbackMgrC2Ev
Security:single module:__ZN8Security12KeychainCore12CCallbackMgrC1Ev
Security:single module:__ZN8Security12KeychainCore12CCallbackMgrC4Ev
Security:single module:__ZN8Security12KeychainCore12CCallbackMgrD2Ev
Security:single module:__ZN8Security12KeychainCore12CCallbackMgrD1Ev
Security:single module:__ZN8Security12KeychainCore12CCallbackMgrD0Ev
Security:single module:__ZN8Security12KeychainCore12CCallbackMgrD4Ev
Security:single module:__ZN8Security12KeychainCore12CCallbackMgr8InstanceEv
Security:single module:__ZN8Security12KeychainCore12CCallbackMgr11AddCallbackEPFlmP23SecKeychainCallbackInfoPvEmS4_
Security:single module:__ZN8Security12KeychainCore12CCallbackMgr14RemoveCallbackEPFlmP23SecKeychainCallbackInfoPvE
Security:single module:__ZN8Security12KeychainCore12CCallbackMgr12AlertClientsEmiRKNS0_8KeychainERKNS0_4ItemE
Security:single module:__ZN8Security12KeychainCore12CCallbackMgr5EventEmmRNS_19NameValueDictionaryE
Security:single module:__ZN8Security17CSSMDateTimeUtils25GetCurrentMacLongDateTimeERx
Security:single module:__ZN8Security17CSSMDateTimeUtils22TimeStringToMacSecondsERK9cssm_dataRm
Security:single module:__ZN8Security17CSSMDateTimeUtils27TimeStringToMacLongDateTimeERK9cssm_dataRx
Security:single module:__ZN8Security17CSSMDateTimeUtils22MacSecondsToTimeStringEmmPv
Security:single module:__ZN8Security17CSSMDateTimeUtils27MacLongDateTimeToTimeStringERKxmPv
Security:single module:__ZN8Security14DLDbListCFPref10searchListERKSt6vectorINS_14DLDbIdentifierESaIS2_EE
Security:single module:__ZN8Security14DLDbListCFPref11clearPWInfoEv
Security:single module:__ZN8Security14DLDbListCFPref14StripPathStuffERKSs
Security:single module:__ZN8Security14DLDbListCFPref15AbbreviatedPathERKSs
Security:single module:__ZN8Security14DLDbListCFPref17resetCachedValuesEv
Security:single module:__ZN8Security14DLDbListCFPref17writePropertyListEv
Security:single module:__ZN8Security14DLDbListCFPref19LoginDLDbIdentifierEv
Security:single module:__ZN8Security14DLDbListCFPref19loginDLDbIdentifierERKNS_14DLDbIdentifierE
Security:single module:__ZN8Security14DLDbListCFPref21defaultDLDbIdentifierERKNS_14DLDbIdentifierE
Security:single module:__ZN8Security14DLDbListCFPref31dlDbIdentifierToCFDictionaryRefERKNS_14DLDbIdentifierE
Security:single module:__ZN8Security14DLDbListCFPref3addERKNS_14DLDbIdentifierE
Security:single module:__ZN8Security14DLDbListCFPref3setE20SecPreferencesDomain
Security:single module:__ZN8Security14DLDbListCFPref4saveEv
Security:single module:__ZN8Security14DLDbListCFPref6removeERKNS_14DLDbIdentifierE
Security:single module:__ZN8Security14DLDbListCFPrefC2E20SecPreferencesDomain
Security:single module:__ZN8Security14DLDbListCFPrefD1Ev
Security:single module:__ZN8Security14DLDbListCFPrefD2Ev
Security:single module:__ZN8Security14DLDbListCFPrefD4Ev
Security:single module:__ZN8Security16PasswordDBLookupC2Ev
Security:single module:__ZN8Security12KeychainCore7GlobalsC2Ev
Security:single module:__ZN8Security12KeychainCore4ItemC1ERKNS0_8KeychainERKNS0_10PrimaryKeyE
Security:single module:__ZN8Security12KeychainCore4ItemC1ERNS0_8ItemImplE
Security:single module:__ZN8Security12KeychainCore4ItemC1EmP24SecKeychainAttributeListmPKv
Security:single module:__ZN8Security12KeychainCore4ItemC1EmmmPKv
Security:single module:__ZN8Security12KeychainCore4ItemC2EPNS0_8ItemImplE
Security:single module:__ZN8Security12KeychainCore4ItemC2ERKNS0_8KeychainERKNS0_10PrimaryKeyE
Security:single module:__ZN8Security12KeychainCore4ItemC2ERKNS0_8KeychainERKNS0_10PrimaryKeyERKNS_10CssmClient14DbUniqueRecordE
Security:single module:__ZN8Security12KeychainCore4ItemC2ERNS0_8ItemImplE
Security:single module:__ZN8Security12KeychainCore4ItemC2EmP24SecKeychainAttributeListmPKv
Security:single module:__ZN8Security12KeychainCore4ItemC2EmmmPKv
Security:single module:__ZN8Security12KeychainCore4ItemC2Ev
Security:single module:__ZN8Security12KeychainCore4ItemC4ERKNS0_8KeychainERKNS0_10PrimaryKeyE
Security:single module:__ZN8Security12KeychainCore4ItemC4ERNS0_8ItemImplE
Security:single module:__ZN8Security12KeychainCore4ItemC4EmP24SecKeychainAttributeListmPKv
Security:single module:__ZN8Security12KeychainCore4ItemC4EmmmPKv
Security:single module:__ZN8Security12KeychainCore8ItemImpl12getAttributeER20SecKeychainAttributePm
Security:single module:__ZN8Security12KeychainCore8ItemImpl12setAttributeER20SecKeychainAttribute
Security:single module:__ZN8Security12KeychainCore8ItemImpl12setAttributeERKNS_19CssmDbAttributeInfoERKNS_12CssmPolyDataE
Security:single module:__ZN8Security12KeychainCore8ItemImpl13modifyContentEPK24SecKeychainAttributeListmPKv
Security:single module:__ZN8Security12KeychainCore8ItemImpl15getLocalContentER24SecKeychainAttributeList
Security:single module:__ZN8Security12KeychainCore8ItemImpl16getAttributeFromEPNS_19CssmDbAttributeDataER20SecKeychainAttributePm
Security:single module:__ZN8Security12KeychainCore8ItemImpl20getAttributesAndDataEP24SecKeychainAttributeInfoPmPP24SecKeychainAttributeListS4_PPv
Security:single module:__ZN8Security12KeychainCore8ItemImpl21defaultAttributeValueERK22cssm_db_attribute_info
Security:single module:__ZN8Security12KeychainCore8ItemImpl21freeAttributesAndDataEP24SecKeychainAttributeListPv
Security:single module:__ZN8Security12KeychainCore8ItemImpl23modifyAttributesAndDataEPK24SecKeychainAttributeListmPKv
Security:single module:__ZN8Security12KeychainCore8ItemImpl3addERNS0_8KeychainE
Security:single module:__ZN8Security12KeychainCore8ItemImpl5groupEv
Security:single module:__ZN8Security12KeychainCore8ItemImpl6copyToERKNS0_8KeychainEPNS0_6AccessE
Security:single module:__ZN8Security12KeychainCore8ItemImpl6updateEv
Security:single module:__ZN8Security12KeychainCore8ItemImpl7getDataERNS_17CssmDataContainerE
Security:single module:__ZN8Security12KeychainCore8ItemImpl7setDataEmPKv
Security:single module:__ZN8Security12KeychainCore8ItemImpl8getClassER20SecKeychainAttributePm
Security:single module:__ZN8Security12KeychainCore8ItemImpl9didModifyEv
Security:single module:__ZN8Security12KeychainCore8ItemImpl9setAccessEPNS0_6AccessE
Security:single module:__ZN8Security12KeychainCore8ItemImplC1ERKNS0_8KeychainERKNS0_10PrimaryKeyE
Security:single module:__ZN8Security12KeychainCore8ItemImplC1ERS1_
Security:single module:__ZN8Security12KeychainCore8ItemImplC1EmP24SecKeychainAttributeListmPKv
Security:single module:__ZN8Security12KeychainCore8ItemImplC1EmmmPKv
Security:single module:__ZN8Security12KeychainCore8ItemImplC2ERKNS0_8KeychainERKNS0_10PrimaryKeyE
Security:single module:__ZN8Security12KeychainCore8ItemImplC2ERKNS0_8KeychainERKNS0_10PrimaryKeyERKNS_10CssmClient14DbUniqueRecordE
Security:single module:__ZN8Security12KeychainCore8ItemImplC2ERS1_
Security:single module:__ZN8Security12KeychainCore8ItemImplC2EmmmPKv
Security:single module:__ZN8Security12KeychainCore8ItemImplC4ERKNS0_8KeychainERKNS0_10PrimaryKeyE
Security:single module:__ZN8Security12KeychainCore8ItemImplC4ERS1_
Security:single module:__ZN8Security12KeychainCore8ItemImplC4EmmmPKv
Security:single module:__ZN8Security12KeychainCore8ItemImplD0Ev
Security:single module:__ZNK8Security12KeychainCore8ItemImpl10isModifiedEv
Security:single module:__ZNK8Security12KeychainCore8ItemImpl12modifiedDataEv
Security:single module:__ZNK8Security12KeychainCore8ItemImpl18modifiedAttributesEv
Security:single module:__ZNK8Security12KeychainCore8ItemImpl8keychainEv
Security:single module:__ZNK8Security12KeychainCore8ItemImplltERKS1_
Security:single module:__ZN8Security12KeychainCore12KCCursorImplC1ERKSt6vectorINS0_8KeychainESaIS3_EEPK24SecKeychainAttributeList
Security:single module:__ZN8Security12KeychainCore12KCCursorImplC2ERKSt6vectorINS0_8KeychainESaIS3_EEPK24SecKeychainAttributeList
Security:single module:__ZN8Security12KeychainCore12KCCursorImplC2ERKSt6vectorINS0_8KeychainESaIS3_EEmPK24SecKeychainAttributeList
Security:single module:__ZN8Security12KeychainCore12KCCursorImplC4ERKSt6vectorINS0_8KeychainESaIS3_EEPK24SecKeychainAttributeList
Security:single module:__ZN8Security12KeychainCore12KCCursorImplD0Ev
Security:single module:__ZN8Security12KeychainCore12KCCursorImplD2Ev
Security:single module:__ZN8Security8Observer13EventReceivedEmmPKvm
Security:single module:__ZN8Security8ObserverC2Emm
Security:single module:__ZN8Security8ObserverC1Emm
Security:single module:__ZN8Security8ObserverC4Emm
Security:single module:__ZN8Security8ObserverD2Ev
Security:single module:__ZN8Security8ObserverD1Ev
Security:single module:__ZN8Security8ObserverD0Ev
Security:single module:__ZN8Security8ObserverD4Ev
Security:single module:__ZN8Security25GetKeychainErrFromCSSMErrEl
Security:single module:__ZN8Security13StKCAttributeC2EP20SecKeychainAttribute
Security:single module:__ZN8Security13StKCAttributeC1EP20SecKeychainAttribute
Security:single module:__ZN8Security13StKCAttributeC4EP20SecKeychainAttribute
Security:single module:__ZN8Security13StKCAttributeD2Ev
Security:single module:__ZN8Security13StKCAttributeD1Ev
Security:single module:__ZN8Security13StKCAttributeD0Ev
Security:single module:__ZN8Security13StKCAttributeD4Ev
Security:single module:__ZN8Security8StKCItemC2EPP24OpaqueSecKeychainItemRefPl
Security:single module:__ZN8Security8StKCItemC1EPP24OpaqueSecKeychainItemRefPl
Security:single module:__ZN8Security8StKCItemC4EPP24OpaqueSecKeychainItemRefPl
Security:single module:__ZN8Security8StKCItemD2Ev
Security:single module:__ZN8Security8StKCItemD1Ev
Security:single module:__ZN8Security8StKCItemD0Ev
Security:single module:__ZN8Security8StKCItemD4Ev
Security:single module:__ZN8Security12KeychainCore12KeychainImpl10deleteItemERNS0_4ItemE
Security:single module:__ZN8Security12KeychainCore12KeychainImpl11getSettingsERmRb
Security:single module:__ZN8Security12KeychainCore12KeychainImpl11setSettingsEmb
Security:single module:__ZN8Security12KeychainCore12KeychainImpl12authenticateEPK23cssm_access_credentials
Security:single module:__ZN8Security12KeychainCore12KeychainImpl12createCursorEPK24SecKeychainAttributeList
Security:single module:__ZN8Security12KeychainCore12KeychainImpl12createCursorEmPK24SecKeychainAttributeList
Security:single module:__ZN8Security12KeychainCore12KeychainImpl13didDeleteItemEPKNS0_8ItemImplE
Security:single module:__ZN8Security12KeychainCore12KeychainImpl16attributeInfoForEmm
Security:single module:__ZN8Security12KeychainCore12KeychainImpl16changePassphraseEPKhS3_
Security:single module:__ZN8Security12KeychainCore12KeychainImpl16changePassphraseEmPKvmS3_
Security:single module:__ZN8Security12KeychainCore12KeychainImpl17freeAttributeInfoEP24SecKeychainAttributeInfo
Security:single module:__ZN8Security12KeychainCore12KeychainImpl25getAttributeInfoForItemIDEmPP24SecKeychainAttributeInfo
Security:single module:__ZN8Security12KeychainCore12KeychainImpl3addERNS0_4ItemE
Security:single module:__ZN8Security12KeychainCore12KeychainImpl3cspEv
Security:single module:__ZN8Security12KeychainCore12KeychainImpl4itemERKNS0_10PrimaryKeyE
Security:single module:__ZN8Security12KeychainCore12KeychainImpl4lockEv
Security:single module:__ZN8Security12KeychainCore12KeychainImpl4openEv
Security:single module:__ZN8Security12KeychainCore12KeychainImpl6createEPKNS_22ResourceControlContextE
Security:single module:__ZN8Security12KeychainCore12KeychainImpl6createEPKh
Security:single module:__ZN8Security12KeychainCore12KeychainImpl6createEmPKv
Security:single module:__ZN8Security12KeychainCore12KeychainImpl6createEv
Security:single module:__ZN8Security12KeychainCore12KeychainImpl6existsEv
Security:single module:__ZN8Security12KeychainCore12KeychainImpl6unlockEPKh
Security:single module:__ZN8Security12KeychainCore12KeychainImpl6unlockERKNS_8CssmDataE
Security:single module:__ZN8Security12KeychainCore12KeychainImpl6unlockEv
Security:single module:__ZN8Security12KeychainCore12KeychainImpl9didUpdateEPNS0_8ItemImplERNS0_10PrimaryKeyES5_
Security:single module:__ZN8Security12KeychainCore12KeychainImplC2ERKNS_10CssmClient2DbE
Security:single module:__ZN8Security12KeychainCore12KeychainImplD0Ev
Security:single module:__ZN8Security12KeychainCore12KeychainImplD2Ev
Security:single module:__ZN8Security12KeychainCore18KeychainSchemaImplC2ERKNS_10CssmClient2DbE
Security:single module:__ZN8Security12KeychainCore18KeychainSchemaImplD2Ev
Security:single module:__ZN8Security12KeychainCore8Keychain8optionalEP20OpaqueSecKeychainRef
Security:single module:__ZNK8Security12KeychainCore12KeychainImpl6statusEv
Security:single module:__ZNK8Security12KeychainCore12KeychainImpl8isActiveEv
Security:single module:__ZNK8Security12KeychainCore12KeychainImpleqERKS1_
Security:single module:__ZNK8Security12KeychainCore18KeychainSchemaImpl12hasAttributeEmm
Security:single module:__ZNK8Security12KeychainCore18KeychainSchemaImpl16attributeInfoForEmm
Security:single module:__ZNK8Security12KeychainCore18KeychainSchemaImpl18attributeFormatForEmm
Security:single module:__ZNK8Security12KeychainCore18KeychainSchemaImpl18relationInfoMapForEm
Security:single module:__ZNK8Security12KeychainCore18KeychainSchemaImpl29getAttributeInfoForRecordTypeEmPP24SecKeychainAttributeInfo
Security:single module:__ZNK8Security12KeychainCore18KeychainSchemaImpleqERKS1_
Security:single module:__ZNK8Security12KeychainCore18KeychainSchemaImplltERKS1_
Security:single module:__ZN8Security12KeychainCore14PrimaryKeyImpl12createCursorERKNS0_8KeychainE
Security:single module:__ZN8Security12KeychainCore14PrimaryKeyImplC2ERK9cssm_data
Security:single module:__ZN8Security12KeychainCore14PrimaryKeyImplC2ERKNS_10CssmClient12DbAttributesE
Security:single module:_SecKeychainCopySearchNextItem
Security:single module:_SecKeychainRelease
Security:single module:_SecKeychainSearchRelease
Security:single module:__ZN8Security12KeychainCore14StorageManager11convertListERSt6vectorINS0_8KeychainESaIS3_EERKS2_INS_14DLDbIdentifierESaIS7_EE
Security:single module:__ZN8Security12KeychainCore14StorageManager11convertListERSt6vectorINS_14DLDbIdentifierESaIS3_EERKS2_INS0_8KeychainESaIS7_EE
Security:single module:__ZN8Security12KeychainCore14StorageManager12createCursorEPK24SecKeychainAttributeList
Security:single module:__ZN8Security12KeychainCore14StorageManager12makeKeychainERKNS_14DLDbIdentifierEb
Security:single module:__ZN8Security12KeychainCore14StorageManager12renameUniqueENS0_8KeychainEPK10__CFString
Security:single module:__ZN8Security12KeychainCore14StorageManager13getSearchListE20SecPreferencesDomainRSt6vectorINS0_8KeychainESaIS4_EE
Security:single module:__ZN8Security12KeychainCore14StorageManager13loginKeychainENS0_8KeychainE
Security:single module:__ZN8Security12KeychainCore14StorageManager13loginKeychainEv
Security:single module:__ZN8Security12KeychainCore14StorageManager13resetKeychainEh
Security:single module:__ZN8Security12KeychainCore14StorageManager13setSearchListE20SecPreferencesDomainRKSt6vectorINS0_8KeychainESaIS4_EE
Security:single module:__ZN8Security12KeychainCore14StorageManager13setSearchListERKSt6vectorINS0_8KeychainESaIS3_EE
Security:single module:__ZN8Security12KeychainCore14StorageManager15defaultKeychainE20SecPreferencesDomain
Security:single module:__ZN8Security12KeychainCore14StorageManager15defaultKeychainE20SecPreferencesDomainRKNS0_8KeychainE
Security:single module:__ZN8Security12KeychainCore14StorageManager15defaultKeychainERKNS0_8KeychainE
Security:single module:__ZN8Security12KeychainCore14StorageManager15defaultKeychainEv
Security:single module:__ZN8Security12KeychainCore14StorageManager15makeLoginAuthUIERNS0_4ItemE
Security:single module:__ZN8Security12KeychainCore14StorageManager17defaultKeychainUIERNS0_4ItemE
Security:single module:__ZN8Security12KeychainCore14StorageManager19changeLoginPasswordEPKhS3_
Security:single module:__ZN8Security12KeychainCore14StorageManager19changeLoginPasswordEmPKvmS3_
Security:single module:__ZN8Security12KeychainCore14StorageManager21setDefaultCredentialsERKNS_10CssmClient2DbE
Security:single module:__ZN8Security12KeychainCore14StorageManager2atEj
Security:single module:__ZN8Security12KeychainCore14StorageManager4makeEPKc
Security:single module:__ZN8Security12KeychainCore14StorageManager4makeEPKcb
Security:single module:__ZN8Security12KeychainCore14StorageManager4sizeEv
Security:single module:__ZN8Security12KeychainCore14StorageManager5loginEPK22AuthorizationOpaqueRefmPKc
Security:single module:__ZN8Security12KeychainCore14StorageManager5loginEPKhS3_
Security:single module:__ZN8Security12KeychainCore14StorageManager5loginEmPKvmS3_
Security:single module:__ZN8Security12KeychainCore14StorageManager6domainE20SecPreferencesDomain
Security:single module:__ZN8Security12KeychainCore14StorageManager6logoutEv
Security:single module:__ZN8Security12KeychainCore14StorageManager6removeERKSt6vectorINS0_8KeychainESaIS3_EEb
Security:single module:__ZN8Security12KeychainCore14StorageManager6renameENS0_8KeychainEPKc
Security:single module:__ZN8Security12KeychainCore14StorageManager7createdERKNS0_8KeychainE
Security:single module:__ZN8Security12KeychainCore14StorageManager7lockAllEv
Security:single module:__ZN8Security12KeychainCore14StorageManager8keychainERKNS_14DLDbIdentifierE
Security:single module:__ZN8Security12KeychainCore14StorageManagerC2Ev
Security:single module:__ZN8Security12KeychainCore14StorageManagerixEj
Security:single module:__ZN8Security10IPPlusPlus19SecureTransportCoreC2Ev
Security:single module:__ZN8Security10IPPlusPlus19SecureTransportCoreC1Ev
Security:single module:__ZN8Security10IPPlusPlus19SecureTransportCoreC4Ev
Security:single module:__ZN8Security10IPPlusPlus19SecureTransportCoreD2Ev
Security:single module:__ZN8Security10IPPlusPlus19SecureTransportCoreD1Ev
Security:single module:__ZN8Security10IPPlusPlus19SecureTransportCoreD0Ev
Security:single module:__ZN8Security10IPPlusPlus19SecureTransportCoreD4Ev
Security:single module:__ZN8Security10IPPlusPlus19SecureTransportCore4openEv
Security:single module:__ZN8Security10IPPlusPlus19SecureTransportCore5closeEv
Security:single module:__ZN8Security10IPPlusPlus19SecureTransportCore4readEPvm
Security:single module:__ZN8Security10IPPlusPlus19SecureTransportCore5writeEPKvm
Security:single module:__ZN8Security10IPPlusPlus19SecureTransportCore17continueHandshakeEv
Security:single module:__ZNK8Security10IPPlusPlus19SecureTransportCore5stateEv
Security:single module:__ZNK8Security10IPPlusPlus19SecureTransportCore7versionEv
Security:single module:__ZN8Security10IPPlusPlus19SecureTransportCore7versionE11SSLProtocol
Security:single module:__ZNK8Security10IPPlusPlus19SecureTransportCore19numSupportedCiphersEv
Security:single module:__ZNK8Security10IPPlusPlus19SecureTransportCore16supportedCiphersEPmRm
Security:single module:__ZNK8Security10IPPlusPlus19SecureTransportCore17numEnabledCiphersEv
Security:single module:__ZNK8Security10IPPlusPlus19SecureTransportCore14enabledCiphersEPmRm
Security:single module:__ZN8Security10IPPlusPlus19SecureTransportCore14enabledCiphersEPmm
Security:single module:__ZNK8Security10IPPlusPlus19SecureTransportCore18allowsExpiredCertsEv
Security:single module:__ZN8Security10IPPlusPlus19SecureTransportCore18allowsExpiredCertsEb
Security:single module:__ZNK8Security10IPPlusPlus19SecureTransportCore18allowsUnknownRootsEv
Security:single module:__ZN8Security10IPPlusPlus19SecureTransportCore18allowsUnknownRootsEb
Security:single module:__ZN8Security10IPPlusPlus19SecureTransportCore6peerIdEPKvm
Security:single module:__ZN8Security10IPPlusPlus19SecureTransportCore11sslReadFuncEPKvPvPm
Security:single module:__ZN8Security10IPPlusPlus19SecureTransportCore12sslWriteFuncEPKvS3_Pm
Security:single module:__ZN8Security10IPPlusPlus11SocksServer4makeEjRKNS0_13IPSockAddressE
Security:single module:__ZN8Security10IPPlusPlus17SocksClientSocket4openERKNS0_13IPSockAddressE
Security:single module:__ZN8Security10IPPlusPlus17SocksClientSocket4openERKNS0_9IPAddressEt
Security:single module:__ZN8Security10IPPlusPlus17SocksClientSocket4openERKNS0_4HostEt
Security:single module:__ZN8Security10IPPlusPlus17SocksClientSocket5setFdEiRKNS0_13IPSockAddressES4_
Security:single module:__ZN8Security10IPPlusPlus17SocksServerSocket4openERKNS0_13IPSockAddressEi
Security:single module:__ZN8Security10IPPlusPlus17SocksServerSocket7receiveERNS0_17SocksClientSocketE
Security:single module:__ZNK8Security10IPPlusPlus11SocksServer7Support12localAddressERKNS0_6SocketE
Security:single module:__ZNK8Security10IPPlusPlus11SocksServer7Support11peerAddressERKNS0_6SocketE
Security:single module:__ZN8Security10IPPlusPlus6Socks46Server7connectERNS0_17SocksClientSocketERKNS0_13IPSockAddressE
Security:single module:__ZN8Security10IPPlusPlus6Socks46Server7connectERNS0_17SocksClientSocketERKNS0_4HostEt
Security:single module:__ZN8Security10IPPlusPlus6Socks46Server4bindERNS0_17SocksServerSocketERKNS0_9IPAddressEt
Security:single module:__ZN8Security10IPPlusPlus6Socks46Server7receiveERNS0_17SocksServerSocketERNS0_17SocksClientSocketE
Security:single module:__ZN8Security10IPPlusPlus6Socks47MessageC2ENS1_7CommandERKNS0_13IPSockAddressE
Security:single module:__ZN8Security10IPPlusPlus6Socks47MessageC1ENS1_7CommandERKNS0_13IPSockAddressE
Security:single module:__ZN8Security10IPPlusPlus6Socks47MessageC4ENS1_7CommandERKNS0_13IPSockAddressE
Security:single module:__ZN8Security10IPPlusPlus6Socks47Message4sendERNS0_6SocketEPKc
Security:single module:__ZN8Security10IPPlusPlus6Socks47MessageC2ERNS0_6SocketE
Security:single module:__ZN8Security10IPPlusPlus6Socks47MessageC1ERNS0_6SocketE
Security:single module:__ZN8Security10IPPlusPlus6Socks47MessageC4ERNS0_6SocketE
Security:single module:__ZN8Security10IPPlusPlus6Socks56Server4openERNS0_6SocketERNS0_11SocksServer7SupportE
Security:single module:__ZN8Security10IPPlusPlus6Socks56Server7connectERNS0_17SocksClientSocketERKNS0_13IPSockAddressE
Security:single module:__ZN8Security10IPPlusPlus6Socks56Server7connectERNS0_17SocksClientSocketERKNS0_4HostEt
Security:single module:__ZN8Security10IPPlusPlus6Socks56Server4bindERNS0_17SocksServerSocketERKNS0_9IPAddressEt
Security:single module:__ZN8Security10IPPlusPlus6Socks56Server7receiveERNS0_17SocksServerSocketERNS0_17SocksClientSocketE
Security:single module:__ZN8Security10IPPlusPlus6Socks57MessageC2ENS1_7CommandENS0_9IPAddressEt
Security:single module:__ZN8Security10IPPlusPlus6Socks57MessageC1ENS1_7CommandENS0_9IPAddressEt
Security:single module:__ZN8Security10IPPlusPlus6Socks57MessageC4ENS1_7CommandENS0_9IPAddressEt
Security:single module:__ZN8Security10IPPlusPlus6Socks57MessageC2ENS1_7CommandEPKct
Security:single module:__ZN8Security10IPPlusPlus6Socks57MessageC1ENS1_7CommandEPKct
Security:single module:__ZN8Security10IPPlusPlus6Socks57MessageC4ENS1_7CommandEPKct
Security:single module:__ZN8Security10IPPlusPlus6Socks57Message4sendERNS0_6SocketE
Security:single module:__ZN8Security10IPPlusPlus6Socks57MessageC2ERNS0_6SocketE
Security:single module:__ZN8Security10IPPlusPlus6Socks57MessageC1ERNS0_6SocketE
Security:single module:__ZN8Security10IPPlusPlus6Socks57MessageC4ERNS0_6SocketE
Security:single module:__ZN8Security10BufferFifoD2Ev
Security:single module:__ZN8Security10BufferFifoD1Ev
Security:single module:__ZN8Security10BufferFifoD0Ev
Security:single module:__ZN8Security10BufferFifoD4Ev
Security:single module:__ZN8Security10BufferFifo11clearBufferEv
Security:single module:__ZN8Security10BufferFifo7consumeEPKvm
Security:single module:__ZN8Security10BufferFifo3popEv
Security:single module:__ZN8Security9ConstData4BlobC2EPKvmb
Security:single module:__ZN8Security9ConstData4BlobC1EPKvmb
Security:single module:__ZN8Security9ConstData4BlobC4EPKvmb
Security:single module:__ZN8Security10IPPlusPlus9InetReplyC2EPKc
Security:single module:__ZN8Security10IPPlusPlus9InetReplyC1EPKc
Security:single module:__ZN8Security10IPPlusPlus9InetReplyC4EPKc
Security:single module:__ZN8Security10IPPlusPlus9InetReply7analyzeEv
Security:single module:__ZN8Security10IPPlusPlus9InetReply12ContinuationclEPKc
Security:single module:__ZN8Security10IPPlusPlus9InetReply12ContinuationclERKS1_
Security:single module:__ZN8Security10IPPlusPlus9IPAddressC2EPKc
Security:single module:__ZN8Security10IPPlusPlus9IPAddressC1EPKc
Security:single module:__ZN8Security10IPPlusPlus9IPAddressC4EPKc
Security:single module:__ZNK8Security10IPPlusPlus9IPAddresscvSsEv
Security:single module:__ZN8Security10IPPlusPlus13IPSockAddressC2Ev
Security:single module:__ZN8Security10IPPlusPlus13IPSockAddressC1Ev
Security:single module:__ZN8Security10IPPlusPlus13IPSockAddressC4Ev
Security:single module:__ZN8Security10IPPlusPlus13IPSockAddressC2ERKNS0_9IPAddressEt
Security:single module:__ZN8Security10IPPlusPlus13IPSockAddressC1ERKNS0_9IPAddressEt
Security:single module:__ZN8Security10IPPlusPlus13IPSockAddressC4ERKNS0_9IPAddressEt
Security:single module:__ZNK8Security10IPPlusPlus13IPSockAddresscvSsEv
Security:single module:__ZNK8Security10IPPlusPlus13IPSockAddress8defaultsERKS1_
Security:single module:__ZNK8Security10IPPlusPlus13IPSockAddress8defaultsERKNS0_9IPAddressEt
Security:single module:__ZNK8Security10IPPlusPlus13IPSockAddress8defaultsEt
Security:single module:__ZN8Security10IPPlusPlus13UNSockAddressC2Ev
Security:single module:__ZN8Security10IPPlusPlus13UNSockAddressC1Ev
Security:single module:__ZN8Security10IPPlusPlus13UNSockAddressC4Ev
Security:single module:__ZN8Security10IPPlusPlus13UNSockAddressC2EPKc
Security:single module:__ZN8Security10IPPlusPlus13UNSockAddressC1EPKc
Security:single module:__ZN8Security10IPPlusPlus13UNSockAddressC4EPKc
Security:single module:__ZN8Security10IPPlusPlus13UNSockAddressC2ERKSs
Security:single module:__ZN8Security10IPPlusPlus13UNSockAddressC1ERKSs
Security:single module:__ZN8Security10IPPlusPlus13UNSockAddressC4ERKSs
Security:single module:__ZNK8Security10IPPlusPlus13UNSockAddress4pathEv
Security:single module:__ZN8Security10IPPlusPlus6SocketC2Ei
Security:single module:__ZN8Security10IPPlusPlus6SocketC1Ei
Security:single module:__ZN8Security10IPPlusPlus6SocketC4Ei
Security:single module:__ZN8Security10IPPlusPlus6SocketC2Eiii
Security:single module:__ZN8Security10IPPlusPlus6SocketC1Eiii
Security:single module:__ZN8Security10IPPlusPlus6SocketC4Eiii
Security:single module:__ZN8Security10IPPlusPlus6Socket4openEiii
Security:single module:__ZN8Security10IPPlusPlus6Socket7prepareEiiii
Security:single module:__ZN8Security10IPPlusPlus6Socket4bindERKNS0_9IPAddressEt
Security:single module:__ZN8Security10IPPlusPlus6Socket4bindERKNS0_13IPSockAddressE
Security:single module:__ZN8Security10IPPlusPlus6Socket4bindERKNS0_13UNSockAddressE
Security:single module:__ZN8Security10IPPlusPlus6Socket6listenEi
Security:single module:__ZN8Security10IPPlusPlus6Socket6acceptERS1_
Security:single module:__ZN8Security10IPPlusPlus6Socket6acceptERS1_RNS0_13IPSockAddressE
Security:single module:__ZN8Security10IPPlusPlus6Socket6acceptERS1_RNS0_13UNSockAddressE
Security:single module:__ZN8Security10IPPlusPlus6Socket7connectERKNS0_13IPSockAddressE
Security:single module:__ZN8Security10IPPlusPlus6Socket7connectERKNS0_9IPAddressEt
Security:single module:__ZN8Security10IPPlusPlus6Socket7connectERKNS0_13UNSockAddressE
Security:single module:__ZN8Security10IPPlusPlus6Socket8shutdownEi
Security:single module:__ZNK8Security10IPPlusPlus6Socket12localAddressEv
Security:single module:__ZNK8Security10IPPlusPlus6Socket11peerAddressEv
Security:single module:__ZNK8Security10IPPlusPlus6Socket9getOptionEPvRiii
Security:single module:__ZNK8Security10IPPlusPlus6Socket9setOptionEPKviii
Security:single module:__ZN8Security10IPPlusPlus6Socket7connectERKNS0_4HostEt
Security:single module:__ZN8Security10IPPlusPlus15TCPClientSocket4openERKNS0_13IPSockAddressEi
Security:single module:__ZN8Security10IPPlusPlus15TCPClientSocket4openERKNS0_9IPAddressEti
Security:single module:__ZN8Security10IPPlusPlus15TCPClientSocket4openERKNS0_4HostEti
Security:single module:__ZN8Security10IPPlusPlus15TCPClientSocketD2Ev
Security:single module:__ZN8Security10IPPlusPlus15TCPClientSocketD1Ev
Security:single module:__ZN8Security10IPPlusPlus15TCPClientSocketD4Ev
Security:single module:__ZN8Security10IPPlusPlus15TCPServerSocket4openERKNS0_13IPSockAddressEi
Security:single module:__ZN8Security10IPPlusPlus15TCPServerSocketclERNS0_15TCPClientSocketE
Security:single module:__ZN8Security10IPPlusPlus15TCPServerSocket7receiveERNS0_15TCPClientSocketE
Security:single module:__ZN8Security10IPPlusPlus15TCPServerSocketD2Ev
Security:single module:__ZN8Security10IPPlusPlus15TCPServerSocketD1Ev
Security:single module:__ZN8Security10IPPlusPlus15TCPServerSocketD4Ev
Security:single module:__ZN8Security12UnixPlusPlus8SelectorC2Ev
Security:single module:__ZN8Security12UnixPlusPlus8SelectorC1Ev
Security:single module:__ZN8Security12UnixPlusPlus8SelectorC4Ev
Security:single module:__ZN8Security12UnixPlusPlus8SelectorD2Ev
Security:single module:__ZN8Security12UnixPlusPlus8SelectorD1Ev
Security:single module:__ZN8Security12UnixPlusPlus8SelectorD0Ev
Security:single module:__ZN8Security12UnixPlusPlus8SelectorD4Ev
Security:single module:__ZN8Security12UnixPlusPlus8Selector3addEiRNS1_6ClientEj
Security:single module:__ZN8Security12UnixPlusPlus8Selector6removeEi
Security:single module:__ZN8Security12UnixPlusPlus8Selector3setEij
Security:single module:__ZN8Security12UnixPlusPlus8SelectorclEv
Security:single module:__ZN8Security12UnixPlusPlus8SelectorclENS_4Time8AbsoluteE
Security:single module:__ZN8Security12UnixPlusPlus8Selector10singleStepENS_4Time8IntervalE
Security:single module:__ZNK8Security6Source5stateEv
Security:single module:__ZN8Security6Source7getSizeEv
Security:single module:__ZN8Security4Sink7setSizeEm
Security:single module:__ZN8Security10NullSource7produceEPvRm
Security:single module:__ZNK8Security10NullSource5stateEv
Security:single module:__ZN8Security8NullSink7consumeEPKvm
Security:single module:__ZN8Security10FileSource7produceEPvRm
Security:single module:__ZN8Security10FileSource7getSizeEv
Security:single module:__ZN8Security8FileSink7consumeEPKvm
Security:single module:__ZN8Security12MemorySource7produceEPvRm
Security:single module:__ZN8Security12MemorySource7getSizeEv
Security:single module:__ZNK8Security12MemorySource5stateEv
Security:single module:__ZN8Security10MemorySink7consumeEPKvm
Security:single module:__ZN8Security10MemorySink7setSizeEm
Security:single module:__ZN8Security10MemorySink4growEm
Security:single module:__ZN8Security4Time10resolutionENS0_8AbsoluteE
Security:single module:__ZN8Security4Time8AbsoluteC1ERK7timeval
Security:single module:__ZN8Security4Time8AbsoluteC1ERK8timespec
Security:single module:__ZN8Security4Time8AbsoluteC2ERK7timeval
Security:single module:__ZN8Security4Time8AbsoluteC2ERK8timespec
Security:single module:__ZN8Security4Time8AbsoluteC4ERK7timeval
Security:single module:__ZN8Security4Time8AbsoluteC4ERK8timespec
Security:single module:__ZNK8Security4Time8Absolutecv7timevalEv
Security:single module:__ZNK8Security4Time8Absolutecv8timespecEv
Security:single module:__ZNK8Security4Time8Interval15timevalIntervalEv
Security:single module:__ZN8Security12GenericValueD2Ev
Security:single module:__ZN8Security12GenericValueD1Ev
Security:single module:__ZN8Security12GenericValueD0Ev
Security:single module:__ZN8Security12GenericValueD4Ev
Security:single module:__ZN8Security12UnixPlusPlus7sigMaskENS0_6SigSetEi
Security:single module:__ZN8Security12UnixPlusPlus8FileDesc4mmapEimixPv
Security:single module:__ZN8Security12UnixPlusPlus8FileDesc4seekExi
Security:single module:__ZN8Security12UnixPlusPlus8FileDesc5closeEv
Security:single module:__ZN8Security12UnixPlusPlus8FileDesc6fdopenEPKc
Security:single module:__ZNK8Security12UnixPlusPlus8FileDesc5fcntlEiPv
Security:single module:__ZNK8Security12UnixPlusPlus8FileDesc5fcntlEii
Security:single module:__ZNK8Security12UnixPlusPlus8FileDesc5flagsEi
Security:single module:__ZNK8Security12UnixPlusPlus8FileDesc5flagsEv
Security:single module:__ZNK8Security12UnixPlusPlus8FileDesc5fstatER4stat
Security:single module:__ZNK8Security12UnixPlusPlus8FileDesc5ioctlEiPv
Security:single module:__ZNK8Security12UnixPlusPlus8FileDesc7setFlagEib
Security:single module:__ZNK8Security12UnixPlusPlus8FileDesc8fileSizeEv
Security:single module:__ZN8Security7Network5mkstrEPK10__CFString
Security:single module:__ZN8Security7Network3URLC2Ev
Security:single module:__ZN8Security7Network3URLC1Ev
Security:single module:__ZN8Security7Network3URLC4Ev
Security:single module:__ZN8Security7Network3URLC2EPKc
Security:single module:__ZN8Security7Network3URLC1EPKc
Security:single module:__ZN8Security7Network3URLC4EPKc
Security:single module:__ZN8Security7Network3URLC2EPKcRKS1_
Security:single module:__ZN8Security7Network3URLC1EPKcRKS1_
Security:single module:__ZN8Security7Network3URLC4EPKcRKS1_
Security:single module:__ZN8Security7Network3URLD2Ev
Security:single module:__ZN8Security7Network3URLD1Ev
Security:single module:__ZN8Security7Network3URLD4Ev
Security:single module:__ZNK8Security7Network3URLcvSsEv
Security:single module:__ZNK8Security7Network3URL6schemeEv
Security:single module:__ZNK8Security7Network3URL4hostEv
Security:single module:__ZNK8Security7Network3URL4portEt
Security:single module:__ZNK8Security7Network3URL8usernameEv
Security:single module:__ZNK8Security7Network3URL8passwordEv
Security:single module:__ZNK8Security7Network3URL4pathEv
Security:single module:__ZNK8Security7Network3URL12resourceSpecEv
Security:single module:__ZNK8Security7Network3URL8fullPathEv
Security:single module:__ZNK8Security7Network3URL8basenameEv
Security:single module:__ZNK8Security7Network3URL9extensionEv
Security:single module:__ZN8Security7Network3URL11recreateURLEPKc
Security:single module:__ZN8Security10IPPlusPlus4HostC2EPKc
Security:single module:__ZN8Security10IPPlusPlus4HostC1EPKc
Security:single module:__ZN8Security10IPPlusPlus4HostC4EPKc
Security:single module:__ZNK8Security10IPPlusPlus4HosteqERKS1_
Security:single module:__ZNK8Security10IPPlusPlus4HostltERKS1_
Security:single module:__ZNK8Security10IPPlusPlus4HostleERKS1_
Security:single module:__ZNK8Security10IPPlusPlus14IPv4NumberHost4nameEv
Security:single module:__ZNK8Security10IPPlusPlus14IPv4NumberHost9addressesEv
Security:single module:__ZN8Security10IPPlusPlus9NamedHostC2EPKc
Security:single module:__ZN8Security10IPPlusPlus9NamedHostC1EPKc
Security:single module:__ZN8Security10IPPlusPlus9NamedHostC4EPKc
Security:single module:__ZNK8Security10IPPlusPlus9NamedHost4nameEv
Security:single module:__ZNK8Security10IPPlusPlus9NamedHost9addressesEv
Security:single module:__ZN8Security9HeaderMap12CanonicalKeyC2EPKcc
Security:single module:__ZN8Security9HeaderMap12CanonicalKeyC1EPKcc
Security:single module:__ZN8Security9HeaderMap12CanonicalKeyC4EPKcc
Security:single module:__ZN8Security9HeaderMap3addEPKcS2_
Security:single module:__ZN8Security9HeaderMap3addEPKc
Security:single module:__ZN8Security9HeaderMap3addERKNS0_12CanonicalKeyEPKc
Security:single module:__ZNK8Security9HeaderMap4findEPKcS2_
Security:single module:__ZN8Security9HeaderMapixEPKc
Security:single module:__ZN8Security9HeaderMap5mergeESsRSsSs
Security:single module:__ZNK8Security9HeaderMap7collectEPKc
Security:single module:__ZNK8Security9HeaderMap13collectLengthEPKc
Security:single module:__ZN8Security6BufferC2Em
Security:single module:__ZN8Security6BufferC1Em
Security:single module:__ZN8Security6BufferC4Em
Security:single module:__ZN8Security6BufferC2EPvmbb
Security:single module:__ZN8Security6BufferC1EPvmbb
Security:single module:__ZN8Security6BufferC4EPvmbb
Security:single module:__ZN8Security6BufferD2Ev
Security:single module:__ZN8Security6BufferD1Ev
Security:single module:__ZN8Security6BufferD4Ev
Security:single module:__ZN8Security6Buffer7shuffleEm
Security:single module:__ZN8Security6Buffer6printfEPKcz
Security:single module:__ZN8Security6Buffer7vprintfEPKcPc
Security:single module:__ZN8Security12UnixPlusPlus5FDSetD2Ev
Security:single module:__ZN8Security12UnixPlusPlus5FDSetD1Ev
Security:single module:__ZN8Security12UnixPlusPlus5FDSetD4Ev
Security:single module:__ZN8Security12UnixPlusPlus5FDSet4growEii
Security:single module:__ZN8Security12UnixPlusPlus5FDSet4growERPiii
Security:single module:__ZN8Security12UnixPlusPlus5FDSet3setEib
Security:single module:__ZN8Security12UnixPlusPlus5FDSet4makeEi
Security:single module:__ZN8Security12ModuleLoaderC2Ev
Security:single module:__ZN8Security14LoadablePluginC2EPKc
Security:single module:__ZN8Security14LoadablePluginC1EPKc
Security:single module:__ZN8Security14LoadablePluginC4EPKc
Security:single module:__ZN8Security14LoadablePlugin4loadEv
Security:single module:__ZThn4_N8Security14LoadablePlugin4loadEv
Security:single module:__ZN8Security14LoadablePlugin6unloadEv
Security:single module:__ZThn4_N8Security14LoadablePlugin6unloadEv
Security:single module:__ZNK8Security14LoadablePlugin8isLoadedEv
Security:single module:__ZThn4_NK8Security14LoadablePlugin8isLoadedEv
Security:single module:__ZN8Security12MachPlusPlus12PowerWatcherC2Ev
Security:single module:__ZN8Security12MachPlusPlus12PowerWatcherC1Ev
Security:single module:__ZN8Security12MachPlusPlus12PowerWatcherC4Ev
Security:single module:__ZN8Security12MachPlusPlus12PowerWatcherD2Ev
Security:single module:__ZN8Security12MachPlusPlus12PowerWatcherD1Ev
Security:single module:__ZN8Security12MachPlusPlus12PowerWatcherD0Ev
Security:single module:__ZN8Security12MachPlusPlus12PowerWatcherD4Ev
Security:single module:__ZN8Security12MachPlusPlus12PowerWatcher10ioCallbackEPvjjS2_
Security:single module:__ZN8Security12MachPlusPlus12PowerWatcher15systemWillSleepEv
Security:single module:__ZN8Security12MachPlusPlus12PowerWatcher14systemIsWakingEv
Security:single module:__ZN8Security12MachPlusPlus12PowerWatcher19systemWillPowerDownEv
Security:single module:__ZN8Security12MachPlusPlus16PortPowerWatcherC2Ev
Security:single module:__ZN8Security12MachPlusPlus16PortPowerWatcherC1Ev
Security:single module:__ZN8Security12MachPlusPlus16PortPowerWatcherC4Ev
Security:single module:__ZN8Security12MachPlusPlus16PortPowerWatcherD2Ev
Security:single module:__ZN8Security12MachPlusPlus16PortPowerWatcherD1Ev
Security:single module:__ZN8Security12MachPlusPlus16PortPowerWatcherD0Ev
Security:single module:__ZN8Security12MachPlusPlus16PortPowerWatcherD4Ev
Security:single module:__ZN8Security12MachPlusPlus16PortPowerWatcher6handleEP17mach_msg_header_t
Security:single module:__ZThn16_N8Security12MachPlusPlus16PortPowerWatcher6handleEP17mach_msg_header_t
Security:single module:_checkpw
Security:single module:__Z17cssm_DataGetFirst17cssm_dl_db_handlePK10cssm_queryPmP29cssm_db_record_attribute_dataP9cssm_dataPP21cssm_db_unique_record
Security:single module:__Z15cssm_DataModify17cssm_dl_db_handlemP21cssm_db_unique_recordPK29cssm_db_record_attribute_dataPK9cssm_datam
Security:single module:__Z24cssm_GetDbNameFromHandle17cssm_dl_db_handlePPc
Security:single module:__Z19cssm_DataAbortQuery17cssm_dl_db_handlem
Security:single module:__Z20cssm_DestroyRelation17cssm_dl_db_handlem
Security:single module:__Z15cssm_DataDelete17cssm_dl_db_handlePK21cssm_db_unique_record
Security:single module:__Z15cssm_DataInsert17cssm_dl_db_handlemPK29cssm_db_record_attribute_dataPK9cssm_dataPP21cssm_db_unique_record
Security:single module:__Z30cssm_DataGetFromUniqueRecordId17cssm_dl_db_handlePK21cssm_db_unique_recordP29cssm_db_record_attribute_dataP9cssm_data
Security:single module:__Z19cssm_CreateRelation17cssm_dl_db_handlemPKcmPK29cssm_db_schema_attribute_infomPK25cssm_db_schema_index_info
Security:single module:__Z21cssm_FreeUniqueRecord17cssm_dl_db_handleP21cssm_db_unique_record
Security:single module:__Z11cssm_DbOpenmPKcPK16cssm_net_addressmPK23cssm_access_credentialsPKvPm
Security:single module:__Z16cssm_DataGetNext17cssm_dl_db_handlemP29cssm_db_record_attribute_dataP9cssm_dataPP21cssm_db_unique_record
Security:single module:__Z15cssm_GetDbNamesmPP14cssm_name_list
Security:single module:__Z12cssm_DbClose17cssm_dl_db_handle
Security:single module:__Z17cssm_FreeNameListmP14cssm_name_list
Security:single module:_MDS_Initialize
Security:single module:_MDS_Terminate
Security:single module:_MDS_Install
Security:single module:_MDS_Uninstall
Security:single module:__ZN8Security9MDSModule3getEv
Security:single module:__ZN8Security9MDSModuleC2Ev
Security:single module:__ZN8Security9MDSModuleC1Ev
Security:single module:__ZN8Security9MDSModuleC4Ev
Security:single module:__ZN8Security9MDSModuleD2Ev
Security:single module:__ZN8Security9MDSModuleD1Ev
Security:single module:__ZN8Security9MDSModuleD4Ev
Security:single module:__ZN8Security9MDSModule13lastScanIsNowEv
Security:single module:__ZN8Security9MDSModule17timeSinceLastScanEv
Security:single module:__ZN8Security9MDSModule9getDbPathEPc
Security:single module:__ZN8Security9MDSModule9setDbPathEPKc
Security:single module:__ZN8Security23MDSRecordTypeToRelationEm
Security:single module:__ZN8Security27MDSRecordTypeNameToRelationEPKc
Security:single module:__ZN8Security12doFilesExistEPKcS1_b
Security:single module:__ZN8Security15doesDirectExistEPKc
Security:single module:__ZN8Security9createDirEPKct
Security:single module:__ZN8Security10MDSSessionC2EPKNS_4GuidERK17cssm_memory_funcs
Security:single module:__ZN8Security10MDSSessionC1EPKNS_4GuidERK17cssm_memory_funcs
Security:single module:__ZN8Security10MDSSessionC4EPKNS_4GuidERK17cssm_memory_funcs
Security:single module:__ZN8Security10MDSSessionD2Ev
Security:single module:__ZN8Security10MDSSessionD1Ev
Security:single module:__ZThn80_N8Security10MDSSessionD1Ev
Security:single module:__ZThn4_N8Security10MDSSessionD1Ev
Security:single module:__ZN8Security10MDSSessionD0Ev
Security:single module:__ZThn80_N8Security10MDSSessionD0Ev
Security:single module:__ZThn4_N8Security10MDSSessionD0Ev
Security:single module:__ZN8Security10MDSSessionD4Ev
Security:single module:__ZN8Security10MDSSession9terminateEv
Security:single module:__ZN8Security10MDSSession7installEv
Security:single module:__ZN8Security10MDSSession9uninstallEv
Security:single module:__ZN8Security10MDSSession6dbOpenEPKc
Security:single module:__ZN8Security10MDSSession6DbOpenEPKcPK16cssm_net_addressmPKNS_17AccessCredentialsEPKvRm
Security:single module:__ZN8Security10MDSSession10GetDbNamesERP14cssm_name_list
Security:single module:__ZN8Security10MDSSession12FreeNameListER14cssm_name_list
Security:single module:__ZN8Security10MDSSession19GetDbNameFromHandleEmPPc
Security:single module:__ZN8Security10MDSSession10obtainLockEPKcRii
Security:single module:__ZN8Security10MDSSession11releaseLockERi
Security:single module:__ZN8Security10MDSSession10dbFullPathEPKcPc
Security:single module:__ZN8Security8isBundleEPK6dirent
Security:single module:__ZN8Security16checkUserBundlesEPKc
Security:single module:__ZN8Security12safeCopyFileEPKcS1_
Security:single module:__ZN8Security13copySystemDbsEPKc
Security:single module:__ZN8Security10MDSSession15updateDataBasesEv
Security:single module:__ZN8Security10MDSSession20removeRecordsForGuidEPKcm
Security:single module:__ZN8Security10MDSSession22systemDatabasesPresentEb
Security:single module:__ZN8Security10MDSSession20createSystemDatabaseEPKcPKNS_12RelationInfoEjltRm
Security:single module:__ZN8Security10MDSSession21createSystemDatabasesElt
Security:single module:__ZN8Security10MDSSession11DbFilesInfoC2ERS0_PKc
Security:single module:__ZN8Security10MDSSession11DbFilesInfoC1ERS0_PKc
Security:single module:__ZN8Security10MDSSession11DbFilesInfoC4ERS0_PKc
Security:single module:__ZN8Security10MDSSession11DbFilesInfoD2Ev
Security:single module:__ZN8Security10MDSSession11DbFilesInfoD1Ev
Security:single module:__ZN8Security10MDSSession11DbFilesInfoD4Ev
Security:single module:__ZN8Security10MDSSession11DbFilesInfo9objDbHandEv
Security:single module:__ZN8Security10MDSSession11DbFilesInfo12directDbHandEv
Security:single module:__ZN8Security10MDSSession11DbFilesInfo18updateSystemDbInfoEPKcS3_
Security:single module:__ZN8Security10MDSSession11DbFilesInfo9TbdRecordC2ERK9cssm_data
Security:single module:__ZN8Security10MDSSession11DbFilesInfo9TbdRecordC1ERK9cssm_data
Security:single module:__ZN8Security10MDSSession11DbFilesInfo9TbdRecordC4ERK9cssm_data
Security:single module:__ZN8Security10MDSSession11DbFilesInfo19checkOutdatedPluginERK9cssm_dataS4_RSt6vectorIPNS1_9TbdRecordESaIS7_EE
Security:single module:__ZN8Security10MDSSession11DbFilesInfo21removeOutdatedPluginsEv
Security:single module:__ZN8Security10MDSSession11DbFilesInfo18updateForBundleDirEPKc
Security:single module:__ZN8Security10MDSSession11DbFilesInfo13lookupForPathEPKc
Security:single module:__ZN8Security10MDSSession11DbFilesInfo15updateForBundleEPKc
Security:single module:__ZN8Security10MDSSession11DbFilesInfo10autoCommitEl
Security:single module:__ZN8Security12isNumericStrEPKcb
Security:single module:__ZN8Security8hexDigitEh
Security:single module:__ZN8Security8strToHexEPKc
Security:single module:__ZN8Security18MDSAttrNameToValueEPKcPKNS_16MDSNameValuePairERm
Security:single module:__ZN8Security13MDSAttrParserC2EPKcRNS_10MDSSessionEmm
Security:single module:__ZN8Security13MDSAttrParserC1EPKcRNS_10MDSSessionEmm
Security:single module:__ZN8Security13MDSAttrParserC4EPKcRNS_10MDSSessionEmm
Security:single module:__ZN8Security13MDSAttrParserD2Ev
Security:single module:__ZN8Security13MDSAttrParserD1Ev
Security:single module:__ZN8Security13MDSAttrParserD0Ev
Security:single module:__ZN8Security13MDSAttrParserD4Ev
Security:single module:__ZN8Security13MDSAttrParser10parseAttrsEv
Security:single module:__ZN8Security13MDSAttrParser12logFileErrorEPKcPK7__CFURLPK10__CFStringPl
Security:single module:__ZN8Security13MDSAttrParser13parseCssmInfoEPNS_13MDSDictionaryE
Security:single module:__ZN8Security13MDSAttrParser17parsePluginCommonEPNS_13MDSDictionaryE
Security:single module:__ZN8Security13MDSAttrParser19parsePluginSpecificEPNS_13MDSDictionaryE
Security:single module:__ZN8Security13MDSAttrParser17parseObjectRecordEPNS_13MDSDictionaryE
Security:single module:__ZN8Security13MDSAttrParser14parseMdsRecordEPNS_13MDSDictionaryEPKNS_12RelationInfoEm
Security:single module:__ZN8Security13MDSAttrParser26parseCspCapabilitiesRecordEPNS_13MDSDictionaryE
Security:single module:__ZN8Security13MDSAttrParser23parseTpPolicyOidsRecordEPNS_13MDSDictionaryE
Security:single module:__ZN8Security19MDSRawValueToDbAttrEPKvmmPKcR22cssm_db_attribute_datam
Security:single module:__ZN8Security20MDSFreeDbRecordAttrsEP22cssm_db_attribute_dataj
Security:single module:__ZN8Security20MDSCFStringToCStringEPK10__CFString
Security:single module:__ZN8Security14MDSCopyCstringEPKc
Security:single module:__ZN8Security14MDSCfTypeToIntEPKvPKNS_16MDSNameValuePairEPKcRm
Security:single module:__ZN8Security15MDSInsertRecordEPK22cssm_db_attribute_datajmRNS_10MDSSessionEm
Security:single module:__ZN8Security17MDSStringToUint32EPK10__CFStringPKNS_16MDSNameValuePairERm
Security:single module:__ZN8Security13MDSDictionaryC2EPK7__CFURLPKc
Security:single module:__ZN8Security13MDSDictionaryC1EPK7__CFURLPKc
Security:single module:__ZN8Security13MDSDictionaryC4EPK7__CFURLPKc
Security:single module:__ZN8Security13MDSDictionaryC2EPK14__CFDictionary
Security:single module:__ZN8Security13MDSDictionaryC1EPK14__CFDictionary
Security:single module:__ZN8Security13MDSDictionaryC4EPK14__CFDictionary
Security:single module:__ZN8Security13MDSDictionaryD2Ev
Security:single module:__ZN8Security13MDSDictionaryD1Ev
Security:single module:__ZN8Security13MDSDictionaryD4Ev
Security:single module:__ZN8Security13MDSDictionary6lookupEPKcbm
Security:single module:__ZN8Security13MDSDictionary6lookupEPK10__CFStringbm
Security:single module:__ZN8Security13MDSDictionary14lookupToDbAttrEPKcR22cssm_db_attribute_datamPKNS_16MDSNameValuePairE
Security:single module:__ZN8Security13MDSDictionary16lookupAttributesEPKNS_12RelationInfoEP22cssm_db_attribute_dataRm
Security:single module:__ZN8Security13MDSDictionary18lookupWithIndirectEPKcP10__CFBundlemRb
Security:single module:__ZN8Security27ProtectedPasswordAclSubjectC2ERNS_13CssmAllocatorERKNS_8CssmDataE
Security:single module:__ZN8Security27ProtectedPasswordAclSubjectC1ERNS_13CssmAllocatorERKNS_8CssmDataE
Security:single module:__ZN8Security27ProtectedPasswordAclSubjectC4ERNS_13CssmAllocatorERKNS_8CssmDataE
Security:single module:__ZN8Security27ProtectedPasswordAclSubjectC2ERNS_13CssmAllocatorERNS_15CssmManagedDataE
Security:single module:__ZN8Security27ProtectedPasswordAclSubjectC1ERNS_13CssmAllocatorERNS_15CssmManagedDataE
Security:single module:__ZN8Security27ProtectedPasswordAclSubjectC4ERNS_13CssmAllocatorERNS_15CssmManagedDataE
Security:single module:__ZNK8Security27ProtectedPasswordAclSubject8validateERKNS_20AclValidationContextERKNS_9TypedListE
Security:single module:__ZNK8Security27ProtectedPasswordAclSubject6toListERNS_13CssmAllocatorE
Security:single module:__ZNK8Security27ProtectedPasswordAclSubject5Maker4makeERKNS_9TypedListE
Security:single module:__ZNK8Security27ProtectedPasswordAclSubject5Maker4makeEhRNS_23LowLevelMemoryUtilities6ReaderES4_
Security:single module:__ZN8Security27ProtectedPasswordAclSubject10exportBlobERNS_23LowLevelMemoryUtilities6Writer7CounterES4_
Security:single module:__ZN8Security27ProtectedPasswordAclSubject10exportBlobERNS_23LowLevelMemoryUtilities6WriterES3_
Security:single module:__Z13HMAC_FreeNullP11HMACContext
Security:single module:__Z13HMAC_HmacNullP11HMACContextPKvjPvPj
Security:single module:__Z13HMAC_InitNullP11HMACContext
Security:single module:__Z14HMAC_AllocNullPK13HMACReferenceP10SSLContextPKvjPP11HMACContext
Security:single module:__Z14HMAC_FinalNullP11HMACContextPvPj
Security:single module:__Z15HMAC_UpdateNullP11HMACContextPKvj
Security:single module:__Z11ssl3InitMacP13CipherContextP10SSLContext
Security:single module:__Z14ssl3ComputeMach9SSLBufferS_P13CipherContext9sslUint64P10SSLContext
Security:single module:__Z21ssl3ComputeCertVfyMacP10SSLContext9SSLBufferS1_S1_
Security:single module:__Z22ssl3ComputeFinishedMacP10SSLContext9SSLBufferS1_S1_h
Security:single module:__Z23ssl3GenerateKeyMaterial9SSLBufferP10SSLContext
Security:single module:__Z24ssl3GenerateMasterSecretP10SSLContext
Security:single module:__Z26ssl3GenerateExportKeyAndIvP10SSLContext9SSLBufferS1_S1_S1_S1_S1_
Security:single module:__Z28ssl3CalculateFinishedMessageP10SSLContext9SSLBufferS1_S1_m
Security:single module:__Z21tls1ComputeCertVfyMacP10SSLContext9SSLBufferS1_S1_
Security:single module:__Z26tls1GenerateExportKeyAndIvP10SSLContext9SSLBufferS1_S1_S1_S1_S1_
Security:single module:__ZN8Security12KeychainCore8IdentityC2ERKNS0_10SecPointerINS0_7KeyItemEEERKNS2_INS0_11CertificateEEE
Security:single module:__ZN8Security12KeychainCore8IdentityC1ERKNS0_10SecPointerINS0_7KeyItemEEERKNS2_INS0_11CertificateEEE
Security:single module:__ZN8Security12KeychainCore8IdentityC4ERKNS0_10SecPointerINS0_7KeyItemEEERKNS2_INS0_11CertificateEEE
Security:single module:__ZN8Security12KeychainCore8IdentityC2ERKSt6vectorINS0_8KeychainESaIS3_EERKNS0_10SecPointerINS0_11CertificateEEE
Security:single module:__ZN8Security12KeychainCore8IdentityC1ERKSt6vectorINS0_8KeychainESaIS3_EERKNS0_10SecPointerINS0_11CertificateEEE
Security:single module:__ZN8Security12KeychainCore8IdentityC4ERKSt6vectorINS0_8KeychainESaIS3_EERKNS0_10SecPointerINS0_11CertificateEEE
Security:single module:__ZN8Security12KeychainCore8IdentityD2Ev
Security:single module:__ZN8Security12KeychainCore8IdentityD1Ev
Security:single module:__ZN8Security12KeychainCore8IdentityD0Ev
Security:single module:__ZN8Security12KeychainCore8IdentityD4Ev
Security:single module:__ZNK8Security12KeychainCore8Identity10privateKeyEv
Security:single module:__ZNK8Security12KeychainCore8Identity11certificateEv
Security:single module:__ZN8Security12KeychainCore10SecCFTypesC2Ev
Security:single module:__ZN8Security12KeychainCore7CFClass17copyDebugDescTypeEPKv
Security:single module:__ZN8Security12KeychainCore7CFClass22copyFormattingDescTypeEPKvPK14__CFDictionary
Security:single module:__ZN8Security12KeychainCore7CFClassC2EPKc
Security:single module:__ZN8Security12KeychainCore11SecCFObject13copyDebugDescEv
Security:single module:__ZN8Security12KeychainCore11SecCFObject18copyFormattingDescEPK14__CFDictionary
Security:single module:__ZN8Security12KeychainCore11SecCFObjectD0Ev
Security:single module:__ZN8Security12KeychainCore11SecCFObjectD1Ev
Security:single module:__ZN8Security12KeychainCore11SecCFObjectdlEPv
Security:single module:_SecAccessGetTypeID
Security:single module:_SecAccessCreate
Security:single module:_SecAccessCreateFromOwnerAndACL
Security:single module:_SecAccessGetOwnerAndACL
Security:single module:_SecAccessCopyACLList
Security:single module:_SecAccessCopySelectedACLList
Security:single module:_SecCertificateAddToKeychain
Security:single module:_SecCertificateCopyPublicKey
Security:single module:_SecCertificateFindByEmail
Security:single module:_SecCertificateFindByIssuerAndSN
Security:single module:_SecCertificateFindBySubjectKeyID
Security:single module:_SecCertificateGetAlgorithmID
Security:single module:_SecCertificateGetCLHandle
Security:single module:_SecCertificateGetCommonName
Security:single module:_SecCertificateGetData
Security:single module:_SecCertificateGetEmailAddress
Security:single module:_SecCertificateGetIssuer
Security:single module:_SecCertificateGetSubject
Security:single module:_SecCertificateGetType
Security:single module:_SecCertificateGetTypeID
Security:single module:_SecCertificateInferLabel
Security:single module:_SecCertificateRequestGetTypeID
Security:single module:_SecCertificateRequestCreate
Security:single module:_SecCertificateRequestSetPrivateKey
Security:single module:_SecCertificateRequestSetAttribute
Security:single module:_SecCertificateRequestSubmit
Security:single module:_SecCertificateRequestCreateFromItem
Security:single module:_SecCertificateRequestGetType
Security:single module:_SecCertificateRequestGetResult
Security:single module:_SecCertificateBundleImport
Security:single module:_SecCertifcateBundleExport
Security:single module:_SecIdentityGetTypeID
Security:single module:_SecIdentityCopyCertificate
Security:single module:_SecIdentityCopyPrivateKey
Security:single module:_SecIdentityCreateWithCertificate
Security:single module:_SecIdentitySearchGetTypeID
Security:single module:_SecIdentitySearchCreate
Security:single module:_SecIdentitySearchCopyNext
Security:single module:_SecKeyGetTypeID
Security:single module:_SecKeyCreatePair
Security:single module:_SecKeyGetCSSMKey
Security:single module:_SecKeyGetCSPHandle
Security:single module:_SecKeyGetAlgorithmID
Security:single module:_SecKeyGetStrengthInBits
Security:single module:_SecKeyGetCredentials
Security:single module:_SecKeyImportPair
Security:single module:_SecKeyGenerate
Security:single module:_SecKeyCreate
Security:single module:_SecCopyErrorMessageString
Security:single module:_SecKeychainAddCallback
Security:single module:_SecKeychainAddGenericPassword
Security:single module:_SecKeychainAddInternetPassword
Security:single module:_SecKeychainAttributeInfoForItemID
Security:single module:_SecKeychainChangePassword
Security:single module:_SecKeychainCopyAccess
Security:single module:_SecKeychainCopyDefault
Security:single module:_SecKeychainCopyDomainDefault
Security:single module:_SecKeychainCopyDomainSearchList
Security:single module:_SecKeychainCopyLogin
Security:single module:_SecKeychainCopySettings
Security:single module:_SecKeychainCreate
Security:single module:_SecKeychainDelete
Security:single module:_SecKeychainFindInternetPassword
Security:single module:_SecKeychainFreeAttributeInfo
Security:single module:_SecKeychainGetCSPHandle
Security:single module:_SecKeychainGetDLDBHandle
Security:single module:_SecKeychainGetPath
Security:single module:_SecKeychainGetPreferenceDomain
Security:single module:_SecKeychainGetStatus
Security:single module:_SecKeychainGetTypeID
Security:single module:_SecKeychainGetUserInteractionAllowed
Security:single module:_SecKeychainGetVersion
Security:single module:_SecKeychainListCopyKeychainAtIndex
Security:single module:_SecKeychainListGetCount
Security:single module:_SecKeychainListRemoveKeychain
Security:single module:_SecKeychainLock
Security:single module:_SecKeychainLockAll
Security:single module:_SecKeychainLogin
Security:single module:_SecKeychainLogout
Security:single module:_SecKeychainOpen
Security:single module:_SecKeychainRemoveCallback
Security:single module:_SecKeychainResetLogin
Security:single module:_SecKeychainSetAccess
Security:single module:_SecKeychainSetDefault
Security:single module:_SecKeychainSetDomainDefault
Security:single module:_SecKeychainSetDomainSearchList
Security:single module:_SecKeychainSetPreferenceDomain
Security:single module:_SecKeychainSetSearchList
Security:single module:_SecKeychainSetSettings
Security:single module:_SecKeychainSetUserInteractionAllowed
Security:single module:_SecKeychainUnlock
Security:single module:__Z26copyErrorMessageFromBundlelPK10__CFString
Security:single module:_SecKeychainItemCopyAccess
Security:single module:_SecKeychainItemCopyAttributesAndData
Security:single module:_SecKeychainItemCopyKeychain
Security:single module:_SecKeychainItemCreateCopy
Security:single module:_SecKeychainItemCreateFromContent
Security:single module:_SecKeychainItemDelete
Security:single module:_SecKeychainItemFreeAttributesAndData
Security:single module:_SecKeychainItemGetDLDBHandle
Security:single module:_SecKeychainItemGetTypeID
Security:single module:_SecKeychainItemGetUniqueRecordID
Security:single module:_SecKeychainItemModifyAttributesAndData
Security:single module:_SecKeychainItemModifyContent
Security:single module:_SecKeychainItemSetAccess
Security:single module:__Z21SecAccessModifyObjectP18OpaqueSecAccessRefPKv
Security:single module:__Z25SecAccessCreateFromObjectPKvPP18OpaqueSecAccessRef
Security:single module:__Z9aclBearerPKv
Security:single module:_SecKeychainSearchGetTypeID
Security:single module:_SecPolicyGetOID
Security:single module:_SecPolicyGetTPHandle
Security:single module:_SecPolicyGetTypeID
Security:single module:_SecPolicyGetValue
Security:single module:_SecPolicySearchGetTypeID
Security:single module:_SecTrustCopyAnchorCertificates
Security:single module:_SecTrustGetCSSMAnchorCertificates
Security:single module:_SecTrustGetCssmResult
Security:single module:_SecTrustGetCssmResultCode
Security:single module:_SecTrustGetResult
Security:single module:_SecTrustGetTPHandle
Security:single module:_SecTrustGetTypeID
Security:single module:_SecTrustGetUserTrust
Security:single module:_SecTrustSetAnchorCertificates
Security:single module:_SecTrustSetPolicies
Security:single module:_SecTrustSetUserTrust
Security:single module:_SecTrustSetVerifyDate
Security:single module:_SecTrustedApplicationCopyData
Security:single module:_SecTrustedApplicationGetTypeID
Security:single module:_SecTrustedApplicationRemoveEquivalence
Security:single module:_SecTrustedApplicationSetData
Security:single module:_SecTrustedApplicationUseAlternateSystem
Security:single module:_SecTrustedApplicationValidateWithPath
Security:single module:__ZN8Security12KeychainCore14IdentityCursorC2ERKSt6vectorINS0_8KeychainESaIS3_EEm
Security:single module:__ZN8Security12KeychainCore14IdentityCursorC1ERKSt6vectorINS0_8KeychainESaIS3_EEm
Security:single module:__ZN8Security12KeychainCore14IdentityCursorC4ERKSt6vectorINS0_8KeychainESaIS3_EEm
Security:single module:__ZN8Security12KeychainCore14IdentityCursorD2Ev
Security:single module:__ZN8Security12KeychainCore14IdentityCursorD1Ev
Security:single module:__ZN8Security12KeychainCore14IdentityCursorD0Ev
Security:single module:__ZN8Security12KeychainCore14IdentityCursorD4Ev
Security:single module:__ZN8Security12KeychainCore14IdentityCursor4nextERNS0_10SecPointerINS0_8IdentityEEE
Security:single module:__ZN8Security12KeychainCore12PolicyCursorC2EPK9cssm_dataS4_
Security:single module:__ZN8Security12KeychainCore12PolicyCursorD0Ev
Security:single module:__ZN8Security12KeychainCore12PolicyCursorD2Ev
Security:single module:_SecInferLabelFromX509Name
Security:single module:__Z18findPrintableFieldRK14cssm_x509_namePK9cssm_data
Security:single module:__ZN8Security12KeychainCore11Certificate10certHandleEv
Security:single module:__ZN8Security12KeychainCore11Certificate10commonNameEv
Security:single module:__ZN8Security12KeychainCore11Certificate10getSubjectER14cssm_x509_name
Security:single module:__ZN8Security12KeychainCore11Certificate10inferLabelEbPPK10__CFString
Security:single module:__ZN8Security12KeychainCore11Certificate11algorithmIDEv
Security:single module:__ZN8Security12KeychainCore11Certificate11findByEmailERKSt6vectorINS0_8KeychainESaIS3_EEPKc
Security:single module:__ZN8Security12KeychainCore11Certificate12emailAddressEv
Security:single module:__ZN8Security12KeychainCore11Certificate13publicKeyHashEv
Security:single module:__ZN8Security12KeychainCore11Certificate15copyFieldValuesERK9cssm_data
Security:single module:__ZN8Security12KeychainCore11Certificate17findByIssuerAndSNERKSt6vectorINS0_8KeychainESaIS3_EERKNS_8CssmDataESA_
Security:single module:__ZN8Security12KeychainCore11Certificate17releaseFieldValueERK9cssm_dataPS2_
Security:single module:__ZN8Security12KeychainCore11Certificate18addParsedAttributeERK22cssm_db_attribute_infoRK9cssm_data
Security:single module:__ZN8Security12KeychainCore11Certificate18findBySubjectKeyIDERKSt6vectorINS0_8KeychainESaIS3_EERKNS_8CssmDataE
Security:single module:__ZN8Security12KeychainCore11Certificate18populateAttributesEv
Security:single module:__ZN8Security12KeychainCore11Certificate18releaseFieldValuesERK9cssm_dataPPS2_
Security:single module:__ZN8Security12KeychainCore11Certificate19copyFirstFieldValueERK9cssm_data
Security:single module:__ZN8Security12KeychainCore11Certificate3addERNS0_8KeychainE
Security:single module:__ZN8Security12KeychainCore11Certificate4typeEv
Security:single module:__ZN8Security12KeychainCore11Certificate6copyToERKNS0_8KeychainEPNS0_6AccessE
Security:single module:__ZN8Security12KeychainCore11Certificate6updateEv
Security:single module:__ZN8Security12KeychainCore11Certificate8clHandleEv
Security:single module:__ZN8Security12KeychainCore11Certificate8encodingEv
Security:single module:__ZN8Security12KeychainCore11Certificate9didModifyEv
Security:single module:__ZN8Security12KeychainCore11Certificate9getIssuerER14cssm_x509_name
Security:single module:__ZN8Security12KeychainCore11Certificate9publicKeyEv
Security:single module:__ZN8Security12KeychainCore11CertificateC1ERKNS0_8KeychainERKNS0_10PrimaryKeyE
Security:single module:__ZN8Security12KeychainCore11CertificateC1ERKNS0_8KeychainERKNS0_10PrimaryKeyERKNS_10CssmClient14DbUniqueRecordE
Security:single module:__ZN8Security12KeychainCore11CertificateC1ERS1_
Security:single module:__ZN8Security12KeychainCore11CertificateC2ERK9cssm_datamm
Security:single module:__ZN8Security12KeychainCore11CertificateC2ERKNS0_8KeychainERKNS0_10PrimaryKeyE
Security:single module:__ZN8Security12KeychainCore11CertificateC2ERKNS0_8KeychainERKNS0_10PrimaryKeyERKNS_10CssmClient14DbUniqueRecordE
Security:single module:__ZN8Security12KeychainCore11CertificateC2ERS1_
Security:single module:__ZN8Security12KeychainCore11CertificateC4ERKNS0_8KeychainERKNS0_10PrimaryKeyE
Security:single module:__ZN8Security12KeychainCore11CertificateC4ERKNS0_8KeychainERKNS0_10PrimaryKeyERKNS_10CssmClient14DbUniqueRecordE
Security:single module:__ZN8Security12KeychainCore11CertificateC4ERS1_
Security:single module:__ZN8Security12KeychainCore11CertificateD0Ev
Security:single module:__ZN8Security12KeychainCore11CertificateD2Ev
Security:single module:__ZN8Security12KeychainCore11CertificateeqERS1_
Security:single module:__ZN8Security12KeychainCore11CertificateltERS1_
Security:single module:__ZN8Security12KeychainCore6PolicyC2ENS_10CssmClient2TPERKNS_8CssmDataE
Security:single module:__ZN8Security12KeychainCore6PolicyD0Ev
Security:single module:__ZN8Security12KeychainCore6PolicyD2Ev
Security:single module:__ZNK8Security12KeychainCore6PolicyeqERKS1_
Security:single module:__ZNK8Security12KeychainCore6PolicyltERKS1_
Security:single module:__ZN8Security12KeychainCore6AccessC2Ev
Security:single module:__ZN8Security12KeychainCore6AccessC1Ev
Security:single module:__ZN8Security12KeychainCore6AccessC4Ev
Security:single module:__ZN8Security12KeychainCore6AccessC2ERKSsRKSt6vectorINS0_10SecPointerINS0_18TrustedApplicationEEESaIS7_EE
Security:single module:__ZN8Security12KeychainCore6AccessC1ERKSsRKSt6vectorINS0_10SecPointerINS0_18TrustedApplicationEEESaIS7_EE
Security:single module:__ZN8Security12KeychainCore6AccessC4ERKSsRKSt6vectorINS0_10SecPointerINS0_18TrustedApplicationEEESaIS7_EE
Security:single module:__ZN8Security12KeychainCore6AccessC2ERKSs
Security:single module:__ZN8Security12KeychainCore6AccessC1ERKSs
Security:single module:__ZN8Security12KeychainCore6AccessC4ERKSs
Security:single module:__ZN8Security12KeychainCore6AccessC2ERKSsRKSt6vectorINS0_10SecPointerINS0_18TrustedApplicationEEESaIS7_EERKSt3setIlSt4lessIlESaIlEESI_
Security:single module:__ZN8Security12KeychainCore6AccessC1ERKSsRKSt6vectorINS0_10SecPointerINS0_18TrustedApplicationEEESaIS7_EERKSt3setIlSt4lessIlESaIlEESI_
Security:single module:__ZN8Security12KeychainCore6AccessC4ERKSsRKSt6vectorINS0_10SecPointerINS0_18TrustedApplicationEEESaIS7_EERKSt3setIlSt4lessIlESaIlEESI_
Security:single module:__ZN8Security12KeychainCore6Access12makeStandardERKSsRKSt6vectorINS0_10SecPointerINS0_18TrustedApplicationEEESaIS7_EERKSt3setIlSt4lessIlESaIlEESI_
Security:single module:__ZN8Security12KeychainCore6AccessC2ERNS_10CssmClient9AclBearerE
Security:single module:__ZN8Security12KeychainCore6AccessC1ERNS_10CssmClient9AclBearerE
Security:single module:__ZN8Security12KeychainCore6AccessC4ERNS_10CssmClient9AclBearerE
Security:single module:__ZN8Security12KeychainCore6AccessC2ERK24cssm_acl_owner_prototypemPK19cssm_acl_entry_info
Security:single module:__ZN8Security12KeychainCore6AccessC1ERK24cssm_acl_owner_prototypemPK19cssm_acl_entry_info
Security:single module:__ZN8Security12KeychainCore6AccessC4ERK24cssm_acl_owner_prototypemPK19cssm_acl_entry_info
Security:single module:__ZN8Security12KeychainCore6AccessD2Ev
Security:single module:__ZN8Security12KeychainCore6AccessD1Ev
Security:single module:__ZN8Security12KeychainCore6AccessD0Ev
Security:single module:__ZN8Security12KeychainCore6AccessD4Ev
Security:single module:__Z7convertRKN8Security12KeychainCore10SecPointerINS0_3ACLEEE
Security:single module:__ZNK8Security12KeychainCore6Access11copySecACLsEv
Security:single module:__ZNK8Security12KeychainCore6Access11copySecACLsEl
Security:single module:__ZN8Security12KeychainCore6Access9setAccessERNS_10CssmClient9AclBearerEb
Security:single module:__ZN8Security12KeychainCore6Access9setAccessERNS_10CssmClient9AclBearerERNS1_5MakerE
Security:single module:__ZN8Security12KeychainCore6Access10editAccessERNS_10CssmClient9AclBearerEbPKNS_17AccessCredentialsE
Security:single module:__ZN8Security12KeychainCore6Access21addApplicationToRightElPNS0_18TrustedApplicationE
Security:single module:__ZN8Security12KeychainCore6Access15copyOwnerAndAclERP24cssm_acl_owner_prototypeRmRP19cssm_acl_entry_info
Security:single module:__ZNK8Security12KeychainCore6Access17promptDescriptionEv
Security:single module:__ZN8Security12KeychainCore6Access3addEPNS0_3ACLE
Security:single module:__ZN8Security12KeychainCore6Access8addOwnerEPNS0_3ACLE
Security:single module:__ZN8Security12KeychainCore6Access7compileERK24cssm_acl_owner_prototypemPK19cssm_acl_entry_info
Security:single module:__ZN8Security12KeychainCore6Access5MakerC2ERNS_13CssmAllocatorE
Security:single module:__ZN8Security12KeychainCore6Access5MakerC1ERNS_13CssmAllocatorE
Security:single module:__ZN8Security12KeychainCore6Access5MakerC4ERNS_13CssmAllocatorE
Security:single module:__ZN8Security12KeychainCore6Access5Maker12initialOwnerERNS_22ResourceControlContextEPKNS_17AccessCredentialsE
Security:single module:__ZN8Security12KeychainCore6Access5Maker4credEv
Security:single module:__ZN8Security12KeychainCore18CertificateRequestC2Ei
Security:single module:__ZN8Security12KeychainCore18CertificateRequestC1Ei
Security:single module:__ZN8Security12KeychainCore18CertificateRequestC4Ei
Security:single module:__ZN8Security12KeychainCore18CertificateRequestD2Ev
Security:single module:__ZN8Security12KeychainCore18CertificateRequestD1Ev
Security:single module:__ZN8Security12KeychainCore18CertificateRequestD0Ev
Security:single module:__ZN8Security12KeychainCore18CertificateRequestD4Ev
Security:single module:__ZN8Security12KeychainCore7KeyItemC2ERKNS0_8KeychainERKNS0_10PrimaryKeyERKNS_10CssmClient14DbUniqueRecordE
Security:single module:__ZN8Security12KeychainCore7KeyItemC1ERKNS0_8KeychainERKNS0_10PrimaryKeyERKNS_10CssmClient14DbUniqueRecordE
Security:single module:__ZN8Security12KeychainCore7KeyItemC4ERKNS0_8KeychainERKNS0_10PrimaryKeyERKNS_10CssmClient14DbUniqueRecordE
Security:single module:__ZN8Security12KeychainCore7KeyItemC2ERKNS0_8KeychainERKNS0_10PrimaryKeyE
Security:single module:__ZN8Security12KeychainCore7KeyItemC1ERKNS0_8KeychainERKNS0_10PrimaryKeyE
Security:single module:__ZN8Security12KeychainCore7KeyItemC4ERKNS0_8KeychainERKNS0_10PrimaryKeyE
Security:single module:__ZN8Security12KeychainCore7KeyItemC2ERS1_
Security:single module:__ZN8Security12KeychainCore7KeyItemC1ERS1_
Security:single module:__ZN8Security12KeychainCore7KeyItemC4ERS1_
Security:single module:__ZN8Security12KeychainCore7KeyItemC2ERKNS_10CssmClient3KeyE
Security:single module:__ZN8Security12KeychainCore7KeyItemC1ERKNS_10CssmClient3KeyE
Security:single module:__ZN8Security12KeychainCore7KeyItemC4ERKNS_10CssmClient3KeyE
Security:single module:__ZN8Security12KeychainCore7KeyItemD2Ev
Security:single module:__ZN8Security12KeychainCore7KeyItemD1Ev
Security:single module:__ZN8Security12KeychainCore7KeyItemD0Ev
Security:single module:__ZN8Security12KeychainCore7KeyItemD4Ev
Security:single module:__ZN8Security12KeychainCore7KeyItem6updateEv
Security:single module:__ZN8Security12KeychainCore7KeyItem6copyToERKNS0_8KeychainEPNS0_6AccessE
Security:single module:__ZN8Security12KeychainCore7KeyItem9didModifyEv
Security:single module:__ZN8Security12KeychainCore7KeyItem3addERNS0_8KeychainE
Security:single module:__ZN8Security12KeychainCore7KeyItem16ssDbUniqueRecordEv
Security:single module:__ZN8Security12KeychainCore7KeyItem3keyEv
Security:single module:__ZN8Security12KeychainCore7KeyItem3cspEv
Security:single module:__ZN8Security12KeychainCore7KeyItem19algorithmIdentifierEv
Security:single module:__ZN8Security12KeychainCore7KeyItem14strengthInBitsEPK30cssm_x509_algorithm_identifier
Security:single module:__ZN8Security12KeychainCore7KeyItem14getCredentialsElm
Security:single module:__ZN8Security12KeychainCore7KeyItem10createPairENS0_8KeychainEmmymmmmNS0_10SecPointerINS0_6AccessEEERNS3_IS1_EES7_
Security:single module:__ZN8Security12KeychainCore7KeyItem10importPairENS0_8KeychainERK8cssm_keyS5_NS0_10SecPointerINS0_6AccessEEERNS6_IS1_EESA_
Security:single module:__ZN8Security12KeychainCore7KeyItem8generateENS0_8KeychainEmmymmNS0_10SecPointerINS0_6AccessEEE
Security:single module:__Z10cfKeychainP20OpaqueSecKeychainRef
Security:single module:__Z7convertRKN8Security12KeychainCore10SecPointerINS0_11CertificateEEE
Security:single module:__ZN8Security12KeychainCore5Trust10cssmResultEv
Security:single module:__ZN8Security12KeychainCore5Trust13buildEvidenceERPK9__CFArrayRPNS_14TPEvidenceInfoE
Security:single module:__ZN8Security12KeychainCore5TrustC2EPKvS3_
Security:single module:__ZN8Security12KeychainCore5TrustD0Ev
Security:single module:__ZN8Security12KeychainCore5TrustD2Ev
Security:single module:__ZNK8Security12KeychainCore5Trust14keychainByDLDbERK17cssm_dl_db_handle
Security:single module:__ZN8Security12KeychainCore12PathDatabaseC1EPKc
Security:single module:__ZN8Security12KeychainCore12PathDatabaseC2EPKc
Security:single module:__ZN8Security12KeychainCore12PathDatabaseC4EPKc
Security:single module:__ZN8Security12KeychainCore18TrustedApplication11makeSubjectERNS_13CssmAllocatorE
Security:single module:__ZN8Security12KeychainCore18TrustedApplication13calcSignatureEPKcRNS_13CssmOwnedDataE
Security:single module:__ZN8Security12KeychainCore18TrustedApplication13sameSignatureEPKc
Security:single module:__ZN8Security12KeychainCore18TrustedApplicationC1ERKNS_8CssmDataES4_
Security:single module:__ZN8Security12KeychainCore18TrustedApplicationC1ERKNS_9TypedListE
Security:single module:__ZN8Security12KeychainCore18TrustedApplicationC1Ev
Security:single module:__ZN8Security12KeychainCore18TrustedApplicationC2EPKc
Security:single module:__ZN8Security12KeychainCore18TrustedApplicationC2ERKNS_8CssmDataES4_
Security:single module:__ZN8Security12KeychainCore18TrustedApplicationC2ERKNS_9TypedListE
Security:single module:__ZN8Security12KeychainCore18TrustedApplicationC2Ev
Security:single module:__ZN8Security12KeychainCore18TrustedApplicationC4ERKNS_8CssmDataES4_
Security:single module:__ZN8Security12KeychainCore18TrustedApplicationC4ERKNS_9TypedListE
Security:single module:__ZN8Security12KeychainCore18TrustedApplicationC4Ev
Security:single module:__ZN8Security12KeychainCore18TrustedApplicationD0Ev
Security:single module:__ZN8Security12KeychainCore18TrustedApplicationD1Ev
Security:single module:__ZN8Security12KeychainCore18TrustedApplicationD2Ev
Security:single module:__ZN8Security12KeychainCore18TrustedApplicationD4Ev
Security:single module:__ZN8Security10CssmClient20TPBuildVerifyContextC2EmRNS_13CssmAllocatorE
Security:single module:__ZN8Security10CssmClient6TPImpl3useERNS0_2CLE
Security:single module:__ZN8Security10CssmClient6TPImpl3useERNS0_3CSPE
Security:single module:__ZN8Security10CssmClient6TPImpl6usedCLEv
Security:single module:__ZN8Security10CssmClient6TPImpl7usedCSPEv
Security:single module:__ZN8Security10CssmClient6TPImplC1ERKNS0_6ModuleE
Security:single module:__ZN8Security10CssmClient6TPImplC2ERKNS0_6ModuleE
Security:single module:__ZN8Security10CssmClient6TPImplC2ERKNS_4GuidE
Security:single module:__ZN8Security10CssmClient6TPImplC4ERKNS0_6ModuleE
Security:single module:__ZN8Security10CssmClient6TPImplD1Ev
Security:single module:__ZN8Security10CssmClient6TPImplD2Ev
Security:single module:__ZN8Security10CssmClient14BuildCertGroupC1EmmmRNS_13CssmAllocatorE
Security:single module:__ZN8Security10CssmClient14BuildCertGroupC2EmmmRNS_13CssmAllocatorE
Security:single module:__ZN8Security10CssmClient14BuildCertGroupC4EmmmRNS_13CssmAllocatorE
Security:single module:__ZN8Security10CssmClient6CLImplC1ERKNS0_6ModuleE
Security:single module:__ZN8Security10CssmClient6CLImplC2ERKNS0_6ModuleE
Security:single module:__ZN8Security10CssmClient6CLImplC2ERKNS_4GuidE
Security:single module:__ZN8Security10CssmClient6CLImplC4ERKNS0_6ModuleE
Security:single module:__ZN8Security10CssmClient6CLImplD1Ev
Security:single module:__ZN8Security10CssmClient6CLImplD2Ev
Security:single module:__ZN8Security14TPEvidenceInfo7destroyERNS_13CssmAllocatorE
Security:single module:__ZN8Security18EncodedCertificateC1EmmPK9cssm_data
Security:single module:__ZN8Security18EncodedCertificateC2EmmPK9cssm_data
Security:single module:__ZN8Security18EncodedCertificateC4EmmPK9cssm_data
Security:single module:__ZN8Security9CertGroupC2Emmm
Security:single module:_SecACLGetTypeID
Security:single module:_SecACLCreateFromSimpleContents
Security:single module:_SecACLRemove
Security:single module:__Z7convertRKN8Security12KeychainCore10SecPointerINS0_18TrustedApplicationEEE
Security:single module:_SecACLCopySimpleContents
Security:single module:_SecACLSetSimpleContents
Security:single module:__Z15setApplicationsPN8Security12KeychainCore3ACLEPK9__CFArray
Security:single module:_SecACLGetAuthorizations
Security:single module:_SecACLSetAuthorizations
Security:single module:__ZN8Security12KeychainCore3ACLC2ERNS0_6AccessERKNS_12AclEntryInfoERNS_13CssmAllocatorE
Security:single module:__ZN8Security12KeychainCore3ACLC1ERNS0_6AccessERKNS_12AclEntryInfoERNS_13CssmAllocatorE
Security:single module:__ZN8Security12KeychainCore3ACLC4ERNS0_6AccessERKNS_12AclEntryInfoERNS_13CssmAllocatorE
Security:single module:__ZN8Security12KeychainCore3ACLC2ERNS0_6AccessERKNS_17AclOwnerPrototypeERNS_13CssmAllocatorE
Security:single module:__ZN8Security12KeychainCore3ACLC1ERNS0_6AccessERKNS_17AclOwnerPrototypeERNS_13CssmAllocatorE
Security:single module:__ZN8Security12KeychainCore3ACLC4ERNS0_6AccessERKNS_17AclOwnerPrototypeERNS_13CssmAllocatorE
Security:single module:__ZN8Security12KeychainCore3ACLC2ERNS0_6AccessERNS_13CssmAllocatorE
Security:single module:__ZN8Security12KeychainCore3ACLC1ERNS0_6AccessERNS_13CssmAllocatorE
Security:single module:__ZN8Security12KeychainCore3ACLC4ERNS0_6AccessERNS_13CssmAllocatorE
Security:single module:__ZN8Security12KeychainCore3ACLC2ERNS0_6AccessESsRK33cssm_acl_keychain_prompt_selectorRNS_13CssmAllocatorE
Security:single module:__ZN8Security12KeychainCore3ACLC1ERNS0_6AccessESsRK33cssm_acl_keychain_prompt_selectorRNS_13CssmAllocatorE
Security:single module:__ZN8Security12KeychainCore3ACLC4ERNS0_6AccessESsRK33cssm_acl_keychain_prompt_selectorRNS_13CssmAllocatorE
Security:single module:__ZN8Security12KeychainCore3ACLD2Ev
Security:single module:__ZN8Security12KeychainCore3ACLD1Ev
Security:single module:__ZN8Security12KeychainCore3ACLD0Ev
Security:single module:__ZN8Security12KeychainCore3ACLD4Ev
Security:single module:__ZNK8Security12KeychainCore3ACL10authorizesEl
Security:single module:__ZN8Security12KeychainCore3ACL14addApplicationEPNS0_18TrustedApplicationE
Security:single module:__ZN8Security12KeychainCore3ACL6modifyEv
Security:single module:__ZN8Security12KeychainCore3ACL6removeEv
Security:single module:__ZN8Security12KeychainCore3ACL12copyAclEntryERNS_17AclEntryPrototypeERNS_13CssmAllocatorE
Security:single module:__ZN8Security12KeychainCore3ACL12copyAclOwnerERNS_17AclOwnerPrototypeERNS_13CssmAllocatorE
Security:single module:__ZN8Security12KeychainCore3ACL9setAccessERNS_10CssmClient9AclBearerEbPKNS_17AccessCredentialsE
Security:single module:__ZN8Security12KeychainCore3ACL5parseERKNS_9TypedListE
Security:single module:__ZN8Security12KeychainCore3ACL11parsePromptERKNS_9TypedListE
Security:single module:__ZN8Security12KeychainCore3ACL11makeSubjectEv
Security:single module:__ZN8Security8cfStringEPK10__CFString
Security:single module:__ZN8Security12KeychainCore10TrustStore23getCssmRootCertificatesERNS_9CertGroupE
Security:single module:__ZN8Security12KeychainCore10TrustStore6assignEPNS0_11CertificateEPNS0_6PolicyE18SecTrustResultType
Security:single module:__ZN8Security12KeychainCore10TrustStoreC2ERNS_13CssmAllocatorE
Security:single module:__ZN8Security12KeychainCore10TrustStoreD0Ev
Security:single module:__ZN8Security12KeychainCore10TrustStoreD1Ev
Security:single module:__ZN8Security12KeychainCore10TrustStoreD2Ev
Security:single module:__ZN8Security12KeychainCore10TrustStoreD4Ev
Security:single module:__ZN8Security10CssmClient10AclFactory18AnyResourceContextC1EPK23cssm_access_credentials
Security:single module:__ZN8Security10CssmClient10AclFactory18AnyResourceContextC2EPK23cssm_access_credentials
Security:single module:__ZN8Security10CssmClient10AclFactory18AnyResourceContextC4EPK23cssm_access_credentials
Security:single module:__ZN8Security10CssmClient10AclFactory19KeychainCredentialsD0Ev
Security:single module:__ZN8Security10CssmClient10AclFactory19KeychainCredentialsD1Ev
Security:single module:__ZN8Security10CssmClient10AclFactory19KeychainCredentialsD2Ev
Security:single module:__ZN8Security10CssmClient10AclFactory19KeychainCredentialsD4Ev
Security:single module:__ZN8Security10CssmClient10AclFactory25PasswordChangeCredentialsC1ERKNS_8CssmDataERNS_13CssmAllocatorE
Security:single module:__ZN8Security10CssmClient10AclFactory25PasswordChangeCredentialsC2ERKNS_8CssmDataERNS_13CssmAllocatorE
Security:single module:__ZN8Security10CssmClient10AclFactory25PasswordChangeCredentialsC4ERKNS_8CssmDataERNS_13CssmAllocatorE
Security:single module:__ZN8Security10CssmClient10AclFactory27PassphraseUnlockCredentialsC1ERKNS_8CssmDataERNS_13CssmAllocatorE
Security:single module:__ZN8Security10CssmClient10AclFactory27PassphraseUnlockCredentialsC2ERKNS_8CssmDataERNS_13CssmAllocatorE
Security:single module:__ZN8Security10CssmClient10AclFactory27PassphraseUnlockCredentialsC4ERKNS_8CssmDataERNS_13CssmAllocatorE
Security:single module:__ZN8Security10CssmClient10AclFactoryC2Ev
Security:single module:__ZN8Security10CssmClient10AclFactoryD0Ev
Security:single module:__ZN8Security10CssmClient10AclFactoryD1Ev
Security:single module:__ZN8Security10CssmClient10AclFactoryD2Ev
Security:single module:__ZN8Security10CssmClient10AclFactoryD4Ev
Security:single module:__ZN8Security10CssmClient7StaticsC2Ev
Security:single module:__ZN8Security10CssmClient9AclBearer6addAclERKNS_13AclEntryInputEPK23cssm_access_credentials
Security:single module:__ZN8Security10CssmClient9AclBearer9changeAclEmRKNS_13AclEntryInputEPK23cssm_access_credentials
Security:single module:__ZN8Security10CssmClient9AclBearer9deleteAclEPKcPK23cssm_access_credentials
Security:single module:__ZN8Security10CssmClient9AclBearer9deleteAclEmPK23cssm_access_credentials
Security:single module:__ZN8Security10CssmClient9AclBearerD0Ev
Security:single module:__ZN8Security10CssmClient9AclBearerD1Ev
Security:single module:__ZNK8Security10CssmClient10AclFactory10unlockCredEv
Security:single module:__ZNK8Security10CssmClient10AclFactory8nullCredEv
Security:single module:__ZN8Security12KeychainCore13UserTrustItemC2EPNS0_11CertificateEPNS0_6PolicyERKNS1_9TrustDataE
Security:single module:__ZN8Security12KeychainCore13UserTrustItemC1EPNS0_11CertificateEPNS0_6PolicyERKNS1_9TrustDataE
Security:single module:__ZN8Security12KeychainCore13UserTrustItemC4EPNS0_11CertificateEPNS0_6PolicyERKNS1_9TrustDataE
Security:single module:__ZN8Security12KeychainCore13UserTrustItemD2Ev
Security:single module:__ZN8Security12KeychainCore13UserTrustItemD1Ev
Security:single module:__ZN8Security12KeychainCore13UserTrustItemD0Ev
Security:single module:__ZN8Security12KeychainCore13UserTrustItemD4Ev
Security:single module:__ZN8Security12KeychainCore13UserTrustItem5trustEv
Security:single module:__ZN8Security12KeychainCore13UserTrustItem3addERNS0_8KeychainE
Security:single module:__ZN8Security12KeychainCore13UserTrustItem18populateAttributesEv
Security:single module:__ZN8Security10IPPlusPlus7FdMover7ElementnwEmm
Security:single module:__ZN8Security10IPPlusPlus7FdMover7ElementdlEPvm
Security:single module:__ZN8Security10IPPlusPlus7FdMover7ElementC2Eii
Security:single module:__ZN8Security10IPPlusPlus7FdMover7ElementC1Eii
Security:single module:__ZN8Security10IPPlusPlus7FdMover7ElementC4Eii
Security:single module:__ZN8Security10IPPlusPlus7FdMover7MessageC2EPKvm
Security:single module:__ZN8Security10IPPlusPlus7FdMover7MessageC1EPKvm
Security:single module:__ZN8Security10IPPlusPlus7FdMover7MessageC4EPKvm
Security:single module:__ZN8Security10IPPlusPlus7FdMover7Message3setEPNS1_7ElementE
Security:single module:__ZN8Security10IPPlusPlus7FdMover4sendEPKvmRKSt6vectorINS_12UnixPlusPlus8FileDescESaIS6_EE
Security:single module:__ZN8Security10IPPlusPlus7FdMover7receiveEPvmRSt6vectorINS_12UnixPlusPlus8FileDescESaIS5_EE
Security:single module:_AuthorizationBindPrivilegedPort
Security:single module:__Z11startServerv
Security:single module:___authorization_bind
Security:single module:__ZN8Security12UnixPlusPlus6UnixDb4openEPKcii6DBTYPE
Security:single module:__ZN8Security12UnixPlusPlus6UnixDb4openERKSsii6DBTYPE
Security:single module:__ZN8Security12UnixPlusPlus6UnixDb5closeEv
Security:single module:__ZN8Security12UnixPlusPlus6UnixDb5eraseERKNS_8CssmDataEi
Security:single module:__ZN8Security12UnixPlusPlus6UnixDbC1EPKcii6DBTYPE
Security:single module:__ZN8Security12UnixPlusPlus6UnixDbC1ERKSsii6DBTYPE
Security:single module:__ZN8Security12UnixPlusPlus6UnixDbC1Ev
Security:single module:__ZN8Security12UnixPlusPlus6UnixDbC2EPKcii6DBTYPE
Security:single module:__ZN8Security12UnixPlusPlus6UnixDbC2ERKSsii6DBTYPE
Security:single module:__ZN8Security12UnixPlusPlus6UnixDbC2Ev
Security:single module:__ZN8Security12UnixPlusPlus6UnixDbC4EPKcii6DBTYPE
Security:single module:__ZN8Security12UnixPlusPlus6UnixDbC4ERKSsii6DBTYPE
Security:single module:__ZN8Security12UnixPlusPlus6UnixDbC4Ev
Security:single module:__ZN8Security12UnixPlusPlus6UnixDbD0Ev
Security:single module:__ZN8Security12UnixPlusPlus6UnixDbD1Ev
Security:single module:__ZN8Security12UnixPlusPlus6UnixDbD2Ev
Security:single module:__ZN8Security12UnixPlusPlus6UnixDbD4Ev
Security:single module:__ZNK8Security12UnixPlusPlus6UnixDb3getERKNS_8CssmDataERNS_13CssmOwnedDataEi
Security:single module:__ZNK8Security12UnixPlusPlus6UnixDb4nextERNS_8CssmDataES3_i
Security:single module:_SecKeychainAddIToolsPassword
Security:single module:_createAccess
Security:single module:_CopyTrustedAppListFromBundle
Security:single module:__Unwind_FindEnclosingFunction
Security:single module:__Unwind_ForcedUnwind
Security:single module:__Unwind_ForcedUnwind_Phase2
Security:single module:__Unwind_GetDataRelBase
Security:single module:__Unwind_GetGR
Security:single module:__Unwind_GetTextRelBase
Security:single module:___frame_state_for
Security:single module:_execute_stack_op
Security:single module:__ZN10__cxxabiv117__class_type_infoD0Ev
Security:single module:__ZN10__cxxabiv117__class_type_infoD1Ev
Security:single module:__ZN10__cxxabiv117__class_type_infoD2Ev
Security:single module:__ZN10__cxxabiv117__class_type_infoD4Ev
Security:single module:__ZN10__cxxabiv120__si_class_type_infoD0Ev
Security:single module:__ZN10__cxxabiv120__si_class_type_infoD1Ev
Security:single module:__ZN10__cxxabiv120__si_class_type_infoD2Ev
Security:single module:__ZN10__cxxabiv120__si_class_type_infoD4Ev
Security:single module:__ZN10__cxxabiv121__vmi_class_type_infoD0Ev
Security:single module:__ZN10__cxxabiv121__vmi_class_type_infoD1Ev
Security:single module:__ZN10__cxxabiv121__vmi_class_type_infoD2Ev
Security:single module:__ZN10__cxxabiv121__vmi_class_type_infoD4Ev
Security:single module:__ZNK10__cxxabiv117__class_type_info20__do_find_public_srcEiPKvPKS0_S2_
Security:single module:__ZNK10__cxxabiv120__si_class_type_info20__do_find_public_srcEiPKvPKNS_17__class_type_infoES2_
Security:single module:__ZNK10__cxxabiv121__vmi_class_type_info11__do_upcastEPKNS_17__class_type_infoEPKvRNS1_15__upcast_resultE
Security:single module:__ZNK10__cxxabiv121__vmi_class_type_info20__do_find_public_srcEiPKvPKNS_17__class_type_infoES2_
Security:single module:__ZNKSt9type_info10__do_catchEPKS_PPvj
Security:single module:__ZNKSt9type_info11__do_upcastEPKN10__cxxabiv117__class_type_infoEPPv
Security:single module:__ZNKSt9type_info15__is_function_pEv
Security:single module:__ZNSt10bad_typeidD0Ev
Security:single module:__ZNSt10bad_typeidD1Ev
Security:single module:__ZNSt10bad_typeidD2Ev
Security:single module:__ZNSt10bad_typeidD4Ev
Security:single module:__ZNSt8bad_castD0Ev
Security:single module:__ZNSt8bad_castD1Ev
Security:single module:__ZNSt8bad_castD2Ev
Security:single module:__ZNSt8bad_castD4Ev
Security:single module:__ZNSt9type_infoD0Ev
Security:single module:__ZNSt9type_infoD1Ev
Security:single module:__ZNSt9type_infoD2Ev
Security:single module:__ZNSt9type_infoD4Ev
Security:single module:___cxa_bad_cast
Security:single module:___cxa_bad_typeid
Security:single module:___cxa_pure_virtual
Security:single module:__Z20check_exception_specP16lsda_header_infoPKSt9type_infoPvi
Security:single module:___cxa_call_unexpected
Security:single module:__ZSt18uncaught_exceptionv
Security:single module:__ZNKSaIcE7addressERKc
Security:single module:__ZNKSaIcE7addressERc
Security:single module:__ZNKSaIcE8max_sizeEv
Security:single module:__ZNKSaIwE7addressERKw
Security:single module:__ZNKSaIwE7addressERw
Security:single module:__ZNKSaIwE8max_sizeEv
Security:single module:__ZNSaIcE10deallocateEPcm
Security:single module:__ZNSaIcE7destroyEPc
Security:single module:__ZNSaIcE8allocateEmPKv
Security:single module:__ZNSaIcE9constructEPcRKc
Security:single module:__ZNSaIcEC1ERKS_
Security:single module:__ZNSaIcEC1Ev
Security:single module:__ZNSaIcEC2ERKS_
Security:single module:__ZNSaIcEC2Ev
Security:single module:__ZNSaIcEC4ERKS_
Security:single module:__ZNSaIcEC4Ev
Security:single module:__ZNSaIcED1Ev
Security:single module:__ZNSaIcED2Ev
Security:single module:__ZNSaIcED4Ev
Security:single module:__ZNSaIwE10deallocateEPwm
Security:single module:__ZNSaIwE7destroyEPw
Security:single module:__ZNSaIwE8allocateEmPKv
Security:single module:__ZNSaIwE9constructEPwRKw
Security:single module:__ZNSaIwEC1ERKS_
Security:single module:__ZNSaIwEC1Ev
Security:single module:__ZNSaIwEC2ERKS_
Security:single module:__ZNSaIwEC2Ev
Security:single module:__ZNSaIwEC4ERKS_
Security:single module:__ZNSaIwEC4Ev
Security:single module:__ZNSaIwED1Ev
Security:single module:__ZNSaIwED2Ev
Security:single module:__ZNSaIwED4Ev
Security:single module:__ZNSt24__default_alloc_templateILb1ELi0EE10reallocateEPvmm
Security:single module:__ZNSt24__default_alloc_templateILb1ELi0EE11_S_round_upEm
Security:single module:__ZNSt24__default_alloc_templateILb1ELi0EE17_S_freelist_indexEm
Security:single module:__ZNSt24__default_alloc_templateILb1ELi0EE5_LockC1Ev
Security:single module:__ZNSt24__default_alloc_templateILb1ELi0EE5_LockC2Ev
Security:single module:__ZNSt24__default_alloc_templateILb1ELi0EE5_LockD1Ev
Security:single module:__ZNSt24__default_alloc_templateILb1ELi0EE5_LockD2Ev
Security:single module:__ZSt21__throw_bad_exceptionv
Security:single module:__ZSt17__throw_bad_allocv
Security:single module:__ZSt16__throw_bad_castv
Security:single module:__ZSt18__throw_bad_typeidv
Security:single module:__ZSt19__throw_logic_errorPKc
Security:single module:__ZSt20__throw_domain_errorPKc
Security:single module:__ZSt24__throw_invalid_argumentPKc
Security:single module:__ZSt20__throw_length_errorPKc
Security:single module:__ZSt20__throw_out_of_rangePKc
Security:single module:__ZSt21__throw_runtime_errorPKc
Security:single module:__ZSt19__throw_range_errorPKc
Security:single module:__ZSt22__throw_overflow_errorPKc
Security:single module:__ZSt23__throw_underflow_errorPKc
Security:single module:__ZN10__cxxabiv111__terminateEPFvvE
Security:single module:__ZSt9terminatev
Security:single module:__ZN10__cxxabiv112__unexpectedEPFvvE
Security:single module:__ZSt10unexpectedv
Security:single module:__ZSt13set_terminatePFvvE
Security:single module:__ZSt14set_unexpectedPFvvE
Security:single module:__ZN9__gnu_cxxeqIPKcSsEEbRKNS_17__normal_iteratorIT_T0_EES8_
Security:single module:__ZN9__gnu_cxxeqIPcSsEEbRKNS_17__normal_iteratorIT_T0_EES7_
Security:single module:__ZNKSs12find_last_ofEPKcm
Security:single module:__ZNKSs12find_last_ofEPKcmm
Security:single module:__ZNKSs12find_last_ofERKSsm
Security:single module:__ZNKSs12find_last_ofEcm
Security:single module:__ZNKSs13find_first_ofEPKcm
Security:single module:__ZNKSs13find_first_ofEPKcmm
Security:single module:__ZNKSs13find_first_ofERKSsm
Security:single module:__ZNKSs13find_first_ofEcm
Security:single module:__ZNKSs16find_last_not_ofEPKcm
Security:single module:__ZNKSs16find_last_not_ofEPKcmm
Security:single module:__ZNKSs16find_last_not_ofERKSsm
Security:single module:__ZNKSs16find_last_not_ofEcm
Security:single module:__ZNKSs17find_first_not_ofEPKcm
Security:single module:__ZNKSs17find_first_not_ofEPKcmm
Security:single module:__ZNKSs17find_first_not_ofERKSsm
Security:single module:__ZNKSs17find_first_not_ofEcm
Security:single module:__ZNKSs2atEm
Security:single module:__ZNKSs3endEv
Security:single module:__ZNKSs4_Rep12_M_is_leakedEv
Security:single module:__ZNKSs4_Rep12_M_is_sharedEv
Security:single module:__ZNKSs4copyEPcmm
Security:single module:__ZNKSs4dataEv
Security:single module:__ZNKSs4findEPKcm
Security:single module:__ZNKSs4findERKSsm
Security:single module:__ZNKSs4findEcm
Security:single module:__ZNKSs4rendEv
Security:single module:__ZNKSs4sizeEv
Security:single module:__ZNKSs5beginEv
Security:single module:__ZNKSs5c_strEv
Security:single module:__ZNKSs5emptyEv
Security:single module:__ZNKSs5rfindEPKcm
Security:single module:__ZNKSs5rfindEPKcmm
Security:single module:__ZNKSs5rfindERKSsm
Security:single module:__ZNKSs6_M_repEv
Security:single module:__ZNKSs6lengthEv
Security:single module:__ZNKSs6rbeginEv
Security:single module:__ZNKSs6substrEmm
Security:single module:__ZNKSs7_M_dataEv
Security:single module:__ZNKSs7compareEPKc
Security:single module:__ZNKSs7compareEmmPKc
Security:single module:__ZNKSs7compareEmmPKcm
Security:single module:__ZNKSs7compareEmmRKSs
Security:single module:__ZNKSs7compareEmmRKSsmm
Security:single module:__ZNKSs8capacityEv
Security:single module:__ZNKSs8max_sizeEv
Security:single module:__ZNKSsixEm
Security:single module:__ZNSs10_M_replaceIN9__gnu_cxx17__normal_iteratorIPKcSsEEEERSsNS1_IPcSsEES7_T_S8_St18input_iterator_tag
Security:single module:__ZNSs10_M_replaceIN9__gnu_cxx17__normal_iteratorIPcSsEEEERSsS3_S3_T_S5_St18input_iterator_tag
Security:single module:__ZNSs10_M_replaceIPKcEERSsN9__gnu_cxx17__normal_iteratorIPcSsEES6_T_S7_St18input_iterator_tag
Security:single module:__ZNSs10_M_replaceIPcEERSsN9__gnu_cxx17__normal_iteratorIS0_SsEES4_T_S5_St18input_iterator_tag
Security:single module:__ZNSs12_Alloc_hiderC1EPcRKSaIcE
Security:single module:__ZNSs12_Alloc_hiderC2EPcRKSaIcE
Security:single module:__ZNSs12_M_leak_hardEv
Security:single module:__ZNSs12_S_constructEmcRKSaIcE
Security:single module:__ZNSs12_S_constructIN9__gnu_cxx17__normal_iteratorIPKcSsEEEEPcT_S6_RKSaIcESt20forward_iterator_tag
Security:single module:__ZNSs12_S_constructIPcEES0_T_S1_RKSaIcESt20forward_iterator_tag
Security:single module:__ZNSs12_S_empty_repEv
Security:single module:__ZNSs13_S_copy_charsEPcN9__gnu_cxx17__normal_iteratorIPKcSsEES4_
Security:single module:__ZNSs13_S_copy_charsEPcPKcS1_
Security:single module:__ZNSs13_S_copy_charsEPcS_S_
Security:single module:__ZNSs15_M_replace_safeIN9__gnu_cxx17__normal_iteratorIPKcSsEEEERSsNS1_IPcSsEES7_T_S8_
Security:single module:__ZNSs15_M_replace_safeIPcEERSsN9__gnu_cxx17__normal_iteratorIS0_SsEES4_T_S5_
Security:single module:__ZNSs2atEm
Security:single module:__ZNSs3endEv
Security:single module:__ZNSs4_Rep10_M_disposeERKSaIcE
Security:single module:__ZNSs4_Rep10_M_refcopyEv
Security:single module:__ZNSs4_Rep10_M_refdataEv
Security:single module:__ZNSs4_Rep13_M_set_leakedEv
Security:single module:__ZNSs4_Rep15_M_set_sharableEv
Security:single module:__ZNSs4_RepixEm
Security:single module:__ZNSs4rendEv
Security:single module:__ZNSs4swapERSs
Security:single module:__ZNSs5beginEv
Security:single module:__ZNSs5clearEv
Security:single module:__ZNSs5eraseEN9__gnu_cxx17__normal_iteratorIPcSsEE
Security:single module:__ZNSs5eraseEN9__gnu_cxx17__normal_iteratorIPcSsEES2_
Security:single module:__ZNSs5eraseEmm
Security:single module:__ZNSs6appendEPKc
Security:single module:__ZNSs6appendEPKcm
Security:single module:__ZNSs6appendERKSsmm
Security:single module:__ZNSs6appendEmc
Security:single module:__ZNSs6assignEPKc
Security:single module:__ZNSs6assignERKSsmm
Security:single module:__ZNSs6assignEmc
Security:single module:__ZNSs6insertEN9__gnu_cxx17__normal_iteratorIPcSsEEc
Security:single module:__ZNSs6insertEN9__gnu_cxx17__normal_iteratorIPcSsEEmc
Security:single module:__ZNSs6insertEmPKc
Security:single module:__ZNSs6insertEmPKcm
Security:single module:__ZNSs6insertEmRKSs
Security:single module:__ZNSs6insertEmRKSsmm
Security:single module:__ZNSs6insertEmmc
Security:single module:__ZNSs6rbeginEv
Security:single module:__ZNSs6resizeEm
Security:single module:__ZNSs6resizeEmc
Security:single module:__ZNSs7_M_dataEPc
Security:single module:__ZNSs7_M_leakEv
Security:single module:__ZNSs7replaceEN9__gnu_cxx17__normal_iteratorIPcSsEES2_NS0_IPKcSsEES5_
Security:single module:__ZNSs7replaceEN9__gnu_cxx17__normal_iteratorIPcSsEES2_PKc
Security:single module:__ZNSs7replaceEN9__gnu_cxx17__normal_iteratorIPcSsEES2_PKcm
Security:single module:__ZNSs7replaceEN9__gnu_cxx17__normal_iteratorIPcSsEES2_RKSs
Security:single module:__ZNSs7replaceEN9__gnu_cxx17__normal_iteratorIPcSsEES2_S1_S1_
Security:single module:__ZNSs7replaceEN9__gnu_cxx17__normal_iteratorIPcSsEES2_S2_S2_
Security:single module:__ZNSs7replaceEN9__gnu_cxx17__normal_iteratorIPcSsEES2_mc
Security:single module:__ZNSs7replaceEmmPKc
Security:single module:__ZNSs7replaceEmmRKSs
Security:single module:__ZNSs7replaceEmmRKSsmm
Security:single module:__ZNSs7replaceEmmmc
Security:single module:__ZNSs9push_backEc
Security:single module:__ZNSsC1ERKSaIcE
Security:single module:__ZNSsC1ERKSsmmRKSaIcE
Security:single module:__ZNSsC1EmcRKSaIcE
Security:single module:__ZNSsC1Ev
Security:single module:__ZNSsC1IN9__gnu_cxx17__normal_iteratorIPKcSsEEEET_S5_RKSaIcE
Security:single module:__ZNSsC1IN9__gnu_cxx17__normal_iteratorIPcSsEEEET_S4_RKSaIcE
Security:single module:__ZNSsC1IPKcEET_S2_RKSaIcE
Security:single module:__ZNSsC1IPcEET_S1_RKSaIcE
Security:single module:__ZNSsC2EPKcRKSaIcE
Security:single module:__ZNSsC2EPKcmRKSaIcE
Security:single module:__ZNSsC2ERKSaIcE
Security:single module:__ZNSsC2ERKSs
Security:single module:__ZNSsC2ERKSsmm
Security:single module:__ZNSsC2ERKSsmmRKSaIcE
Security:single module:__ZNSsC2EmcRKSaIcE
Security:single module:__ZNSsC2Ev
Security:single module:__ZNSsC2IN9__gnu_cxx17__normal_iteratorIPKcSsEEEET_S5_RKSaIcE
Security:single module:__ZNSsC2IN9__gnu_cxx17__normal_iteratorIPcSsEEEET_S4_RKSaIcE
Security:single module:__ZNSsC2IPKcEET_S2_RKSaIcE
Security:single module:__ZNSsC2IPcEET_S1_RKSaIcE
Security:single module:__ZNSsC4ERKSaIcE
Security:single module:__ZNSsC4ERKSsmmRKSaIcE
Security:single module:__ZNSsC4EmcRKSaIcE
Security:single module:__ZNSsC4IN9__gnu_cxx17__normal_iteratorIPKcSsEEEET_S5_RKSaIcE
Security:single module:__ZNSsC4IN9__gnu_cxx17__normal_iteratorIPcSsEEEET_S4_RKSaIcE
Security:single module:__ZNSsC4IPKcEET_S2_RKSaIcE
Security:single module:__ZNSsC4IPcEET_S1_RKSaIcE
Security:single module:__ZNSsD1Ev
Security:single module:__ZNSsD2Ev
Security:single module:__ZNSsD4Ev
Security:single module:__ZNSsaSEPKc
Security:single module:__ZNSsaSERKSs
Security:single module:__ZNSsaSEc
Security:single module:__ZNSsixEm
Security:single module:__ZNSspLEPKc
Security:single module:__ZNSspLERKSs
Security:single module:__ZNSspLEc
Security:single module:__ZSt13__destroy_auxIPSsEvT_S1_12__false_type
Security:single module:__ZStplIcSt11char_traitsIcESaIcEESbIT_T0_T1_ES3_RKS6_
Security:single module:___cxa_rethrow
Security:single module:__ZSt15set_new_handlerPFvvE
Security:single module:__ZNSt9bad_allocD2Ev
Security:single module:__ZNSt9bad_allocD1Ev
Security:single module:__ZNSt9bad_allocD0Ev
Security:single module:__ZNSt9bad_allocD4Ev
Security:single module:__ZNKSt9type_info6beforeERKS_
Security:single module:__ZN10__cxxabiv123__fundamental_type_infoD2Ev
Security:single module:__ZN10__cxxabiv123__fundamental_type_infoD1Ev
Security:single module:__ZN10__cxxabiv123__fundamental_type_infoD0Ev
Security:single module:__ZN10__cxxabiv123__fundamental_type_infoD4Ev
Security:single module:__ZN10__cxxabiv117__array_type_infoD2Ev
Security:single module:__ZN10__cxxabiv117__array_type_infoD1Ev
Security:single module:__ZN10__cxxabiv117__array_type_infoD0Ev
Security:single module:__ZN10__cxxabiv117__array_type_infoD4Ev
Security:single module:__ZN10__cxxabiv120__function_type_infoD2Ev
Security:single module:__ZN10__cxxabiv120__function_type_infoD1Ev
Security:single module:__ZN10__cxxabiv120__function_type_infoD0Ev
Security:single module:__ZN10__cxxabiv120__function_type_infoD4Ev
Security:single module:__ZN10__cxxabiv116__enum_type_infoD2Ev
Security:single module:__ZN10__cxxabiv116__enum_type_infoD1Ev
Security:single module:__ZN10__cxxabiv116__enum_type_infoD0Ev
Security:single module:__ZN10__cxxabiv116__enum_type_infoD4Ev
Security:single module:__ZN10__cxxabiv117__pbase_type_infoD2Ev
Security:single module:__ZN10__cxxabiv117__pbase_type_infoD1Ev
Security:single module:__ZN10__cxxabiv117__pbase_type_infoD0Ev
Security:single module:__ZN10__cxxabiv117__pbase_type_infoD4Ev
Security:single module:__ZN10__cxxabiv119__pointer_type_infoD2Ev
Security:single module:__ZN10__cxxabiv119__pointer_type_infoD1Ev
Security:single module:__ZN10__cxxabiv119__pointer_type_infoD0Ev
Security:single module:__ZN10__cxxabiv119__pointer_type_infoD4Ev
Security:single module:__ZN10__cxxabiv129__pointer_to_member_type_infoD2Ev
Security:single module:__ZN10__cxxabiv129__pointer_to_member_type_infoD1Ev
Security:single module:__ZN10__cxxabiv129__pointer_to_member_type_infoD0Ev
Security:single module:__ZN10__cxxabiv129__pointer_to_member_type_infoD4Ev
Security:single module:__ZNK10__cxxabiv119__pointer_type_info14__is_pointer_pEv
Security:single module:__ZNK10__cxxabiv120__function_type_info15__is_function_pEv
Security:single module:__ZNK10__cxxabiv117__pbase_type_info10__do_catchEPKSt9type_infoPPvj
Security:single module:__ZNK10__cxxabiv119__pointer_type_info15__pointer_catchEPKNS_17__pbase_type_infoEPPvj
Security:single module:__ZNK10__cxxabiv129__pointer_to_member_type_info15__pointer_catchEPKNS_17__pbase_type_infoEPPvj
Security:single module:___isctype
Security:single module:_cp_demangle
Security:single module:_demangle_CV_qualifiers
Security:single module:_demangle_array_type
Security:single module:_demangle_bare_function_type
Security:single module:_demangle_call_offset
Security:single module:_demangle_char
Security:single module:_demangle_ctor_dtor_name
Security:single module:_demangle_discriminator
Security:single module:_demangle_encoding
Security:single module:_demangle_expr_primary
Security:single module:_demangle_expression
Security:single module:_demangle_function_type
Security:single module:_demangle_literal
Security:single module:_demangle_local_name
Security:single module:_demangle_mangled_name
Security:single module:_demangle_nested_name
Security:single module:_demangle_nv_offset
Security:single module:_demangle_operator_name
Security:single module:_demangle_prefix
Security:single module:_demangle_scope_expression
Security:single module:_demangle_special_name
Security:single module:_demangle_substitution
Security:single module:_demangle_template_arg
Security:single module:_demangle_template_args
Security:single module:_demangle_template_param
Security:single module:_demangle_v_offset
Security:single module:_int_to_dyn_string
Security:single module:_push_template_arg_list
Security:single module:_result_add_separated_char
Security:single module:_result_get_caret
Security:single module:_result_previous_char_is_space
Security:single module:_result_set_caret
Security:single module:_result_shift_caret
Security:single module:_substitution_get
Security:single module:_template_arg_list_add_arg
Security:single module:_template_arg_list_delete
Security:single module:_template_arg_list_get_arg
Security:single module:_template_arg_list_new
Security:single module:__ZNKSt9exception4whatEv
Security:single module:__ZNSt13bad_exceptionD0Ev
Security:single module:__ZNSt13bad_exceptionD1Ev
Security:single module:__ZNSt13bad_exceptionD2Ev
Security:single module:__ZNSt13bad_exceptionD4Ev
Security:single module:__ZNSt9exceptionD0Ev
Security:single module:__ZNSt9exceptionD1Ev
Security:single module:__ZNSt11logic_errorC2ERKSs
Security:single module:__ZNSt11logic_errorC1ERKSs
Security:single module:__ZNSt11logic_errorC4ERKSs
Security:single module:__ZNSt11logic_errorD2Ev
Security:single module:__ZNSt11logic_errorD1Ev
Security:single module:__ZNSt11logic_errorD0Ev
Security:single module:__ZNSt11logic_errorD4Ev
Security:single module:__ZNKSt11logic_error4whatEv
Security:single module:__ZNSt12domain_errorC2ERKSs
Security:single module:__ZNSt12domain_errorC1ERKSs
Security:single module:__ZNSt12domain_errorC4ERKSs
Security:single module:__ZNSt16invalid_argumentC2ERKSs
Security:single module:__ZNSt16invalid_argumentC1ERKSs
Security:single module:__ZNSt16invalid_argumentC4ERKSs
Security:single module:__ZNSt12length_errorC2ERKSs
Security:single module:__ZNSt12length_errorC1ERKSs
Security:single module:__ZNSt12length_errorC4ERKSs
Security:single module:__ZNSt12out_of_rangeC2ERKSs
Security:single module:__ZNSt12out_of_rangeC1ERKSs
Security:single module:__ZNSt12out_of_rangeC4ERKSs
Security:single module:__ZNSt13runtime_errorC2ERKSs
Security:single module:__ZNSt13runtime_errorC1ERKSs
Security:single module:__ZNSt13runtime_errorC4ERKSs
Security:single module:__ZNSt13runtime_errorD2Ev
Security:single module:__ZNSt13runtime_errorD1Ev
Security:single module:__ZNSt13runtime_errorD0Ev
Security:single module:__ZNSt13runtime_errorD4Ev
Security:single module:__ZNKSt13runtime_error4whatEv
Security:single module:__ZNSt11range_errorC2ERKSs
Security:single module:__ZNSt11range_errorC1ERKSs
Security:single module:__ZNSt11range_errorC4ERKSs
Security:single module:__ZNSt14overflow_errorC2ERKSs
Security:single module:__ZNSt14overflow_errorC1ERKSs
Security:single module:__ZNSt14overflow_errorC4ERKSs
Security:single module:__ZNSt15underflow_errorC2ERKSs
Security:single module:__ZNSt15underflow_errorC1ERKSs
Security:single module:__ZNSt15underflow_errorC4ERKSs
Security:single module:__ZN11SecNssCoder10encodeItemEPKvPK23sec_ASN1Template_structR9cssm_data
Security:single module:__ZN11SecNssCoderC2Ej
Security:single module:__ZN11SecNssCoderD2Ev
Security:single module:___fixdfdi
Security:single module:___floatdidf
Security:single module:__ZN11AppleFileDLC2Ev
Security:single module:__ZN11AppleFileDLD0Ev
Security:single module:__ZN11AppleFileDLD1Ev
Security:single module:__ZN11AppleFileDLD2Ev
Security:single module:__ZN11AppleFileDLD4Ev
Security:single module:__ZN11AppleX509CLC2Ev
Security:single module:__ZN11AppleX509CLD0Ev
Security:single module:__ZN11AppleX509CLD1Ev
Security:single module:__ZN11AppleX509CLD2Ev
Security:single module:__ZN11AppleX509CLD4Ev
Security:single module:__ZN11CSPDLPluginC2Ev
Security:single module:__ZN11CSPDLPluginD0Ev
Security:single module:__ZN11CSPDLPluginD1Ev
Security:single module:__ZN11CSPDLPluginD2Ev
Security:single module:__ZN11CSPDLPluginD4Ev
Security:single module:__ZN13YarrowContext4initERKN8Security7ContextEb
Security:single module:__ZN13YarrowContext5finalERN8Security8CssmDataE
Security:single module:__ZN13YarrowContextC1ER15AppleCSPSession
Security:single module:__ZN13YarrowContextC2ER15AppleCSPSession
Security:single module:__ZN13YarrowContextC4ER15AppleCSPSession
Security:single module:__ZN13YarrowContextD0Ev
Security:single module:__ZN13YarrowContextD1Ev
Security:single module:__ZN13YarrowContextD2Ev
Security:single module:__ZN13YarrowContextD4Ev
Security:single module:__ZN14AppleCSPPluginC2Ev
Security:single module:__ZN14AppleCSPPluginD0Ev
Security:single module:__ZN14AppleCSPPluginD1Ev
Security:single module:__ZN14AppleCSPPluginD2Ev
Security:single module:__ZN14AppleCSPPluginD4Ev
Security:single module:__ZN15AppleCSPSession10addEntropyEmPKh
Security:single module:__ZN15AppleCSPSession11PassThroughEyRKN8Security7ContextEmPKvPPv
Security:single module:__ZN15AppleCSPSession14getRandomBytesEmPh
Security:single module:__ZN15AppleCSPSession5setupERPN8Security20CSPFullPluginSession10CSPContextERKNS0_7ContextE
Security:single module:__ZN15AppleCSPSessionC2EmR14AppleCSPPluginRK12cssm_versionmmmRK12cssm_upcalls
Security:single module:__ZN15AppleCSPSessionD1Ev
Security:single module:__ZN15AppleCSPSessionD2Ev
Security:single module:__ZN7AppleTPC2Ev
Security:single module:__ZN7AppleTPD0Ev
Security:single module:__ZN7AppleTPD1Ev
Security:single module:__ZN7AppleTPD2Ev
Security:single module:__ZN7AppleTPD4Ev
Security:single module:_getField_Unimplemented
Security:single module:_setFieldUnknownExt
Security:single module:_setField_AlgIdNSS
Security:single module:_setField_ReadOnly
Security:single module:_setField_TimeNSS
Security:single module:_tbsSetCheck
Security:single module:___deregister_frame
Security:single module:___deregister_frame_info
Security:single module:___deregister_frame_info_bases
Security:single module:___register_frame
Security:single module:___register_frame_info
Security:single module:___register_frame_info_bases
Security:single module:___register_frame_info_table
Security:single module:___register_frame_info_table_bases
Security:single module:___register_frame_table
Security:single module:_fde_mixed_encoding_compare
Security:single module:_fde_unencoded_compare
Security:single module:_linear_search_fdes
Security:single module:_live_image_destructor
Security:single module:rest_world
Security:single module:___cxa_dyn_string_append
Security:single module:___cxa_dyn_string_append_cstr
Security:single module:___cxa_dyn_string_copy_cstr
Security:single module:___cxa_dyn_string_eq
Security:single module:___cxa_dyn_string_prepend
Security:single module:___cxa_dyn_string_prepend_cstr
Security:single module:___cxa_dyn_string_release
Security:single module:_NSS_Get_SEC_AnyTemplate
Security:single module:_NSS_Get_SEC_BMPStringTemplate
Security:single module:_NSS_Get_SEC_BooleanTemplate
Security:single module:_NSS_Get_SEC_BitStringTemplate
Security:single module:_NSS_Get_SEC_IA5StringTemplate
Security:single module:_NSS_Get_SEC_GeneralizedTimeTemplate
Security:single module:_NSS_Get_SEC_IntegerTemplate
Security:single module:_NSS_Get_SEC_NullTemplate
Security:single module:_NSS_Get_SEC_ObjectIDTemplate
Security:single module:_NSS_Get_SEC_OctetStringTemplate
Security:single module:_NSS_Get_SEC_PointerToAnyTemplate
Security:single module:_NSS_Get_SEC_PointerToOctetStringTemplate
Security:single module:_NSS_Get_SEC_SetOfAnyTemplate
Security:single module:_NSS_Get_SEC_UTCTimeTemplate
Security:single module:_NSS_Get_SEC_UTF8StringTemplate
Security:single module:_NSS_PutEnv
Security:single module:_PORT_Alloc
Security:single module:_PORT_ArenaGrow
Security:single module:_PORT_ArenaStrdup
Security:single module:_PORT_ArenaUnmark
Security:single module:_PORT_Free
Security:single module:_PORT_GetError
Security:single module:_PORT_Realloc
Security:single module:_PORT_SetError
Security:single module:_PORT_SetUCS2_ASCIIConversionFunction
Security:single module:_PORT_SetUCS2_UTF8ConversionFunction
Security:single module:_PORT_SetUCS4_UTF8ConversionFunction
Security:single module:_PORT_Strdup
Security:single module:_PORT_UCS2_ASCIIConversion
Security:single module:_PORT_UCS2_UTF8Conversion
Security:single module:_PORT_UCS4_UTF8Conversion
Security:single module:_PR_GetError
Security:single module:_PR_GetOSError
Security:single module:_PR_Realloc
Security:single module:_PR_SetError
Security:single module:_PR_getThreadErrInfo
Security:single module:_PR_initThreadKey
Security:single module:_SEC_ASN1DecodeInteger
Security:single module:_SEC_ASN1DecodeItem
Security:single module:_SEC_ASN1DecoderClearFilterProc
Security:single module:_SEC_ASN1DecoderClearNotifyProc
Security:single module:_SEC_ASN1DecoderSetFilterProc
Security:single module:_SEC_ASN1DecoderSetNotifyProc
Security:single module:_sec_asn1d_after_choice
Security:single module:_sec_asn1d_before_choice
Security:single module:_sec_asn1d_during_choice
Security:single module:_sec_asn1d_parse_end_of_contents
Security:single module:_sec_asn1d_parse_more_identifier
Security:single module:_sec_asn1d_uinteger
Security:single module:_SEC_ASN1EncodeInteger
Security:single module:_SEC_ASN1EncodeItem
Security:single module:_SEC_ASN1EncodeUnsignedInteger
Security:single module:_SEC_ASN1EncoderClearNotifyProc
Security:single module:_SEC_ASN1EncoderClearStreaming
Security:single module:_SEC_ASN1EncoderClearTakeFromBuf
Security:single module:_SEC_ASN1EncoderSetNotifyProc
Security:single module:_SEC_ASN1EncoderSetStreaming
Security:single module:_SEC_ASN1EncoderSetTakeFromBuf
Security:single module:_sec_asn1e_allocate_item
Security:single module:_sec_asn1e_integer
Security:single module:_sec_asn1e_which_choice
Security:single module:_sec_asn1e_write_end_of_contents_bytes
Security:single module:___fixunsdfdi
Security:single module:__ZN18AppleX509CLSession15lookupCachedCRLEm
Security:single module:__ZN18AppleX509CLSessionC2EmRN8Security10CssmPluginERK12cssm_versionmmmRK12cssm_upcalls
Security:single module:__ZN18AppleX509CLSessionD1Ev
Security:single module:__ZN18AppleX509CLSessionD2Ev
Security:single module:__ZN11SSDLSession10DataDeleteEmRK21cssm_db_unique_record
Security:single module:__ZN11SSDLSession10DataInsertEmmPK29cssm_db_record_attribute_dataPKN8Security8CssmDataERP21cssm_db_unique_record
Security:single module:__ZN11SSDLSession10DataModifyEmmR21cssm_db_unique_recordPK29cssm_db_record_attribute_dataPKN8Security8CssmDataEm
Security:single module:__ZN11SSDLSession10GetDbNamesERP14cssm_name_list
Security:single module:__ZN11SSDLSession10GetDbOwnerEmR24cssm_acl_owner_prototype
Security:single module:__ZN11SSDLSession11ChangeDbAclEmRKN8Security17AccessCredentialsERK13cssm_acl_edit
Security:single module:__ZN11SSDLSession11PassThroughEmmPKvPPv
Security:single module:__ZN11SSDLSession12AuthenticateEmmRKN8Security17AccessCredentialsE
Security:single module:__ZN11SSDLSession12FreeNameListER14cssm_name_list
Security:single module:__ZN11SSDLSession13ChangeDbOwnerEmRKN8Security17AccessCredentialsERK24cssm_acl_owner_prototype
Security:single module:__ZN11SSDLSession14CreateRelationEmmPKcmRK29cssm_db_schema_attribute_infomRK25cssm_db_schema_index_info
Security:single module:__ZN11SSDLSession15DestroyRelationEmm
Security:single module:__ZN11SSDLSession19GetDbNameFromHandleEmPPc
Security:single module:__ZN11SSDLSession8DbCreateEPKcPK16cssm_net_addressRK11cssm_dbinfomPK29cssm_resource_control_contextPKvRm
Security:single module:__ZN11SSDLSession8DbDeleteEPKcPK16cssm_net_addressPKN8Security17AccessCredentialsE
Security:single module:__ZN11SSDLSession8GetDbAclEmPA68_KcRmRP19cssm_acl_entry_info
Security:single module:__ZN11SSDLSessionC2EmR11CSPDLPluginRK12cssm_versionmmmRK12cssm_upcallsRN8Security15DatabaseManagerER14SSCSPDLSession
Security:single module:__ZN11SSDLSessionD1Ev
Security:single module:__ZN11SSDLSessionD2Ev
Security:single module:__ZThn40_N11SSDLSession10DataDeleteEmRK21cssm_db_unique_record
Security:single module:__ZThn40_N11SSDLSession10DataInsertEmmPK29cssm_db_record_attribute_dataPKN8Security8CssmDataERP21cssm_db_unique_record
Security:single module:__ZThn40_N11SSDLSession10DataModifyEmmR21cssm_db_unique_recordPK29cssm_db_record_attribute_dataPKN8Security8CssmDataEm
Security:single module:__ZThn40_N11SSDLSession10GetDbNamesERP14cssm_name_list
Security:single module:__ZThn40_N11SSDLSession10GetDbOwnerEmR24cssm_acl_owner_prototype
Security:single module:__ZThn40_N11SSDLSession11ChangeDbAclEmRKN8Security17AccessCredentialsERK13cssm_acl_edit
Security:single module:__ZThn40_N11SSDLSession11PassThroughEmmPKvPPv
Security:single module:__ZThn40_N11SSDLSession12AuthenticateEmmRKN8Security17AccessCredentialsE
Security:single module:__ZThn40_N11SSDLSession12FreeNameListER14cssm_name_list
Security:single module:__ZThn40_N11SSDLSession13ChangeDbOwnerEmRKN8Security17AccessCredentialsERK24cssm_acl_owner_prototype
Security:single module:__ZThn40_N11SSDLSession14CreateRelationEmmPKcmRK29cssm_db_schema_attribute_infomRK25cssm_db_schema_index_info
Security:single module:__ZThn40_N11SSDLSession15DestroyRelationEmm
Security:single module:__ZThn40_N11SSDLSession19GetDbNameFromHandleEmPPc
Security:single module:__ZThn40_N11SSDLSession8DbCreateEPKcPK16cssm_net_addressRK11cssm_dbinfomPK29cssm_resource_control_contextPKvRm
Security:single module:__ZThn40_N11SSDLSession8DbDeleteEPKcPK16cssm_net_addressPKN8Security17AccessCredentialsE
Security:single module:__ZThn40_N11SSDLSession8GetDbAclEmPA68_KcRmRP19cssm_acl_entry_info
Security:single module:__ZThn40_N11SSDLSessionD0Ev
Security:single module:__ZThn40_N11SSDLSessionD1Ev
Security:single module:__ZThn44_N11SSDLSessionD0Ev
Security:single module:__ZThn44_N11SSDLSessionD1Ev
Security:single module:__ZN12SSCSPSession11GenerateKeyEyRKN8Security7ContextEmmPKNS0_8CssmDataEPK29cssm_resource_control_contextRNS0_7CssmKeyEy
Security:single module:__ZN12SSCSPSession11GetKeyOwnerERKN8Security7CssmKeyER24cssm_acl_owner_prototype
Security:single module:__ZN12SSCSPSession11GetLoginAclEPA68_KcRmRP19cssm_acl_entry_info
Security:single module:__ZN12SSCSPSession11PassThroughEyRKN8Security7ContextEmPKvPPv
Security:single module:__ZN12SSCSPSession11getDatabaseEP17cssm_dl_db_handle
Security:single module:__ZN12SSCSPSession11getDatabaseERKN8Security7ContextE
Security:single module:__ZN12SSCSPSession12ChangeKeyAclERKN8Security17AccessCredentialsERK13cssm_acl_editRKNS0_7CssmKeyE
Security:single module:__ZN12SSCSPSession12GetTimeValueEmRN8Security8CssmDataE
Security:single module:__ZN12SSCSPSession12VerifyDeviceERKN8Security8CssmDataE
Security:single module:__ZN12SSCSPSession13GetLoginOwnerER24cssm_acl_owner_prototype
Security:single module:__ZN12SSCSPSession14ChangeKeyOwnerERKN8Security17AccessCredentialsERKNS0_7CssmKeyERK24cssm_acl_owner_prototype
Security:single module:__ZN12SSCSPSession14ChangeLoginAclERKN8Security17AccessCredentialsERK13cssm_acl_edit
Security:single module:__ZN12SSCSPSession14GenerateRandomEyRKN8Security7ContextERNS0_8CssmDataE
Security:single module:__ZN12SSCSPSession15GenerateKeyPairEyRKN8Security7ContextEmmPKNS0_8CssmDataERNS0_7CssmKeyEmmS6_PK29cssm_resource_control_contextS8_y
Security:single module:__ZN12SSCSPSession15RetrieveCounterERN8Security8CssmDataE
Security:single module:__ZN12SSCSPSession15validateKeyAttrEm
Security:single module:__ZN12SSCSPSession16ChangeLoginOwnerERKN8Security17AccessCredentialsERK24cssm_acl_owner_prototype
Security:single module:__ZN12SSCSPSession16RetrieveUniqueIdERN8Security8CssmDataE
Security:single module:__ZN12SSCSPSession16makeReferenceKeyEmRN8Security7CssmKeyER10SSDatabasemPKNS0_8CssmDataE
Security:single module:__ZN12SSCSPSession18QueryKeySizeInBitsEyRKN8Security7ContextERKNS0_7CssmKeyER13cssm_key_size
Security:single module:__ZN12SSCSPSession24GetOperationalStatisticsERN8Security24CSPOperationalStatisticsE
Security:single module:__ZN12SSCSPSession29ObtainPrivateKeyFromPublicKeyERKN8Security7CssmKeyERS1_
Security:single module:__ZN12SSCSPSession5LoginERKN8Security17AccessCredentialsEPKNS0_8CssmDataEPKv
Security:single module:__ZN12SSCSPSession6LogoutEv
Security:single module:__ZN12SSCSPSession7WrapKeyEyRKN8Security7ContextERKNS0_17AccessCredentialsERKNS0_7CssmKeyEPKNS0_8CssmDataERS7_y
Security:single module:__ZN12SSCSPSession9DeriveKeyEyRKN8Security7ContextERNS0_8CssmDataEmmPKS4_PK29cssm_resource_control_contextRNS0_7CssmKeyE
Security:single module:__ZN12SSCSPSession9GetKeyAclERKN8Security7CssmKeyEPA68_KcRmRP19cssm_acl_entry_info
Security:single module:__ZN12SSCSPSession9UnwrapKeyEyRKN8Security7ContextEPKNS0_7CssmKeyERS5_mmPKNS0_8CssmDataEPK29cssm_resource_control_contextRS4_RS8_y
Security:single module:__ZN12SSCSPSessionC2EmR11CSPDLPluginRK12cssm_versionmmmRK12cssm_upcallsR14SSCSPDLSessionRN8Security10CssmClient3CSPE
Security:single module:__ZThn40_N12SSCSPSession11GenerateKeyEyRKN8Security7ContextEmmPKNS0_8CssmDataEPK29cssm_resource_control_contextRNS0_7CssmKeyEy
Security:single module:__ZThn40_N12SSCSPSession11GetKeyOwnerERKN8Security7CssmKeyER24cssm_acl_owner_prototype
Security:single module:__ZThn40_N12SSCSPSession11GetLoginAclEPA68_KcRmRP19cssm_acl_entry_info
Security:single module:__ZThn40_N12SSCSPSession11PassThroughEyRKN8Security7ContextEmPKvPPv
Security:single module:__ZThn40_N12SSCSPSession12ChangeKeyAclERKN8Security17AccessCredentialsERK13cssm_acl_editRKNS0_7CssmKeyE
Security:single module:__ZThn40_N12SSCSPSession12GetTimeValueEmRN8Security8CssmDataE
Security:single module:__ZThn40_N12SSCSPSession12VerifyDeviceERKN8Security8CssmDataE
Security:single module:__ZThn40_N12SSCSPSession13GetLoginOwnerER24cssm_acl_owner_prototype
Security:single module:__ZThn40_N12SSCSPSession14ChangeKeyOwnerERKN8Security17AccessCredentialsERKNS0_7CssmKeyERK24cssm_acl_owner_prototype
Security:single module:__ZThn40_N12SSCSPSession14ChangeLoginAclERKN8Security17AccessCredentialsERK13cssm_acl_edit
Security:single module:__ZThn40_N12SSCSPSession14GenerateRandomEyRKN8Security7ContextERNS0_8CssmDataE
Security:single module:__ZThn40_N12SSCSPSession15GenerateKeyPairEyRKN8Security7ContextEmmPKNS0_8CssmDataERNS0_7CssmKeyEmmS6_PK29cssm_resource_control_contextS8_y
Security:single module:__ZThn40_N12SSCSPSession15RetrieveCounterERN8Security8CssmDataE
Security:single module:__ZThn40_N12SSCSPSession16ChangeLoginOwnerERKN8Security17AccessCredentialsERK24cssm_acl_owner_prototype
Security:single module:__ZThn40_N12SSCSPSession16RetrieveUniqueIdERN8Security8CssmDataE
Security:single module:__ZThn40_N12SSCSPSession24GetOperationalStatisticsERN8Security24CSPOperationalStatisticsE
Security:single module:__ZThn40_N12SSCSPSession29ObtainPrivateKeyFromPublicKeyERKN8Security7CssmKeyERS1_
Security:single module:__ZThn40_N12SSCSPSession5LoginERKN8Security17AccessCredentialsEPKNS0_8CssmDataEPKv
Security:single module:__ZThn40_N12SSCSPSession6LogoutEv
Security:single module:__ZThn40_N12SSCSPSession7WrapKeyEyRKN8Security7ContextERKNS0_17AccessCredentialsERKNS0_7CssmKeyEPKNS0_8CssmDataERS7_y
Security:single module:__ZThn40_N12SSCSPSession9DeriveKeyEyRKN8Security7ContextERNS0_8CssmDataEmmPKS4_PK29cssm_resource_control_contextRNS0_7CssmKeyE
Security:single module:__ZThn40_N12SSCSPSession9GetKeyAclERKN8Security7CssmKeyEPA68_KcRmRP19cssm_acl_entry_info
Security:single module:__ZThn40_N12SSCSPSession9UnwrapKeyEyRKN8Security7ContextEPKNS0_7CssmKeyERS5_mmPKNS0_8CssmDataEPK29cssm_resource_control_contextRS4_RS8_y
Security:single module:__ZN14SSCSPDLSession16makeReferenceKeyER12SSCSPSessionmRN8Security7CssmKeyER10SSDatabasemPKNS2_8CssmDataE
Security:single module:__ZN14SSCSPDLSessionC2Ev
Security:single module:__ZN20CSPDLDatabaseManager4makeERKN8Security6DbNameE
Security:single module:__ZN10DH_Factory5setupER15AppleCSPSessionRPN8Security20CSPFullPluginSession10CSPContextERKNS2_7ContextE
Security:single module:__ZN10DH_FactoryC2EPN8Security13CssmAllocatorES2_
Security:single module:__ZN10DH_FactoryD0Ev
Security:single module:__ZN10DH_FactoryD1Ev
Security:single module:__ZN10DH_FactoryD2Ev
Security:single module:__ZN10DH_FactoryD4Ev
Security:single module:__Z13throwComcrypt14comcryptReturnPKc
Security:single module:__Z6ccFreePv
Security:single module:__Z8ccMallocj
Security:single module:__ZN10ASCContext10outputSizeEbm
Security:single module:__ZN10ASCContext15minimumProgressERmS0_
Security:single module:__ZN10ASCContext4initERKN8Security7ContextEb
Security:single module:__ZN10ASCContext5finalERN8Security8CssmDataE
Security:single module:__ZN10ASCContext6updateEPvRmS0_S1_
Security:single module:__ZN10ASCContext9inputSizeEm
Security:single module:__ZN10ASCContextD0Ev
Security:single module:__ZN10ASCContextD1Ev
Security:single module:__ZN10ASCContextD2Ev
Security:single module:__ZN10ASCContextD4Ev
Security:single module:__ZN13AscAlgFactory5setupER15AppleCSPSessionRPN8Security20CSPFullPluginSession10CSPContextERKNS2_7ContextE
Security:single module:__ZN13AscAlgFactoryC2EPN8Security13CssmAllocatorES2_
Security:single module:__ZN15AppleCSPContextD0Ev
Security:single module:__ZN15AppleCSPContextD1Ev
Security:single module:__ZN18SymmetricBinaryKey15generateKeyBlobERN8Security13CssmAllocatorERNS0_8CssmDataERmR15AppleCSPSessionPKNS0_7CssmKeyES5_
Security:single module:__ZN18SymmetricBinaryKeyC2Ej
Security:single module:__ZN18SymmetricBinaryKeyD1Ev
Security:single module:__ZN18SymmetricBinaryKeyD2Ev
Security:single module:__ZN22AppleKeyPairGenContext8generateERKN8Security7ContextER15AppleCSPSessionRNS0_7CssmKeyEP9BinaryKeyS7_S9_
Security:single module:__ZN22AppleSymmKeyGenContext14generateSymKeyERKN8Security7ContextER15AppleCSPSessionRNS0_7CssmKeyE
Security:single module:__ZN15AppleCSPSession7WrapKeyEyRKN8Security7ContextERKNS0_17AccessCredentialsERKNS0_7CssmKeyEPKNS0_8CssmDataERS7_y
Security:single module:__Z6ckFreePv
Security:single module:__Z9ckReallocPvj
Security:single module:__ZN15CryptKitFactory5setupER15AppleCSPSessionRPN8Security20CSPFullPluginSession10CSPContextERKNS2_7ContextE
Security:single module:__ZN15CryptKitFactoryC2EPN8Security13CssmAllocatorES2_
Security:single module:__ZN15CryptKitFactoryD0Ev
Security:single module:__ZN15CryptKitFactoryD1Ev
Security:single module:__ZN15CryptKitFactoryD2Ev
Security:single module:__ZN15CryptKitFactoryD4Ev
Security:single module:__Z9osReallocPvm
Security:single module:__ZN15RSA_DSA_FactoryC2EPN8Security13CssmAllocatorES2_
Security:single module:__ZN15RSA_DSA_FactoryD0Ev
Security:single module:__ZN15RSA_DSA_FactoryD1Ev
Security:single module:__ZN15RSA_DSA_FactoryD2Ev
Security:single module:__ZN15RSA_DSA_FactoryD4Ev
Security:single module:__ZN11DHBinaryKeyC2EP5dh_st
Security:single module:__ZN11DHBinaryKeyC1EP5dh_st
Security:single module:__ZN11DHBinaryKeyC4EP5dh_st
Security:single module:__ZN11DHBinaryKeyD2Ev
Security:single module:__ZN11DHBinaryKeyD1Ev
Security:single module:__ZN11DHBinaryKeyD0Ev
Security:single module:__ZN11DHBinaryKeyD4Ev
Security:single module:__ZN11DHBinaryKey15generateKeyBlobERN8Security13CssmAllocatorERNS0_8CssmDataERmR15AppleCSPSessionPKNS0_7CssmKeyES5_
Security:single module:__ZN19DHKeyPairGenContext8generateERKN8Security7ContextERNS0_7CssmKeyES5_
Security:single module:__ZN19DHKeyPairGenContext8generateERKN8Security7ContextER9BinaryKeyS5_Rm
Security:single module:__ZN17DHKeyInfoProviderC2ERKN8Security7CssmKeyER15AppleCSPSession
Security:single module:__ZN17DHKeyInfoProviderC1ERKN8Security7CssmKeyER15AppleCSPSession
Security:single module:__ZN17DHKeyInfoProviderC4ERKN8Security7CssmKeyER15AppleCSPSession
Security:single module:__ZN17DHKeyInfoProvider8providerERKN8Security7CssmKeyER15AppleCSPSession
Security:single module:__ZN17DHKeyInfoProvider15CssmKeyToBinaryEPN8Security7CssmKeyERmPP9BinaryKey
Security:single module:__ZN17DHKeyInfoProvider18QueryKeySizeInBitsER13cssm_key_size
Security:single module:__ZN17DHKeyInfoProvider15getHashableBlobERN8Security13CssmAllocatorERNS0_8CssmDataE
Security:single module:__ZN19DHKeyPairGenContext8generateERKN8Security7ContextEmRNS0_8CssmDataERmRPNS1_4AttrE
Security:single module:__ZN19DHKeyPairGenContext12freeGenAttrsEv
Security:single module:__ZN19DHKeyPairGenContext11dhGenParamsEmjiR15NSS_DHParameterR11SecNssCoder
Security:single module:__ZN12DSABinaryKey15generateKeyBlobERN8Security13CssmAllocatorERNS0_8CssmDataERmR15AppleCSPSessionPKNS0_7CssmKeyES5_
Security:single module:__ZN12DSABinaryKeyC1EP6dsa_st
Security:single module:__ZN12DSABinaryKeyC2EP6dsa_st
Security:single module:__ZN12DSABinaryKeyC4EP6dsa_st
Security:single module:__ZN12DSABinaryKeyD0Ev
Security:single module:__ZN12DSABinaryKeyD1Ev
Security:single module:__ZN12DSABinaryKeyD2Ev
Security:single module:__ZN12DSABinaryKeyD4Ev
Security:single module:__ZN12RSABinaryKey15generateKeyBlobERN8Security13CssmAllocatorERNS0_8CssmDataERmR15AppleCSPSessionPKNS0_7CssmKeyES5_
Security:single module:__ZN12RSABinaryKeyC1EP6rsa_st
Security:single module:__ZN12RSABinaryKeyC2EP6rsa_st
Security:single module:__ZN12RSABinaryKeyC4EP6rsa_st
Security:single module:__ZN12RSABinaryKeyD0Ev
Security:single module:__ZN12RSABinaryKeyD1Ev
Security:single module:__ZN12RSABinaryKeyD2Ev
Security:single module:__ZN12RSABinaryKeyD4Ev
Security:single module:__ZN18DSAKeyInfoProvider15CssmKeyToBinaryEPN8Security7CssmKeyERmPP9BinaryKey
Security:single module:__ZN18DSAKeyInfoProvider15getHashableBlobERN8Security13CssmAllocatorERNS0_8CssmDataE
Security:single module:__ZN18DSAKeyInfoProvider18QueryKeySizeInBitsER13cssm_key_size
Security:single module:__ZN18DSAKeyInfoProvider8providerERKN8Security7CssmKeyER15AppleCSPSession
Security:single module:__ZN18DSAKeyInfoProviderC1ERKN8Security7CssmKeyER15AppleCSPSession
Security:single module:__ZN18DSAKeyInfoProviderC2ERKN8Security7CssmKeyER15AppleCSPSession
Security:single module:__ZN18DSAKeyInfoProviderC4ERKN8Security7CssmKeyER15AppleCSPSession
Security:single module:__ZN18RSAKeyInfoProvider15CssmKeyToBinaryEPN8Security7CssmKeyERmPP9BinaryKey
Security:single module:__ZN18RSAKeyInfoProvider15getHashableBlobERN8Security13CssmAllocatorERNS0_8CssmDataE
Security:single module:__ZN18RSAKeyInfoProviderC1ERKN8Security7CssmKeyER15AppleCSPSession
Security:single module:__ZN18RSAKeyInfoProviderC2ERKN8Security7CssmKeyER15AppleCSPSession
Security:single module:__ZN20DSAKeyPairGenContext12dsaGenParamsEmPKvjR16NSS_DSAAlgParamsR11SecNssCoder
Security:single module:__ZN20DSAKeyPairGenContext12freeGenAttrsEv
Security:single module:__ZN20DSAKeyPairGenContext8generateERKN8Security7ContextER9BinaryKeyS5_Rm
Security:single module:__ZN20DSAKeyPairGenContext8generateERKN8Security7ContextERNS0_7CssmKeyES5_
Security:single module:__ZN20DSAKeyPairGenContext8generateERKN8Security7ContextEmRNS0_8CssmDataERmRPNS1_4AttrE
Security:single module:__ZN20RSAKeyPairGenContext8generateERKN8Security7ContextER9BinaryKeyS5_Rm
Security:single module:__ZN20RSAKeyPairGenContext8generateERKN8Security7ContextERNS0_7CssmKeyES5_
Security:single module:__ZN24SymmetricKeyInfoProvider15getHashableBlobERN8Security13CssmAllocatorERNS0_8CssmDataE
Security:single module:__ZN24SymmetricKeyInfoProvider18QueryKeySizeInBitsER13cssm_key_size
Security:single module:__ZN24SymmetricKeyInfoProviderC2ERKN8Security7CssmKeyER15AppleCSPSession
Security:single module:__ZN8CryptKit12FEEBinaryKeyC2EPv
Security:single module:__ZN8CryptKit12FEEBinaryKeyC1EPv
Security:single module:__ZN8CryptKit12FEEBinaryKeyC4EPv
Security:single module:__ZN8CryptKit12FEEBinaryKeyD2Ev
Security:single module:__ZN8CryptKit12FEEBinaryKeyD1Ev
Security:single module:__ZN8CryptKit12FEEBinaryKeyD0Ev
Security:single module:__ZN8CryptKit12FEEBinaryKeyD4Ev
Security:single module:__ZN8CryptKit12FEEBinaryKey15generateKeyBlobERN8Security13CssmAllocatorERNS1_8CssmDataERmR15AppleCSPSessionPKNS1_7CssmKeyES6_
Security:single module:__ZN8CryptKit20FEEKeyPairGenContext8generateERKN8Security7ContextERNS1_7CssmKeyES6_
Security:single module:__ZN8CryptKit20FEEKeyPairGenContext8generateERKN8Security7ContextER9BinaryKeyS6_Rm
Security:single module:__ZN8CryptKit18FEEKeyInfoProviderC2ERKN8Security7CssmKeyER15AppleCSPSession
Security:single module:__ZN8CryptKit18FEEKeyInfoProviderC1ERKN8Security7CssmKeyER15AppleCSPSession
Security:single module:__ZN8CryptKit18FEEKeyInfoProviderC4ERKN8Security7CssmKeyER15AppleCSPSession
Security:single module:__ZN8CryptKit18FEEKeyInfoProvider8providerERKN8Security7CssmKeyER15AppleCSPSession
Security:single module:__ZN8CryptKit18FEEKeyInfoProvider15CssmKeyToBinaryEPN8Security7CssmKeyERmPP9BinaryKey
Security:single module:__ZN8CryptKit18FEEKeyInfoProvider18QueryKeySizeInBitsER13cssm_key_size
Security:single module:__ZN8CryptKit18FEEKeyInfoProvider15getHashableBlobERN8Security13CssmAllocatorERNS1_8CssmDataE
Security:single module:_cspAddEntropy
Security:single module:_copyCssmHeader
Security:single module:_cspCompareCssmData
Security:single module:_cspGenSha1Hash
Security:single module:_requestedKeyFormat
Security:single module:__ZN14AppleTPSession10CertRevokeEmmPKN8Security8CssmDataERK14cssm_certgroupS6_RK22cssm_tp_verify_contextR29cssm_tp_verify_context_resultmRS1_
Security:single module:__ZN14AppleTPSession10FormSubmitEmRKN8Security8CssmDataEPK20cssm_tp_authority_idS6_PNS0_17AccessCredentialsE
Security:single module:__ZN14AppleTPSession11FormRequestEPK20cssm_tp_authority_idmRN8Security8CssmDataE
Security:single module:__ZN14AppleTPSession11PassThroughEmyPK15cssm_dl_db_listmPKvPPv
Security:single module:__ZN14AppleTPSession12ApplyCrlToDbEmmRK16cssm_encoded_crlRK14cssm_certgroupPK22cssm_tp_verify_contextR29cssm_tp_verify_context_result
Security:single module:__ZN14AppleTPSession14CertGroupPruneEmRK15cssm_dl_db_listRK14cssm_certgroupRPS3_
Security:single module:__ZN14AppleTPSession14CertReclaimKeyERK14cssm_certgroupmymPK29cssm_resource_control_context
Security:single module:__ZN14AppleTPSession16CertReclaimAbortEy
Security:single module:__ZN14AppleTPSession17ConfirmCredResultERKN8Security8CssmDataEPK26cssm_tp_callerauth_contextRK24cssm_tp_confirm_responsePK20cssm_tp_authority_id
Security:single module:__ZN14AppleTPSession17CrlCreateTemplateEmmPK10cssm_fieldRN8Security8CssmDataE
Security:single module:__ZN14AppleTPSession18CertCreateTemplateEmmPK10cssm_fieldRN8Security8CssmDataE
Security:single module:__ZN14AppleTPSession19ReceiveConfirmationERKN8Security8CssmDataERP24cssm_tp_confirm_responseRl
Security:single module:__ZN14AppleTPSession21CertGroupToTupleGroupEmRK14cssm_certgroupRP15cssm_tuplegroup
Security:single module:__ZN14AppleTPSession21TupleGroupToCertGroupEmRK15cssm_tuplegroupRP14cssm_certgroup
Security:single module:__ZN14AppleTPSession24CertGetAllTemplateFieldsEmRKN8Security8CssmDataERmRP10cssm_field
Security:single module:__ZN14AppleTPSession25CertRemoveFromCrlTemplateEmmPKN8Security8CssmDataERK14cssm_certgroupS6_RK22cssm_tp_verify_contextR29cssm_tp_verify_context_resultRS1_
Security:single module:__ZN14AppleTPSession7CrlSignEmyRK16cssm_encoded_crlRK14cssm_certgroupPK22cssm_tp_verify_contextP29cssm_tp_verify_context_resultRN8Security8CssmDataE
Security:single module:__ZN14AppleTPSession8CertSignEmyRKN8Security8CssmDataERK14cssm_certgroupPK22cssm_tp_verify_contextP29cssm_tp_verify_context_resultRS1_
Security:single module:__ZN14AppleTPSession9CrlVerifyEmmRK16cssm_encoded_crlRK14cssm_certgroupPK22cssm_tp_verify_contextP29cssm_tp_verify_context_result
Security:single module:__ZN14AppleTPSessionC2EmRN8Security10CssmPluginERK12cssm_versionmmmRK12cssm_upcalls
Security:single module:__ZN14AppleTPSessionD1Ev
Security:single module:__ZN14AppleTPSessionD2Ev
Security:single module:__ZThn40_N14AppleTPSession10CertRevokeEmmPKN8Security8CssmDataERK14cssm_certgroupS6_RK22cssm_tp_verify_contextR29cssm_tp_verify_context_resultmRS1_
Security:single module:__ZThn40_N14AppleTPSession10FormSubmitEmRKN8Security8CssmDataEPK20cssm_tp_authority_idS6_PNS0_17AccessCredentialsE
Security:single module:__ZThn40_N14AppleTPSession11FormRequestEPK20cssm_tp_authority_idmRN8Security8CssmDataE
Security:single module:__ZThn40_N14AppleTPSession11PassThroughEmyPK15cssm_dl_db_listmPKvPPv
Security:single module:__ZThn40_N14AppleTPSession12ApplyCrlToDbEmmRK16cssm_encoded_crlRK14cssm_certgroupPK22cssm_tp_verify_contextR29cssm_tp_verify_context_result
Security:single module:__ZThn40_N14AppleTPSession14CertGroupPruneEmRK15cssm_dl_db_listRK14cssm_certgroupRPS3_
Security:single module:__ZThn40_N14AppleTPSession14CertReclaimKeyERK14cssm_certgroupmymPK29cssm_resource_control_context
Security:single module:__ZThn40_N14AppleTPSession16CertReclaimAbortEy
Security:single module:__ZThn40_N14AppleTPSession17ConfirmCredResultERKN8Security8CssmDataEPK26cssm_tp_callerauth_contextRK24cssm_tp_confirm_responsePK20cssm_tp_authority_id
Security:single module:__ZThn40_N14AppleTPSession17CrlCreateTemplateEmmPK10cssm_fieldRN8Security8CssmDataE
Security:single module:__ZThn40_N14AppleTPSession18CertCreateTemplateEmmPK10cssm_fieldRN8Security8CssmDataE
Security:single module:__ZThn40_N14AppleTPSession19ReceiveConfirmationERKN8Security8CssmDataERP24cssm_tp_confirm_responseRl
Security:single module:__ZThn40_N14AppleTPSession21CertGroupToTupleGroupEmRK14cssm_certgroupRP15cssm_tuplegroup
Security:single module:__ZThn40_N14AppleTPSession21TupleGroupToCertGroupEmRK15cssm_tuplegroupRP14cssm_certgroup
Security:single module:__ZThn40_N14AppleTPSession24CertGetAllTemplateFieldsEmRKN8Security8CssmDataERmRP10cssm_field
Security:single module:__ZThn40_N14AppleTPSession25CertRemoveFromCrlTemplateEmmPKN8Security8CssmDataERK14cssm_certgroupS6_RK22cssm_tp_verify_contextR29cssm_tp_verify_context_resultRS1_
Security:single module:__ZThn40_N14AppleTPSession7CrlSignEmyRK16cssm_encoded_crlRK14cssm_certgroupPK22cssm_tp_verify_contextP29cssm_tp_verify_context_resultRN8Security8CssmDataE
Security:single module:__ZThn40_N14AppleTPSession8CertSignEmyRKN8Security8CssmDataERK14cssm_certgroupPK22cssm_tp_verify_contextP29cssm_tp_verify_context_resultRS1_
Security:single module:__ZThn40_N14AppleTPSession9CrlVerifyEmmRK16cssm_encoded_crlRK14cssm_certgroupPK22cssm_tp_verify_contextP29cssm_tp_verify_context_result
Security:single module:__Z18NSS_genNameChooserPviPKcS_
Security:single module:__Z11clDataToIntRK9cssm_datal
Security:single module:__Z11clIntToDatamR9cssm_dataRN8Security13CssmAllocatorE
Security:single module:__Z14clNssNullArraymR11SecNssCoder
Security:single module:__Z15clCssmBoolToNsslR9cssm_dataRN8Security13CssmAllocatorE
Security:single module:__Z16CL_cssmTimeToNssRK14cssm_x509_timeR14NSS_TaggedItemR11SecNssCoder
Security:single module:__Z16CL_freeCssmAlgIdP30cssm_x509_algorithm_identifierRN8Security13CssmAllocatorE
Security:single module:__Z16CL_nullAlgParamsR30cssm_x509_algorithm_identifier
Security:single module:__Z20clCssmBitStringToNssR9cssm_data
Security:single module:__Z21CL_copySubjPubKeyInfoRK33cssm_x509_subject_public_key_infobRS_bRN8Security13CssmAllocatorE
Security:single module:__Z22CL_cssmDistPointsToNssRK22CE_CRLDistPointsSyntaxR25NSS_CRLDistributionPointsR11SecNssCoder
Security:single module:__Z22CL_nssDistPointsToCssmRK25NSS_CRLDistributionPointsR22CE_CRLDistPointsSyntaxR11SecNssCoderRN8Security13CssmAllocatorE
Security:single module:__Z23CL_certEncodeComponentsRKN8Security8CssmDataES2_S2_RNS_13CssmOwnedDataE
Security:single module:__Z26CL_cssmAuthorityKeyIdToNssRK17CE_AuthorityKeyIDR18NSS_AuthorityKeyIdR11SecNssCoder
Security:single module:__Z28CL_nssIssuingDistPointToCssmP28NSS_IssuingDistributionPointP27CE_IssuingDistributionPointR11SecNssCoderRN8Security13CssmAllocatorE
Security:single module:__Z29CL_CSSMKeyToSubjPubKeyInfoNSSRK8cssm_keyR33cssm_x509_subject_public_key_infoR11SecNssCoder
Security:single module:__Z30CL_decodeDistributionPointNameRK9cssm_dataR24CE_DistributionPointNameR11SecNssCoderRN8Security13CssmAllocatorE
Security:single module:__Z30CL_encodeDistributionPointNameR24CE_DistributionPointNameR9cssm_dataR11SecNssCoder
Security:single module:__ZN14ArenaAllocator4freeEPv
Security:single module:__ZN14ArenaAllocator6mallocEm
Security:single module:__ZN14ArenaAllocator7reallocEPvm
Security:single module:__Z15CL_cssmAtvToNssRK25cssm_x509_type_value_pairR7NSS_ATVR11SecNssCoder
Security:single module:__Z15CL_cssmRdnToNssRK13cssm_x509_rdnR7NSS_RDNR11SecNssCoder
Security:single module:__Z15clCopyOtherNameRK12CE_OtherNameRS_RN8Security13CssmAllocatorE
Security:single module:__Z16CL_cssmNameToNssRK14cssm_x509_nameR8NSS_NameR11SecNssCoder
Security:single module:__Z16CL_freeOtherNameP12CE_OtherNameRN8Security13CssmAllocatorE
Security:single module:__Z21CL_freeCssmDistPointsP22CE_CRLDistPointsSyntaxRN8Security13CssmAllocatorE
Security:single module:__Z23CL_cssmGeneralNameToNssR14CE_GeneralNameR14NSS_TaggedItemR11SecNssCoder
Security:single module:__Z23CL_nssGeneralNameToCssmR14NSS_TaggedItemR14CE_GeneralNameR11SecNssCoderRN8Security13CssmAllocatorE
Security:single module:__Z24CL_cssmGeneralNamesToNssRK15CE_GeneralNamesR16NSS_GeneralNamesR11SecNssCoder
Security:single module:__Z24CL_freeCssmDistPointNameP24CE_DistributionPointNameRN8Security13CssmAllocatorE
Security:single module:__Z24CL_nssGeneralNamesToCssmRK16NSS_GeneralNamesR15CE_GeneralNamesR11SecNssCoderRN8Security13CssmAllocatorE
Security:single module:__Z27CL_freeCssmIssuingDistPointP27CE_IssuingDistributionPointRN8Security13CssmAllocatorE
Security:single module:__ZN12DecodedExtenC2ERK9cssm_databPvbPK23sec_ASN1Template_structR11SecNssCoderPS1_
Security:single module:__ZN12DecodedExtenD2Ev
Security:single module:__ZN17DecodedExtensions11encodeToNssERPP17NSS_CertExtension
Security:single module:__ZN17DecodedExtensionsC2ER11SecNssCoderRN8Security13CssmAllocatorE
Security:single module:__ZN17DecodedExtensionsD2Ev
Security:single module:__ZNK12DecodedExten5parseEP19cssm_x509_extensionRN8Security13CssmAllocatorE
Security:single module:__ZNK17DecodedExtensions13convertToCdsaER20cssm_x509_extensionsRN8Security13CssmAllocatorE
Security:single module:__ZN11DecodedItemC1ER18AppleX509CLSession
Security:single module:__ZN11DecodedItemD0Ev
Security:single module:__ZN11DecodedItemD1Ev
Security:single module:_PL_ArenaFinish
Security:single module:_PL_ArenaGrow
Security:single module:_PL_ArenaRelease
Security:single module:_PL_CompactArenaPool
Security:single module:_PL_FreeArenaPool
Security:single module:_sec_port_ucs4_utf8_conversion_function
Security:single module:_sec_port_ucs2_utf8_conversion_function
Security:single module:___cmpdi2
Security:single module:__ZN18AppleX509CLSession17CertVerifyWithKeyEyRKN8Security8CssmDataE
Security:single module:__ZN18AppleX509CLSession8CertSignEyRKN8Security8CssmDataEPK10cssm_fieldmRS1_
Security:single module:__ZN18AppleX509CLSession8signDataEyRKN8Security8CssmDataERNS0_13CssmOwnedDataE
Security:single module:__ZThn40_N18AppleX509CLSession17CertVerifyWithKeyEyRKN8Security8CssmDataE
Security:single module:__ZThn40_N18AppleX509CLSession8CertSignEyRKN8Security8CssmDataEPK10cssm_fieldmRS1_
Security:single module:__ZN18AppleX509CLSession17CrlDescribeFormatERmRP9cssm_data
Security:single module:__ZThn40_N18AppleX509CLSession17CrlDescribeFormatERmRP9cssm_data
Security:single module:__ZN18AppleX509CLSession15CrlGetAllFieldsERKN8Security8CssmDataERmRP10cssm_field
Security:single module:__ZThn40_N18AppleX509CLSession15CrlGetAllFieldsERKN8Security8CssmDataERmRP10cssm_field
Security:single module:__ZN18AppleX509CLSession21CrlGetFirstFieldValueERKN8Security8CssmDataES3_RmRP9cssm_data
Security:single module:__ZThn40_N18AppleX509CLSession21CrlGetFirstFieldValueERKN8Security8CssmDataES3_RmRP9cssm_data
Security:single module:__ZN18AppleX509CLSession20CrlGetNextFieldValueEmRP9cssm_data
Security:single module:__ZThn40_N18AppleX509CLSession20CrlGetNextFieldValueEmRP9cssm_data
Security:single module:__ZN18AppleX509CLSession11IsCertInCrlERKN8Security8CssmDataES3_Rl
Security:single module:__ZThn40_N18AppleX509CLSession11IsCertInCrlERKN8Security8CssmDataES3_Rl
Security:single module:__ZN18AppleX509CLSession8CrlCacheERKN8Security8CssmDataERm
Security:single module:__ZThn40_N18AppleX509CLSession8CrlCacheERKN8Security8CssmDataERm
Security:single module:__ZN18AppleX509CLSession27CrlGetFirstCachedFieldValueEmPKN8Security8CssmDataERS2_RmRP9cssm_data
Security:single module:__ZThn40_N18AppleX509CLSession27CrlGetFirstCachedFieldValueEmPKN8Security8CssmDataERS2_RmRP9cssm_data
Security:single module:__ZN18AppleX509CLSession26CrlGetNextCachedFieldValueEmRP9cssm_data
Security:single module:__ZThn40_N18AppleX509CLSession26CrlGetNextCachedFieldValueEmRP9cssm_data
Security:single module:__ZN18AppleX509CLSession17IsCertInCachedCrlERKN8Security8CssmDataEmRlRS1_
Security:single module:__ZThn40_N18AppleX509CLSession17IsCertInCachedCrlERKN8Security8CssmDataEmRlRS1_
Security:single module:__ZN18AppleX509CLSession13CrlAbortCacheEm
Security:single module:__ZThn40_N18AppleX509CLSession13CrlAbortCacheEm
Security:single module:__ZN18AppleX509CLSession13CrlAbortQueryEm
Security:single module:__ZThn40_N18AppleX509CLSession13CrlAbortQueryEm
Security:single module:__ZN18AppleX509CLSession17CrlCreateTemplateEmPK10cssm_fieldRN8Security8CssmDataE
Security:single module:__ZThn40_N18AppleX509CLSession17CrlCreateTemplateEmPK10cssm_fieldRN8Security8CssmDataE
Security:single module:__ZN18AppleX509CLSession12CrlSetFieldsEmPK10cssm_fieldRKN8Security8CssmDataERS4_
Security:single module:__ZThn40_N18AppleX509CLSession12CrlSetFieldsEmPK10cssm_fieldRKN8Security8CssmDataERS4_
Security:single module:__ZN18AppleX509CLSession10CrlAddCertEyRKN8Security8CssmDataEmPK10cssm_fieldS3_RS1_
Security:single module:__ZThn40_N18AppleX509CLSession10CrlAddCertEyRKN8Security8CssmDataEmPK10cssm_fieldS3_RS1_
Security:single module:__ZN18AppleX509CLSession13CrlRemoveCertERKN8Security8CssmDataES3_RS1_
Security:single module:__ZThn40_N18AppleX509CLSession13CrlRemoveCertERKN8Security8CssmDataES3_RS1_
Security:single module:__ZN18AppleX509CLSession27CrlGetAllCachedRecordFieldsEmRKN8Security8CssmDataERmRP10cssm_field
Security:single module:__ZThn40_N18AppleX509CLSession27CrlGetAllCachedRecordFieldsEmRKN8Security8CssmDataERmRP10cssm_field
Security:single module:__ZN18AppleX509CLSession16CrlVerifyWithKeyEyRKN8Security8CssmDataE
Security:single module:__ZThn40_N18AppleX509CLSession16CrlVerifyWithKeyEyRKN8Security8CssmDataE
Security:single module:__ZN18AppleX509CLSession9CrlVerifyEyRKN8Security8CssmDataEPS2_PK10cssm_fieldm
Security:single module:__ZThn40_N18AppleX509CLSession9CrlVerifyEyRKN8Security8CssmDataEPS2_PK10cssm_fieldm
Security:single module:__ZN18AppleX509CLSession7CrlSignEyRKN8Security8CssmDataEPK10cssm_fieldmRS1_
Security:single module:__ZThn40_N18AppleX509CLSession7CrlSignEyRKN8Security8CssmDataEPK10cssm_fieldmRS1_
Security:single module:__ZN18AppleX509CLSession10FreeFieldsEmRP10cssm_field
Security:single module:__ZN18AppleX509CLSession11PassThroughEymPKvPPv
Security:single module:__ZN18AppleX509CLSession16CertGetAllFieldsERKN8Security8CssmDataERmRP10cssm_field
Security:single module:__ZN18AppleX509CLSession18CertCreateTemplateEmPK10cssm_fieldRN8Security8CssmDataE
Security:single module:__ZN18AppleX509CLSession18CertDescribeFormatERmRP9cssm_data
Security:single module:__ZN18AppleX509CLSession22CertGetFirstFieldValueERKN8Security8CssmDataES3_RmRP9cssm_data
Security:single module:__ZN18AppleX509CLSession23CertGroupToSignedBundleEyRK14cssm_certgroupPK23cssm_cert_bundle_headerRN8Security8CssmDataE
Security:single module:__ZN18AppleX509CLSession24CertGetAllTemplateFieldsERKN8Security8CssmDataERmRP10cssm_field
Security:single module:__ZN18AppleX509CLSession27CertGroupFromVerifiedBundleEyRK16cssm_cert_bundlePKN8Security8CssmDataERP14cssm_certgroup
Security:single module:__ZThn40_N18AppleX509CLSession10FreeFieldsEmRP10cssm_field
Security:single module:__ZThn40_N18AppleX509CLSession11PassThroughEymPKvPPv
Security:single module:__ZThn40_N18AppleX509CLSession16CertGetAllFieldsERKN8Security8CssmDataERmRP10cssm_field
Security:single module:__ZThn40_N18AppleX509CLSession18CertCreateTemplateEmPK10cssm_fieldRN8Security8CssmDataE
Security:single module:__ZThn40_N18AppleX509CLSession18CertDescribeFormatERmRP9cssm_data
Security:single module:__ZThn40_N18AppleX509CLSession21CertGetNextFieldValueEmRP9cssm_data
Security:single module:__ZThn40_N18AppleX509CLSession22CertGetFirstFieldValueERKN8Security8CssmDataES3_RmRP9cssm_data
Security:single module:__ZThn40_N18AppleX509CLSession23CertGroupToSignedBundleEyRK14cssm_certgroupPK23cssm_cert_bundle_headerRN8Security8CssmDataE
Security:single module:__ZThn40_N18AppleX509CLSession24CertGetAllTemplateFieldsERKN8Security8CssmDataERmRP10cssm_field
Security:single module:__ZThn40_N18AppleX509CLSession27CertGroupFromVerifiedBundleEyRK16cssm_cert_bundlePKN8Security8CssmDataERP14cssm_certgroup
Security:single module:__ZN11CLCachedCRLD0Ev
Security:single module:__ZN11CLCachedCRLD1Ev
Security:single module:__ZN11CLCachedCRLD2Ev
Security:single module:__ZN11CLCachedCRLD4Ev
Security:single module:__ZN12CLCachedCertD1Ev
Security:single module:__ZN12CLCachedCertD2Ev
Security:single module:__ZN13CLCachedEntryC1Ev
Security:single module:__ZN7CLQueryC2E11CLQueryTypeRKN8Security8CssmDataEjbm
Security:single module:__ZN7CLQueryD2Ev
Security:single module:__ZN14SSDatabaseImpl11getSettingsERmRb
Security:single module:__ZN14SSDatabaseImpl11setSettingsEmb
Security:single module:__ZN14SSDatabaseImpl12authenticateEmPK23cssm_access_credentials
Security:single module:__ZN14SSDatabaseImpl16changePassphraseEPK23cssm_access_credentials
Security:single module:__ZN14SSDatabaseImpl4lockEv
Security:single module:__ZN14SSDatabaseImpl6createERKN8Security14DLDbIdentifierE
Security:single module:__ZN14SSDatabaseImpl6insertEmPK29cssm_db_record_attribute_dataPK9cssm_datab
Security:single module:__ZN14SSDatabaseImpl6unlockERK9cssm_data
Security:single module:__ZN14SSDatabaseImpl6unlockEv
Security:single module:__ZN14SSDatabaseImpl8isLockedEv
Security:single module:__ZN14SSDatabaseImplC2ERN8Security14SecurityServer13ClientSessionERKNS0_10CssmClient2DLEPKcPK16cssm_net_address
Security:single module:__ZN14SSDatabaseImplD1Ev
Security:single module:__ZN14SSDatabaseImplD2Ev
Security:single module:__ZN18SSUniqueRecordImplC2ERK10SSDatabase
Security:single module:__ZN18SSUniqueRecordImplD1Ev
Security:single module:__ZN18SSUniqueRecordImplD2Ev
Security:single module:__ZN5SSKey11changeOwnerERKN8Security17AccessCredentialsERKNS0_17AclOwnerPrototypeE
Security:single module:__ZN5SSKey6getAclEPKcRmRPN8Security12AclEntryInfoERNS3_13CssmAllocatorE
Security:single module:__ZN5SSKey8getOwnerER24cssm_acl_owner_prototypeRN8Security13CssmAllocatorE
Security:single module:__ZN5SSKey9changeAclERKN8Security17AccessCredentialsERKNS0_7AclEditE
Security:single module:__ZN5SSKeyC1ER12SSCSPSessionmRN8Security7CssmKeyER10SSDatabasemPKNS2_8CssmDataE
Security:single module:__ZN5SSKeyC2ER11SSDLSessionRN8Security7CssmKeyER10SSDatabaseRK14SSUniqueRecordmRNS2_8CssmDataE
Security:single module:__ZN5SSKeyC2ER12SSCSPSessionmRN8Security7CssmKeyER10SSDatabasemPKNS2_8CssmDataE
Security:single module:__ZN5SSKeyC4ER12SSCSPSessionmRN8Security7CssmKeyER10SSDatabasemPKNS2_8CssmDataE
Security:single module:__ZN5SSKeyD1Ev
Security:single module:__ZN5SSKeyD2Ev
Security:single module:_comcryptAlloc
Security:single module:_comcryptBlock
Security:single module:_comcryptData
Security:single module:_comcryptInit
Security:single module:_comcryptMaxInBufSize
Security:single module:_comcryptMaxOutBufSize
Security:single module:_comcryptObjFree
Security:single module:_deComcryptBlock
Security:single module:_deComcryptData
Security:single module:__ZN15AppleCSPSession10WrapKeyCmsEyRKN8Security7ContextERKNS0_17AccessCredentialsERKNS0_7CssmKeyERNS0_8CssmDataEbPKSA_RS7_y
Security:single module:__ZN15AppleCSPSession19pkcs8InferKeyHeaderERN8Security7CssmKeyE
Security:single module:_pkcs8RawKeyFormat
Security:single module:_DeriveKey_PKCS12
Security:single module:__Z9p12PbeGenRK9cssm_dataPKhjj10P12_PBE_IDmR11SecNssCoderPhj
Security:single module:__Z9p12StrCatPKhjR11SecNssCoderjPh
Security:single module:__Z12DeriveKey_DHRKN8Security7ContextERKNS_8CssmDataEP9cssm_dataR15AppleCSPSession
Security:single module:__ZN8CryptKit13throwCryptKitE9feeReturnPKc
Security:single module:__ZN8CryptKit15contextToFeeKeyERKN8Security7ContextER15AppleCSPSessionmmmRb
Security:single module:__ZN8CryptKit12cssmKeyToFeeERKN8Security7CssmKeyER15AppleCSPSessionRb
Security:single module:__ZN8CryptKit15rawCssmKeyToFeeERKN8Security7CssmKeyE
Security:single module:__ZN8CryptKit15feeRandCallbackEPvPhj
Security:single module:__ZN16SignatureContext10outputSizeEbm
Security:single module:__ZN16SignatureContext18setDigestAlgorithmEm
Security:single module:__ZN16SignatureContext5finalERN8Security8CssmDataE
Security:single module:__ZN16SignatureContextD1Ev
Security:single module:__ZN16SignatureContextD2Ev
Security:single module:__ZN8CryptKit11FEEDContextD2Ev
Security:single module:__ZN8CryptKit11FEEDContextD1Ev
Security:single module:__ZN8CryptKit11FEEDContextD0Ev
Security:single module:__ZN8CryptKit11FEEDContextD4Ev
Security:single module:__ZN8CryptKit11FEEDContext4initERKN8Security7ContextEb
Security:single module:__ZN8CryptKit11FEEDContext12encryptBlockEPKvmPvRmb
Security:single module:__ZN8CryptKit11FEEDContext12decryptBlockEPKvPvRmb
Security:single module:__ZN8CryptKit11FEEDContext9inputSizeEm
Security:single module:__ZN8CryptKit11FEEDContext10outputSizeEbm
Security:single module:__ZN8CryptKit11FEEDContext15minimumProgressERmS1_
Security:single module:__ZN8CryptKit14FEEDExpContextD2Ev
Security:single module:__ZN8CryptKit14FEEDExpContextD1Ev
Security:single module:__ZN8CryptKit14FEEDExpContextD0Ev
Security:single module:__ZN8CryptKit14FEEDExpContextD4Ev
Security:single module:__ZN8CryptKit14FEEDExpContext4initERKN8Security7ContextEb
Security:single module:__ZN8CryptKit14FEEDExpContext12encryptBlockEPKvmPvRmb
Security:single module:__ZN8CryptKit14FEEDExpContext12decryptBlockEPKvPvRmb
Security:single module:__ZN8CryptKit9FEESignerD2Ev
Security:single module:__ZN8CryptKit9FEESignerD1Ev
Security:single module:__ZN8CryptKit9FEESignerD0Ev
Security:single module:__ZN8CryptKit9FEESignerD4Ev
Security:single module:__ZN8CryptKit9FEESigner14keyFromContextERKN8Security7ContextE
Security:single module:__ZN8CryptKit9FEESigner10signerInitERKN8Security7ContextEb
Security:single module:__ZN8CryptKit12FEERawSigner4signEPKvmPvPm
Security:single module:__ZN8CryptKit12FEERawSigner6verifyEPKvmS2_m
Security:single module:__ZN8CryptKit12FEERawSigner10maxSigSizeEv
Security:single module:__ZN8CryptKit14FEEECDSASigner4signEPKvmPvPm
Security:single module:__ZN8CryptKit14FEEECDSASigner6verifyEPKvmS2_m
Security:single module:__ZN8CryptKit14FEEECDSASigner10maxSigSizeEv
Security:single module:_ffree
Security:single module:_fmallocWithData
Security:single module:_frealloc
Security:single module:_deserializeGiant
Security:single module:_feeReturnString
Security:single module:_giant_with_data
Security:single module:_mem_from_giant
Security:single module:_printCurveParams
Security:single module:_printGiant
Security:single module:_printGiantExp
Security:single module:_printGiantHex
Security:single module:_printKey
Security:single module:_serializeGiant
Security:single module:_terminateCryptKit
Security:single module:_CRYPTO_free_locked
Security:single module:_CRYPTO_get_locked_mem_functions
Security:single module:_CRYPTO_get_mem_debug_functions
Security:single module:_CRYPTO_get_mem_debug_options
Security:single module:_CRYPTO_get_mem_functions
Security:single module:_CRYPTO_malloc_locked
Security:single module:_CRYPTO_realloc
Security:single module:_CRYPTO_remalloc
Security:single module:_CRYPTO_set_mem_debug_functions
Security:single module:_CRYPTO_set_mem_debug_options
Security:single module:__ZN16RSA_CryptContext12decryptBlockEPKvPvRmb
Security:single module:__ZN16RSA_CryptContextD1Ev
Security:single module:__ZN16RSA_CryptContextD2Ev
Security:single module:__ZN9DSASigner10maxSigSizeEv
Security:single module:__ZN9DSASigner10signerInitERKN8Security7ContextEb
Security:single module:__ZN9DSASigner14keyFromContextERKN8Security7ContextE
Security:single module:__ZN9DSASigner4signEPKvmPvPm
Security:single module:__ZN9DSASigner6verifyEPKvmS1_m
Security:single module:__ZN9DSASignerD0Ev
Security:single module:__ZN9DSASignerD1Ev
Security:single module:__ZN9DSASignerD2Ev
Security:single module:__ZN9DSASignerD4Ev
Security:single module:__ZN9RSASigner10maxSigSizeEv
Security:single module:__ZN9RSASigner4signEPKvmPvPm
Security:single module:__ZN9RSASignerD1Ev
Security:single module:__ZN9RSASignerD2Ev
Security:single module:__ZN9MD2Object10digestInitEv
Security:single module:__ZN9MD2Object12digestUpdateEPKvm
Security:single module:__ZN9MD2Object11digestFinalEPv
Security:single module:__ZNK9MD2Object11digestCloneEv
Security:single module:__ZNK9MD2Object17digestSizeInBytesEv
Security:single module:_BN_clear
Security:single module:_BN_clear_bit
Security:single module:_BN_cmp
Security:single module:_BN_dup
Security:single module:_BN_get_word
Security:single module:_BN_mask_bits
Security:single module:_BN_options
Security:single module:_DHParamBlockDecode
Security:single module:_DHPrivateKeyDecode
Security:single module:_DHPrivateKeyEncode
Security:single module:_DHPublicKeyDecode
Security:single module:_DHPublicKeyEncode
Security:single module:_DSADecodeAlgParams
Security:single module:_DSAEncodeAlgParams
Security:single module:_DSAPrivateKeyDecode
Security:single module:_DSAPrivateKeyEncode
Security:single module:_DSAPublicKeyDecode
Security:single module:_DSAPublicKeyEncode
Security:single module:_DSASigDecode
Security:single module:_DSASigEncode
Security:single module:_RSAPrivateKeyDecode
Security:single module:_RSAPrivateKeyEncode
Security:single module:_RSAPublicKeyEncode
Security:single module:__Z16dhToNssAlgIdX942PK5dh_stR29NSS_DHAlgorithmIdentifierX942R11SecNssCoder
Security:single module:__Z21DHPublicKeyDecodeX509P5dh_stR11SecNssCoderPhj
Security:single module:__Z21DHPublicKeyEncodeX509P5dh_stR11SecNssCoderRN8Security13CssmOwnedDataE
Security:single module:__Z22DSAPublicKeyDecodeX509R11SecNssCoderP6dsa_stPvm
Security:single module:__Z22DSAPublicKeyEncodeX509R11SecNssCoderP6dsa_stRN8Security13CssmOwnedDataE
Security:single module:__Z22RSAPublicKeyEncodeX509R11SecNssCoderP6rsa_stRN8Security13CssmOwnedDataE
Security:single module:__Z23DHPrivateKeyDecodePKCS3R11SecNssCoderP5dh_stPhj
Security:single module:__Z23DHPrivateKeyDecodePKCS8R11SecNssCoderP5dh_stPhj
Security:single module:__Z23DHPrivateKeyEncodePKCS3R11SecNssCoderP5dh_stRN8Security13CssmOwnedDataE
Security:single module:__Z23DHPrivateKeyEncodePKCS8R11SecNssCoderP5dh_stRN8Security13CssmOwnedDataE
Security:single module:__Z24DSAPrivateKeyDecodePKCS8R11SecNssCoderP6dsa_stPvj
Security:single module:__Z24DSAPrivateKeyEncodePKCS8R11SecNssCoderP6dsa_stRN8Security13CssmOwnedDataE
Security:single module:__Z24RSAPrivateKeyDecodePKCS1R11SecNssCoderP6rsa_stPvm
Security:single module:__Z24RSAPrivateKeyEncodePKCS1R11SecNssCoderP6rsa_stRN8Security13CssmOwnedDataE
Security:single module:__Z24RSAPrivateKeyEncodePKCS8R11SecNssCoderP6rsa_stRN8Security13CssmOwnedDataE
Security:single module:__Z25DSAPublicKeyDecodeFIPS186R11SecNssCoderP6dsa_stPvj
Security:single module:__Z25DSAPublicKeyEncodeFIPS186R11SecNssCoderP6dsa_stRN8Security13CssmOwnedDataE
Security:single module:__Z26DSAPrivateKeyDecodeFIPS186R11SecNssCoderP6dsa_stPvj
Security:single module:__Z26DSAPrivateKeyDecodeOpensslR11SecNssCoderP6dsa_stPvm
Security:single module:__Z26DSAPrivateKeyEncodeFIPS186R11SecNssCoderP6dsa_stRN8Security13CssmOwnedDataE
Security:single module:__Z26DSAPrivateKeyEncodeOpensslR11SecNssCoderP6dsa_stRN8Security13CssmOwnedDataE
Security:single module:_bnToCssmData
Security:single module:_cssmDataToBn
Security:single module:_cssmDataToInt
Security:single module:_intToCssmData
Security:single module:_DH_new_method
Security:single module:_DH_set_default_method
Security:single module:_DH_get_default_method
Security:single module:_DH_set_method
Security:single module:_DH_new
Security:single module:_DH_free
Security:single module:_DH_get_ex_new_index
Security:single module:_DH_set_ex_data
Security:single module:_DH_get_ex_data
Security:single module:_DH_size
Security:single module:_generate_key
Security:single module:_compute_key
Security:single module:_DH_generate_key
Security:single module:_DH_compute_key
Security:single module:_DH_OpenSSL
Security:single module:_dh_bn_mod_exp
Security:single module:_dh_init
Security:single module:_dh_finish
Security:single module:_DH_generate_parameters
Security:single module:_contextToDhKey
Security:single module:_cssmKeyToDh
Security:single module:_rawCssmKeyToDh
Security:single module:_CRYPTO_mem_ctrl
Security:single module:_RAND_add
Security:single module:_RAND_pseudo_bytes
Security:single module:_SHA1
Security:single module:__ZN16openSslExceptionC1EiPKc
Security:single module:__ZN16openSslExceptionC2EiPKc
Security:single module:__ZN16openSslExceptionC4EiPKc
Security:single module:_logSslErrInfo
Security:single module:_throwOpensslErr
Security:single module:_throwRsaDsa
Security:single module:_DSA_new_method
Security:single module:_DSA_set_default_method
Security:single module:_DSA_get_default_method
Security:single module:_DSA_new
Security:single module:_DSA_set_method
Security:single module:_DSA_free
Security:single module:_DSA_get_ex_new_index
Security:single module:_DSA_set_ex_data
Security:single module:_DSA_get_ex_data
Security:single module:_DSA_dup_DH
Security:single module:_DSA_generate_key
Security:single module:_DSA_generate_parameters
Security:single module:_RSA_blinding_on
Security:single module:_RSA_flags
Security:single module:_RSA_get_default_method
Security:single module:_RSA_get_ex_data
Security:single module:_RSA_get_ex_new_index
Security:single module:_RSA_get_method
Security:single module:_RSA_memory_lock
Security:single module:_RSA_private_decrypt
Security:single module:_RSA_private_encrypt
Security:single module:_RSA_set_default_method
Security:single module:_RSA_set_ex_data
Security:single module:_RSA_set_method
Security:single module:_RSA_generate_key
Security:single module:_contextToDsaKey
Security:single module:_cssmKeyToDsa
Security:single module:_dsaGetParamsFromKey
Security:single module:_dsaKeyPrivToPub
Security:single module:_rawCssmKeyToDsa
Security:single module:_feePubKeyAlloc
Security:single module:_feePubKeyFree
Security:single module:_feePubKeyInitFromPrivDataKeyBits
Security:single module:_feePubKeyInitFromPrivDataDepth
Security:single module:_feePubKeyInitFromKey
Security:single module:_feePubKeyInitFromKeyString
Security:single module:_feePubKeyCreateKeyString
Security:single module:_feePubKeyCreatePubBlob
Security:single module:_feePubKeyCreatePrivBlob
Security:single module:_feePubKeyInitPubKeyFromPriv
Security:single module:_feePubKeyIsEqual
Security:single module:_feePubKeyIsPrivate
Security:single module:_feePubKeyCreatePad
Security:single module:_feePubKeyCreateSignature
Security:single module:_feePubKeyVerifySignature
Security:single module:_feePubKeyCreateECDSASignature
Security:single module:_feePubKeyVerifyECDSASignature
Security:single module:_feePubKeyBitsize
Security:single module:_feePubKeyPlusCurve
Security:single module:_feePubKeyMinusCurve
Security:single module:_feePubKeyCurveParams
Security:single module:_feePubKeyPrivData
Security:single module:_feePubKeyAlgorithmName
Security:single module:_pubKeyInstAlloc
Security:single module:_pubKeyInstFree
Security:single module:_feeGenPrivate
Security:single module:_printPubKey
Security:single module:_createKeyBlob
Security:single module:_feePubKeyInitFromKeyBlob
Security:single module:_feePubKeyInitFromPubBlob
Security:single module:_feePubKeyInitFromPrivBlob
Security:single module:_feePubKeyCreateDERPubBlob
Security:single module:_feePubKeyCreateDERPrivBlob
Security:single module:_feePubKeyInitFromDERPubBlob
Security:single module:_feePubKeyInitFromDERPrivBlob
Security:single module:__ZN11GAESContextC2ER15AppleCSPSession
Security:single module:__ZN11GAESContextD1Ev
Security:single module:__ZN11GAESContextD2Ev
Security:single module:__ZN16AESKeyGenContext8generateERKN8Security7ContextERNS0_7CssmKeyES5_
Security:single module:__ZN10AESContextD2Ev
Security:single module:__ZN10AESContextD1Ev
Security:single module:__ZN10AESContextD0Ev
Security:single module:__ZN10AESContextD4Ev
Security:single module:__ZN10AESContext8aesErrorEiPKc
Security:single module:__ZN10AESContext9deleteKeyEv
Security:single module:__ZN10AESContext4initERKN8Security7ContextEb
Security:single module:__ZN10AESContext12encryptBlockEPKvmPvRmb
Security:single module:__ZN10AESContext12decryptBlockEPKvPvRmb
Security:single module:__ZN10DESContext12decryptBlockEPKvPvRmb
Security:single module:__ZN10DESContext12encryptBlockEPKvmPvRmb
Security:single module:__ZN10DESContext4initERKN8Security7ContextEb
Security:single module:__ZN10DESContextD0Ev
Security:single module:__ZN10DESContextD1Ev
Security:single module:__ZN10DESContextD2Ev
Security:single module:__ZN10DESContextD4Ev
Security:single module:__ZN11DES3Context12encryptBlockEPKvmPvRmb
Security:single module:__ZN11DES3ContextD1Ev
Security:single module:__ZN11DES3ContextD2Ev
Security:single module:__ZN10MacContextD1Ev
Security:single module:__ZN10MacContextD2Ev
Security:single module:__ZN16MacLegacyContext10outputSizeEbm
Security:single module:__ZN16MacLegacyContext5finalERN8Security8CssmDataE
Security:single module:__ZN16MacLegacyContextD1Ev
Security:single module:__ZN16MacLegacyContextD2Ev
Security:single module:__ZN10RC2ContextD2Ev
Security:single module:__ZN10RC2ContextD1Ev
Security:single module:__ZN10RC2ContextD0Ev
Security:single module:__ZN10RC2ContextD4Ev
Security:single module:__ZN10RC2Context4initERKN8Security7ContextEb
Security:single module:__ZN10RC2Context12encryptBlockEPKvmPvRmb
Security:single module:__ZN10RC2Context12decryptBlockEPKvPvRmb
Security:single module:__ZN10RC4Context15minimumProgressERmS0_
Security:single module:__ZN10RC4Context5finalERN8Security8CssmDataE
Security:single module:__ZN10RC4ContextD1Ev
Security:single module:__ZN10RC4ContextD2Ev
Security:single module:__ZN10RC5ContextD2Ev
Security:single module:__ZN10RC5ContextD1Ev
Security:single module:__ZN10RC5ContextD0Ev
Security:single module:__ZN10RC5ContextD4Ev
Security:single module:__ZN10RC5Context4initERKN8Security7ContextEb
Security:single module:__ZN10RC5Context12encryptBlockEPKvmPvRmb
Security:single module:__ZN10RC5Context12decryptBlockEPKvPvRmb
Security:single module:__ZN11CastContextD2Ev
Security:single module:__ZN11CastContextD1Ev
Security:single module:__ZN11CastContextD0Ev
Security:single module:__ZN11CastContextD4Ev
Security:single module:__ZN11CastContext9deleteKeyEv
Security:single module:__ZN11CastContext4initERKN8Security7ContextEb
Security:single module:__ZN11CastContext12encryptBlockEPKvmPvRmb
Security:single module:__ZN11CastContext12decryptBlockEPKvPvRmb
Security:single module:__ZN15BlowfishContextD2Ev
Security:single module:__ZN15BlowfishContextD1Ev
Security:single module:__ZN15BlowfishContextD0Ev
Security:single module:__ZN15BlowfishContextD4Ev
Security:single module:__ZN15BlowfishContext9deleteKeyEv
Security:single module:__ZN15BlowfishContext4initERKN8Security7ContextEb
Security:single module:__ZN15BlowfishContext12encryptBlockEPKvmPvRmb
Security:single module:__ZN15BlowfishContext12decryptBlockEPKvPvRmb
Security:single module:__ZN10TPCertInfo11subjectNameEv
Security:single module:__ZN10TPCertInfo13addStatusCodeEl
Security:single module:__ZN10TPCertInfoC2EmmPK9cssm_data10TPItemCopyPKc
Security:single module:__ZN10TPCertInfoD2Ev
Security:single module:__ZN11TPCertGroup17removeCertAtIndexEj
Security:single module:__ZN11TPCertGroup21verifyWithPartialKeysERK12TPClItemInfo
Security:single module:__ZN11TPCertGroup9firstCertEv
Security:single module:__ZN11TPCertGroupC2ERK14cssm_certgroupmmRN8Security13CssmAllocatorEPKcb12TPGroupOwner
Security:single module:__ZN11TPCertGroupC2ERN8Security13CssmAllocatorE12TPGroupOwner
Security:single module:__ZN11TPCertGroupD2Ev
Security:single module:__ZN12TPClItemInfoC1EmmRK13TPClItemCallsPK9cssm_data10TPItemCopyPKc
Security:single module:__ZN12TPClItemInfoD1Ev
Security:single module:__ZN14AppleTPSession18CertGroupConstructEmmRK15cssm_dl_db_listPKvRK14cssm_certgroupRPS5_
Security:single module:__ZThn40_N14AppleTPSession18CertGroupConstructEmmRK15cssm_dl_db_listPKvRK14cssm_certgroupRPS5_
Security:single module:__ZN14AppleTPSession13buildX509NameEPK22CSSM_APPLE_TP_NAME_OIDj
Security:single module:__ZN14AppleTPSession12freeX509NameEP14cssm_x509_name
Security:single module:__ZN14AppleTPSession13buildX509TimeEj
Security:single module:__ZN14AppleTPSession12freeX509TimeEP14cssm_x509_time
Security:single module:__Z8intToDERmR9cssm_dataRN8Security13CssmAllocatorE
Security:single module:__Z8DERToIntRK9cssm_data
Security:single module:__ZN14AppleTPSession11refKeyToRawEmPK8cssm_keyPS0_
Security:single module:__ZN14AppleTPSession16makeCertTemplateEmmmPK14cssm_x509_nameS2_PK14cssm_x509_timeS5_PK8cssm_keyRK9cssm_dataPSA_SC_P19cssm_x509_extensionjRPS9_
Security:single module:__ZN14AppleTPSession12addCertToMapEPK9cssm_dataPS0_
Security:single module:__ZN14AppleTPSession14getCertFromMapEPK9cssm_data
Security:single module:__ZN14AppleTPSession16SubmitCsrRequestERK19cssm_tp_request_setRlRN8Security8CssmDataE
Security:single module:__ZN14AppleTPSession17SubmitCredRequestEPK20cssm_tp_authority_idmRK19cssm_tp_request_setPK26cssm_tp_callerauth_contextRlRN8Security8CssmDataE
Security:single module:__ZThn40_N14AppleTPSession17SubmitCredRequestEPK20cssm_tp_authority_idmRK19cssm_tp_request_setPK26cssm_tp_callerauth_contextRlRN8Security8CssmDataE
Security:single module:__ZN14AppleTPSession18RetrieveCredResultERKN8Security8CssmDataEPK26cssm_tp_callerauth_contextRlS7_RP18cssm_tp_result_set
Security:single module:__ZThn40_N14AppleTPSession18RetrieveCredResultERKN8Security8CssmDataEPK26cssm_tp_callerauth_contextRlS7_RP18cssm_tp_result_set
Security:single module:__Z26tpGetFirstCachedFieldValuemmPK9cssm_dataPmS2_PPS_
Security:single module:__ZN10TPCrlGroup10crlAtIndexEj
Security:single module:__ZN10TPCrlGroup14findCrlForCertER10TPCertInfo
Security:single module:__ZN10TPCrlGroup16removeCrlAtIndexEj
Security:single module:__ZN10TPCrlGroup7lastCrlEv
Security:single module:__ZN10TPCrlGroup8firstCrlEv
Security:single module:__ZN10TPCrlGroup9appendCrlER9TPCrlInfo
Security:single module:__ZN10TPCrlGroup9removeCrlER9TPCrlInfo
Security:single module:__ZN10TPCrlGroupC1EPK13cssm_crlgroupmmRN8Security13CssmAllocatorEPKc12TPGroupOwner
Security:single module:__ZN10TPCrlGroupC1ERN8Security13CssmAllocatorE12TPGroupOwner
Security:single module:__ZN10TPCrlGroupC2EPK13cssm_crlgroupmmRN8Security13CssmAllocatorEPKc12TPGroupOwner
Security:single module:__ZN10TPCrlGroupC2ERN8Security13CssmAllocatorE12TPGroupOwner
Security:single module:__ZN10TPCrlGroupC4ERN8Security13CssmAllocatorE12TPGroupOwner
Security:single module:__ZN10TPCrlGroupD2Ev
Security:single module:__ZN9TPCrlInfo13hasSameIssuerERK10TPCertInfo
Security:single module:__ZN9TPCrlInfo13isCertRevokedER10TPCertInfo
Security:single module:__ZN9TPCrlInfo15parseExtensionsER18TPCrlVerifyContextbmRK20cssm_x509_extensionsP10TPCertInfoRb
Security:single module:__ZN9TPCrlInfo16releaseResourcesEv
Security:single module:__ZN9TPCrlInfo17verifyWithContextER18TPCrlVerifyContextP10TPCertInfob
Security:single module:__ZN9TPCrlInfo3uriERK9cssm_data
Security:single module:__ZN9TPCrlInfoC1EmmPK9cssm_data10TPItemCopyPKc
Security:single module:__ZN9TPCrlInfoC2EmmPK9cssm_data10TPItemCopyPKc
Security:single module:__ZN9TPCrlInfoC4EmmPK9cssm_data10TPItemCopyPKc
Security:single module:__ZN9TPCrlInfoD1Ev
Security:single module:__ZN9TPCrlInfoD2Ev
Security:single module:__ZN9TPCrlInfoD4Ev
Security:single module:__ZN11DecodedCert16encodeExtensionsEv
Security:single module:__ZN11DecodedCert9decodeTbsERKN8Security8CssmDataE
Security:single module:__ZN11DecodedCert9encodeTbsERN8Security13CssmOwnedDataE
Security:single module:__ZN11DecodedCertC1ER18AppleX509CLSession
Security:single module:__ZN11DecodedCertC2ER18AppleX509CLSession
Security:single module:__ZN11DecodedCertC2ER18AppleX509CLSessionRKN8Security8CssmDataE
Security:single module:__ZN11DecodedCertC4ER18AppleX509CLSession
Security:single module:__ZN11DecodedCertD2Ev
Security:single module:__Z10CL_reallocPvmS_
Security:single module:__Z7CL_freePvS_
Security:single module:__Z9CL_callocmmPv
Security:single module:__Z9CL_mallocmPv
Security:single module:__ZN11CSPAttacherD1Ev
Security:single module:__ZN11CSPAttacherD2Ev
Security:single module:__ZN11CSPAttacherD4Ev
Security:single module:__Z16getField_VersionR11DecodedItemjRmRN8Security13CssmOwnedDataE
Security:single module:__Z16setField_VersionR11DecodedItemRKN8Security8CssmDataE
Security:single module:__Z15getField_IssuerR11DecodedItemjRmRN8Security13CssmOwnedDataE
Security:single module:__Z15setField_IssuerR11DecodedItemRKN8Security8CssmDataE
Security:single module:__Z19getField_ThisUpdateR11DecodedItemjRmRN8Security13CssmOwnedDataE
Security:single module:__Z19setField_ThisUpdateR11DecodedItemRKN8Security8CssmDataE
Security:single module:__Z19getField_NextUpdateR11DecodedItemjRmRN8Security13CssmOwnedDataE
Security:single module:__Z19setField_NextUpdateR11DecodedItemRKN8Security8CssmDataE
Security:single module:__Z18getFieldIssuerNormR11DecodedItemjRmRN8Security13CssmOwnedDataE
Security:single module:__Z20getField_CrlTbsAlgIdR11DecodedItemjRmRN8Security13CssmOwnedDataE
Security:single module:__Z21nssRevokedEntryToCssmR15NSS_RevokedCertR28cssm_x509_revoked_cert_entryRN8Security13CssmAllocatorE
Security:single module:__Z13freeCssmEntryP28cssm_x509_revoked_cert_entryRN8Security13CssmAllocatorE
Security:single module:__Z20nssRevokedListToCssmPP15NSS_RevokedCertP27cssm_x509_revoked_cert_listRN8Security13CssmAllocatorE
Security:single module:__Z19freeCssmRevokedListP27cssm_x509_revoked_cert_listRN8Security13CssmAllocatorE
Security:single module:__Z18getField_SignedCrlR11DecodedItemjRmRN8Security13CssmOwnedDataE
Security:single module:__Z18setField_SignedCrlR11DecodedItemRKN8Security8CssmDataE
Security:single module:__Z19freeField_SignedCrlRN8Security13CssmOwnedDataE
Security:single module:__Z11oidToFieldsRKN8Security8CssmDataE
Security:single module:__Z19CL_freeCrlFieldDataRKN8Security8CssmDataERNS_13CssmOwnedDataEb
Security:single module:__Z21CL_freeCssmExtensionsR20cssm_x509_extensionsRN8Security13CssmAllocatorE
Security:single module:__ZN10DecodedCrl15getCrlFieldDataERKN8Security8CssmDataEjRmRNS0_13CssmOwnedDataE
Security:single module:__ZN10DecodedCrl11setCrlFieldERKN8Security8CssmDataES3_
Security:single module:__ZN10DecodedCrl16freeCrlFieldDataERKN8Security8CssmDataERNS0_13CssmOwnedDataE
Security:single module:__ZN10DecodedCrl21getAllParsedCrlFieldsERmRP10cssm_field
Security:single module:__ZN10DecodedCrl14describeFormatERN8Security13CssmAllocatorERmRP9cssm_data
Security:single module:__ZN10DecodedCrlC2ER18AppleX509CLSession
Security:single module:__ZN10DecodedCrlC1ER18AppleX509CLSession
Security:single module:__ZN10DecodedCrlC4ER18AppleX509CLSession
Security:single module:__ZN10DecodedCrlC2ER18AppleX509CLSessionRKN8Security8CssmDataE
Security:single module:__ZN10DecodedCrlC1ER18AppleX509CLSessionRKN8Security8CssmDataE
Security:single module:__ZN10DecodedCrlC4ER18AppleX509CLSessionRKN8Security8CssmDataE
Security:single module:__ZN10DecodedCrlD2Ev
Security:single module:__ZN10DecodedCrlD1Ev
Security:single module:__ZN10DecodedCrlD0Ev
Security:single module:__ZN10DecodedCrlD4Ev
Security:single module:__ZN10DecodedCrl9decodeCtsERKN8Security8CssmDataE
Security:single module:__ZN10DecodedCrl16encodeExtensionsEv
Security:single module:__ZN10DecodedCrl9encodeCtsERN8Security13CssmOwnedDataE
Security:single module:__Z15getField_IssuerR11DecodedItemjRmRN8Security13CssmOwnedDataE
Security:single module:__Z15setField_IssuerR11DecodedItemRKN8Security8CssmDataE
Security:single module:__Z16getField_VersionR11DecodedItemjRmRN8Security13CssmOwnedDataE
Security:single module:__Z16setField_SubjectR11DecodedItemRKN8Security8CssmDataE
Security:single module:__Z16setField_VersionR11DecodedItemRKN8Security8CssmDataE
Security:single module:__Z17getFieldIssuerStdR11DecodedItemjRmRN8Security13CssmOwnedDataE
Security:single module:__Z17setField_NotAfterR11DecodedItemRKN8Security8CssmDataE
Security:single module:__Z17setField_TbsAlgIdR11DecodedItemRKN8Security8CssmDataE
Security:single module:__Z18getFieldSubjectStdR11DecodedItemjRmRN8Security13CssmOwnedDataE
Security:single module:__Z18getField_CertAlgIdR11DecodedItemjRmRN8Security13CssmOwnedDataE
Security:single module:__Z18getField_SignatureR11DecodedItemjRmRN8Security13CssmOwnedDataE
Security:single module:__Z18setField_NotBeforeR11DecodedItemRKN8Security8CssmDataE
Security:single module:__Z21getField_SerialNumberR11DecodedItemjRmRN8Security13CssmOwnedDataE
Security:single module:__Z21setField_SerialNumberR11DecodedItemRKN8Security8CssmDataE
Security:single module:__Z22getField_PublicKeyInfoR11DecodedItemjRmRN8Security13CssmOwnedDataE
Security:single module:__Z22setField_PublicKeyInfoR11DecodedItemRKN8Security8CssmDataE
Security:single module:__Z23freeField_PublicKeyInfoRN8Security13CssmOwnedDataE
Security:single module:__Z23getField_IssuerUniqueIdR11DecodedItemjRmRN8Security13CssmOwnedDataE
Security:single module:__Z23setField_IssuerUniqueIdR11DecodedItemRKN8Security8CssmDataE
Security:single module:__Z24getField_PublicKeyStructR11DecodedItemjRmRN8Security13CssmOwnedDataE
Security:single module:__Z24getField_SubjectUniqueIdR11DecodedItemjRmRN8Security13CssmOwnedDataE
Security:single module:__Z24setField_PublicKeyStructR11DecodedItemRKN8Security8CssmDataE
Security:single module:__Z24setField_SubjectUniqueIdR11DecodedItemRKN8Security8CssmDataE
Security:single module:__Z25freeField_PublicKeyStructRN8Security13CssmOwnedDataE
Security:single module:__ZN11DecodedCert12setCertFieldERKN8Security8CssmDataES3_
Security:single module:__ZN11DecodedCert14describeFormatERN8Security13CssmAllocatorERmRP9cssm_data
Security:single module:__ZN11DecodedCert22getAllParsedCertFieldsERmRP10cssm_field
Security:single module:__ZN18AppleX509CLSession11generateCsrEyPK25CSSM_APPLE_CL_CSR_REQUESTRP9cssm_data
Security:single module:__ZN18AppleX509CLSession9verifyCsrEPK9cssm_data
Security:single module:__ZN12SSMACContext10outputSizeEbm
Security:single module:__ZN12SSMACContext4initERKN8Security7ContextEb
Security:single module:__ZN12SSMACContext5finalERKN8Security8CssmDataE
Security:single module:__ZN12SSMACContext5finalERN8Security8CssmDataE
Security:single module:__ZN12SSMACContext6genMacERN8Security8CssmDataE
Security:single module:__ZN12SSMACContext6updateERKN8Security8CssmDataE
Security:single module:__ZN12SSMACContextC1ER12SSCSPSession
Security:single module:__ZN12SSMACContextC2ER12SSCSPSession
Security:single module:__ZN12SSMACContextC4ER12SSCSPSession
Security:single module:__ZN14SSCryptContext15minimumProgressERmS0_
Security:single module:__ZN14SSCryptContextC2ER12SSCSPSession
Security:single module:__ZN14SSCryptContextD1Ev
Security:single module:__ZN14SSCryptContextD2Ev
Security:single module:__ZN15SSDigestContext10outputSizeEbm
Security:single module:__ZN15SSDigestContext4initERKN8Security7ContextEb
Security:single module:__ZN15SSDigestContext5finalERN8Security8CssmDataE
Security:single module:__ZN15SSDigestContext6updateERKN8Security8CssmDataE
Security:single module:__ZN15SSDigestContextC1ER12SSCSPSession
Security:single module:__ZN15SSDigestContextC2ER12SSCSPSession
Security:single module:__ZN15SSDigestContextC4ER12SSCSPSession
Security:single module:__ZN15SSDigestContextD0Ev
Security:single module:__ZN15SSDigestContextD1Ev
Security:single module:__ZN15SSDigestContextD2Ev
Security:single module:__ZN15SSDigestContextD4Ev
Security:single module:__ZN15SSRandomContext10outputSizeEbm
Security:single module:__ZN15SSRandomContext4initERKN8Security7ContextEb
Security:single module:__ZN15SSRandomContext5finalERN8Security8CssmDataE
Security:single module:__ZN15SSRandomContextC1ER12SSCSPSession
Security:single module:__ZN15SSRandomContextC2ER12SSCSPSession
Security:single module:__ZN15SSRandomContextC4ER12SSCSPSession
Security:single module:__ZN18SSSignatureContext10outputSizeEbm
Security:single module:__ZN18SSSignatureContext18setDigestAlgorithmEm
Security:single module:__ZN18SSSignatureContext4initERKN8Security7ContextEb
Security:single module:__ZN18SSSignatureContext4signERN8Security8CssmDataE
Security:single module:__ZN18SSSignatureContext5finalERKN8Security8CssmDataE
Security:single module:__ZN18SSSignatureContext5finalERN8Security8CssmDataE
Security:single module:__ZN18SSSignatureContext6updateERKN8Security8CssmDataE
Security:single module:__ZN18SSSignatureContextC1ER12SSCSPSession
Security:single module:__ZN18SSSignatureContextC2ER12SSCSPSession
Security:single module:__ZN18SSSignatureContextC4ER12SSCSPSession
Security:single module:__ZN18SSSignatureContextD0Ev
Security:single module:__ZN18SSSignatureContextD1Ev
Security:single module:__ZN18SSSignatureContextD2Ev
Security:single module:__ZN18SSSignatureContextD4Ev
Security:single module:__ZN9SSContextC1ER12SSCSPSession
Security:single module:_key_perm
Security:single module:_keybyte
Security:single module:_keynybble
Security:single module:_keyHash
Security:single module:_mallocCodeBufs
Security:single module:_initCodeBufs
Security:single module:_freeCodeBufs
Security:single module:_serializeInt
Security:single module:_deserializeInt
Security:single module:_initSigSequence
Security:single module:_sigMunge
Security:single module:_ascMalloc
Security:single module:_ascFree
Security:single module:_BN_add_word
Security:single module:_BN_div_word
Security:single module:_BN_mod_word
Security:single module:_BN_mul_word
Security:single module:_sha1DigestLen
Security:single module:__ZN12BlockCryptor15minimumProgressERmS0_
Security:single module:__ZN12BlockCryptorD0Ev
Security:single module:__ZN12BlockCryptorD1Ev
Security:single module:_initFromRS
Security:single module:_feeFEEDNewWithPubKey
Security:single module:_feeFEEDFree
Security:single module:_feeFEEDPlainBlockSize
Security:single module:_feeFEEDCipherBlockSize
Security:single module:_feeFEEDCipherBufSize
Security:single module:_feeFEEDCipherTextSize
Security:single module:_feeFEEDPlainTextSize
Security:single module:_feeFEEDEncryptBlock
Security:single module:_feeFEEDDecryptBlock
Security:single module:_feeFEEDEncrypt
Security:single module:_feeFEEDDecrypt
Security:single module:_feeFEEDExpNewWithPubKey
Security:single module:_feeFEEDExpFree
Security:single module:_feeFEEDExpPlainBlockSize
Security:single module:_feeFEEDExpCipherBlockSize
Security:single module:_feeFEEDExpCipherBufSize
Security:single module:_feeFEEDExpCipherTextSize
Security:single module:_feeFEEDExpPlainTextSize
Security:single module:_feeFEEDExpEncryptBlock
Security:single module:_feeFEEDExpDecryptBlock
Security:single module:_feeFEEDExpEncrypt
Security:single module:_feeFEEDExpDecrypt
Security:single module:_feeECDSASign
Security:single module:_feeECDSAVerify
Security:single module:_ECDSA_encode
Security:single module:_ECDSA_decode
Security:single module:_feeECDSASigSize
Security:single module:_sinstAlloc
Security:single module:_feeSigNewWithKey
Security:single module:_feeSigFree
Security:single module:_feeSigPm
Security:single module:_feeSigSign
Security:single module:_feeSigData
Security:single module:_feeSigParse
Security:single module:_borrowPointProj
Security:single module:_returnPointProj
Security:single module:_feeSigVerify
Security:single module:_feeSigVerifyNoProj
Security:single module:_feeSigSize
Security:single module:_CKRaise
Security:single module:_createRandomSeed
Security:single module:_borrowGiant
Security:single module:_returnGiant
Security:single module:_freeGiant
Security:single module:_newGiant
Security:single module:_copyGiant
Security:single module:_bitlen
Security:single module:_bitval
Security:single module:_gsign
Security:single module:_gtrimSign
Security:single module:_isone
Security:single module:_isZero
Security:single module:_gcompg
Security:single module:_gtog
Security:single module:_int_to_giant
Security:single module:_negg
Security:single module:_iaddg
Security:single module:_imulg
Security:single module:_normal_addg
Security:single module:_normal_subg
Security:single module:_reverse_subg
Security:single module:_addg
Security:single module:_subg
Security:single module:_bdivg
Security:single module:_binvaux
Security:single module:_absg
Security:single module:_gshiftleft
Security:single module:_gshiftright
Security:single module:_extractbits
Security:single module:_gmersennemod
Security:single module:_mulg
Security:single module:_grammarSquare
Security:single module:_clearGiant
Security:single module:_make_recip
Security:single module:_divg_via_recip
Security:single module:_modg_via_recip
Security:single module:_modg
Security:single module:_divg
Security:single module:_DSA_SIG_new
Security:single module:_DSA_SIG_free
Security:single module:_DSA_do_sign
Security:single module:_DSA_sign_setup
Security:single module:_DSA_do_verify
Security:single module:_MD2_Update
Security:single module:_md2_block
Security:single module:_MD2_options
Security:single module:_MD2_Init
Security:single module:_MD2_Final
Security:single module:_ERR_get_state
Security:single module:_ERR_add_error_data
Security:single module:_ERR_load_ERR_strings
Security:single module:_ERR_load_strings
Security:single module:_ERR_free_strings
Security:single module:_ERR_put_error
Security:single module:_ERR_clear_error
Security:single module:_ERR_get_error
Security:single module:_ERR_get_error_line
Security:single module:_ERR_get_error_line_data
Security:single module:_ERR_peek_error
Security:single module:_ERR_peek_error_line
Security:single module:_ERR_peek_error_line_data
Security:single module:_ERR_error_string
Security:single module:_ERR_get_string_table
Security:single module:_ERR_get_err_state_table
Security:single module:_ERR_lib_error_string
Security:single module:_ERR_func_error_string
Security:single module:_ERR_reason_error_string
Security:single module:_ERR_remove_state
Security:single module:_ERR_get_next_error_library
Security:single module:_ERR_set_error_data
Security:single module:_err_hash
Security:single module:_err_cmp
Security:single module:_pid_hash
Security:single module:_pid_cmp
Security:single module:_get_error_values
Security:single module:_CRYPTO_get_add_lock_callback
Security:single module:_CRYPTO_get_id_callback
Security:single module:_CRYPTO_get_locking_callback
Security:single module:_CRYPTO_get_new_lockid
Security:single module:_CRYPTO_lock
Security:single module:_CRYPTO_num_locks
Security:single module:_CRYPTO_set_add_lock_callback
Security:single module:_CRYPTO_set_id_callback
Security:single module:_CRYPTO_set_locking_callback
Security:single module:_CRYPTO_thread_id
Security:single module:_CRYPTO_dup_ex_data
Security:single module:_CRYPTO_get_ex_data
Security:single module:_CRYPTO_get_ex_new_index
Security:single module:_CRYPTO_set_ex_data
Security:single module:_sk_CRYPTO_EX_DATA_FUNCS_delete
Security:single module:_sk_CRYPTO_EX_DATA_FUNCS_delete_ptr
Security:single module:_sk_CRYPTO_EX_DATA_FUNCS_dup
Security:single module:_sk_CRYPTO_EX_DATA_FUNCS_find
Security:single module:_sk_CRYPTO_EX_DATA_FUNCS_free
Security:single module:_sk_CRYPTO_EX_DATA_FUNCS_insert
Security:single module:_sk_CRYPTO_EX_DATA_FUNCS_new
Security:single module:_sk_CRYPTO_EX_DATA_FUNCS_new_null
Security:single module:_sk_CRYPTO_EX_DATA_FUNCS_num
Security:single module:_sk_CRYPTO_EX_DATA_FUNCS_pop
Security:single module:_sk_CRYPTO_EX_DATA_FUNCS_pop_free
Security:single module:_sk_CRYPTO_EX_DATA_FUNCS_push
Security:single module:_sk_CRYPTO_EX_DATA_FUNCS_set
Security:single module:_sk_CRYPTO_EX_DATA_FUNCS_set_cmp_func
Security:single module:_sk_CRYPTO_EX_DATA_FUNCS_shift
Security:single module:_sk_CRYPTO_EX_DATA_FUNCS_sort
Security:single module:_sk_CRYPTO_EX_DATA_FUNCS_unshift
Security:single module:_sk_CRYPTO_EX_DATA_FUNCS_value
Security:single module:_sk_CRYPTO_EX_DATA_FUNCS_zero
Security:single module:_BN_CTX_init
Security:single module:_BN_MONT_CTX_copy
Security:single module:_BN_MONT_CTX_init
Security:single module:_BN_exp
Security:single module:_BN_mod_exp
Security:single module:_BN_mod_exp_mont_word
Security:single module:_BN_mod_exp_recp
Security:single module:_BN_mod_exp_simple
Security:single module:_BN_mod_mul
Security:single module:_BN_rand_range
Security:single module:_BN_rand
Security:single module:_BN_pseudo_rand
Security:single module:_BN_bntest_rand
Security:single module:_bnrand
Security:single module:_BN_generate_prime
Security:single module:_BN_is_prime_fasttest
Security:single module:_witness
Security:single module:_probable_prime
Security:single module:_probable_prime_dh
Security:single module:_probable_prime_dh_safe
Security:single module:_BN_is_prime
Security:single module:_dsa_do_sign
Security:single module:_dsa_sign_setup
Security:single module:_dsa_do_verify
Security:single module:_DSA_OpenSSL
Security:single module:_dsa_init
Security:single module:_dsa_finish
Security:single module:_dsa_mod_exp
Security:single module:_dsa_bn_mod_exp
Security:single module:_BN_lshift1
Security:single module:_BN_rshift1
Security:single module:_BN_BLINDING_new
Security:single module:_BN_BLINDING_free
Security:single module:_BN_BLINDING_update
Security:single module:_BN_BLINDING_convert
Security:single module:_BN_BLINDING_invert
Security:single module:_BN_gcd
Security:single module:_euclid
Security:single module:_RSA_eay_mod_exp
Security:single module:_RSA_eay_private_decrypt
Security:single module:_RSA_eay_private_encrypt
Security:single module:_bn_mul_high
Security:single module:_bn_mul_low_normal
Security:single module:_bn_mul_low_recursive
Security:single module:_bn_mul_part_recursive
Security:single module:_intToByteRep
Security:single module:_shortToByteRep
Security:single module:_giantToByteRep
Security:single module:_keyToByteRep
Security:single module:_curveParamsToByteRep
Security:single module:_sigToByteRep
Security:single module:_lengthOfByteRepGiant
Security:single module:_lengthOfByteRepKey
Security:single module:_lengthOfByteRepCurveParams
Security:single module:_lengthOfByteRepSig
Security:single module:_byteRepToInt
Security:single module:_byteRepToShort
Security:single module:_byteRepToGiant
Security:single module:_byteRepToKey
Security:single module:_byteRepToCurveParams
Security:single module:_byteRepToSig
Security:single module:_arrayToGiant
Security:single module:_newCurveParams
Security:single module:_allocRecipGiants
Security:single module:_curveParamsForDepth
Security:single module:_curveParamsCopy
Security:single module:_freeCurveParams
Security:single module:_curveParamsEquivalent
Security:single module:_lesserX1Order
Security:single module:_curveParamsInferFields
Security:single module:_feeKeyBitsToDepth
Security:single module:_encChunk
Security:single module:_enc64
Security:single module:_enc64WithLines
Security:single module:_stringCleanse
Security:single module:_dec64
Security:single module:_isValidEnc64
Security:single module:__ZN12feeExceptionC2E9feeReturnPKc
Security:single module:__ZN12feeExceptionC1E9feeReturnPKc
Security:single module:__ZN12feeExceptionC4E9feeReturnPKc
Security:single module:__ZN12feeException7throwMeE9feeReturnPKc
Security:single module:_feeSizeOfDERSig
Security:single module:_feeDEREncodeElGamalSignature
Security:single module:_feeDEREncodeECDSASignature
Security:single module:_feeDERDecodeElGamalSignature
Security:single module:_feeDERDecodeECDSASignature
Security:single module:_feeDEREncodePublicKey
Security:single module:_feeDEREncodePrivateKey
Security:single module:_feeDERDecodePublicKey
Security:single module:_feeDERDecodePrivateKey
Security:single module:__Z13cssmDataToIntRK9cssm_data
Security:single module:__Z13intToCssmDatajR9cssm_dataR11SecNssCoder
Security:single module:__Z15cssmDataToGiantRK9cssm_data
Security:single module:__Z15giantToCssmDataP11giantstructR9cssm_dataR11SecNssCoder
Security:single module:__Z20feeCurveParamsToASN1PK11curveParamsR22FEECurveParametersASN1R11SecNssCoder
Security:single module:__Z22feeCurveParamsFromAsn1RK22FEECurveParametersASN1
Security:single module:_feeHashAlloc
Security:single module:_feeHashReinit
Security:single module:_feeHashFree
Security:single module:_feeHashAddData
Security:single module:_feeHashDigest
Security:single module:_feeHashDigestLen
Security:single module:_which_curve
Security:single module:_new_public
Security:single module:_new_public_with_key
Security:single module:_free_key
Security:single module:_set_priv_key_giant
Security:single module:_key_equal
Security:single module:_make_base
Security:single module:_make_base_prim
Security:single module:_sequalg
Security:single module:_elliptic_simple
Security:single module:_elliptic
Security:single module:_elliptic_add
Security:single module:_make_pad
Security:single module:_ell_even
Security:single module:_ell_odd
Security:single module:_keys_inconsistent
Security:single module:_signature_compare
Security:single module:_numer_double
Security:single module:_numer_plus
Security:single module:_denom_double
Security:single module:_denom_times
Security:single module:_numer_times
Security:single module:_feepowermodg
Security:single module:_curveOrderJustify
Security:single module:_curveOrderJustifyWithRecip
Security:single module:_lesserX1OrderJustify
Security:single module:_calcX1OrderPlusRecip
Security:single module:_x1OrderPlusJustify
Security:single module:_x1OrderPlusMod
Security:single module:_feemod
Security:single module:_calcGiantSizes
Security:single module:_giantMinBytes
Security:single module:_giantMaxDigits
Security:single module:_binvg_cp
Security:single module:_binvg_x1OrderPlus
Security:single module:_makeKey
Security:single module:_rijndaelBlockEncrypt
Security:single module:_rijndaelBlockDecrypt
Security:single module:_RC2_encrypt
Security:single module:_RC2_decrypt
Security:single module:_RC2_set_key
Security:single module:_RC5_32_encrypt
Security:single module:_RC5_32_decrypt
Security:single module:_RC5_32_set_key
Security:single module:_CAST_ecb_encrypt
Security:single module:_CAST_set_key
Security:single module:_BF_ecb_encrypt
Security:single module:_BF_options
Security:single module:_BF_set_key
Security:single module:_timeAtNowPlus
Security:single module:_tpTimeToCssmTimestring
Security:single module:__Z13tpNextDnsCompPKcRmPcS1_
Security:single module:__Z14tpCompareCompsPKcmS0_m
Security:single module:__Z8tpSubStrPKcmS0_m
Security:single module:_tpCompareEmailAddr
Security:single module:_tpFreeCssmData
Security:single module:_tpMallocCopyCssmData
Security:single module:_tpNormalizeAddrSpec
Security:single module:_tpOidToAldId
Security:single module:_tp_CertFreeAlgId
Security:single module:_tp_CertFreePublicKey
Security:single module:_tp_CertGetAlgId
Security:single module:_tp_CertGetPublicKey
Security:single module:_tp_CompareCerts
Security:single module:__Z11tpCrlLookup17cssm_dl_db_handlePK9cssm_dataPcPmPS0_
Security:single module:__Z12tpCertLookup17cssm_dl_db_handlePK9cssm_dataPmPS0_
Security:single module:__Z14tpAddCrlSchema17cssm_dl_db_handle
Security:single module:__Z24tpSearchNumericExtensionPK20cssm_x509_extensionsPK9cssm_dataPm
Security:single module:_tpDbFindIssuerCrl
Security:single module:_tpDbStoreCrl
Security:single module:__Z13tpFetchViaNetRK9cssm_data7LF_TypeRN8Security13CssmAllocatorERS_
Security:single module:__Z11tpCrlViaNetRK9cssm_dataR18TPCrlVerifyContextR10TPCertInfoRP9TPCrlInfo
Security:single module:__Z18tpIssuerCertViaNetRK9cssm_datammPKcR10TPCertInfoRPS4_
Security:single module:__Z22tpFetchViaGeneralNamesPK15CE_GeneralNamesR10TPCertInfoP18TPCrlVerifyContextmmPKcPPS2_PP9TPCrlInfo
Security:single module:_tpFetchCrlFromNet
Security:single module:_tpFetchIssuerFromNet
Security:single module:__Z12tpDisposeCrlR9TPCrlInfoR18TPCrlVerifyContext
Security:single module:__Z16tpFindCrlForCertR10TPCertInfoRP9TPCrlInfoR18TPCrlVerifyContext
Security:single module:__ZN10TPCRLCache3addER9TPCrlInfo
Security:single module:__ZN10TPCRLCache6removeER9TPCrlInfo
Security:single module:__ZN10TPCRLCache6searchER10TPCertInfoR18TPCrlVerifyContext
Security:single module:__ZN10TPCRLCache7releaseER9TPCrlInfo
Security:single module:__ZN10TPCRLCacheC1Ev
Security:single module:__ZN10TPCRLCacheC2Ev
Security:single module:__ZN10TPCRLCacheC4Ev
Security:single module:__Z15tpCompIpAddrStrPKcjPK9cssm_data
Security:single module:__Z18tp_verifySmimeOptsR11TPCertGroupPK9cssm_dataRK13iSignCertInfo
Security:single module:_freeFieldCertPolicies
Security:single module:_freeFieldCrlDistPoints
Security:single module:_freeFieldSubjIssuerAltName
Security:single module:_getFieldCertPolicies
Security:single module:_getFieldCrlDistPoints
Security:single module:_getFieldIssuerAltName
Security:single module:_setFieldAuthorityKeyId
Security:single module:_setFieldBasicConstraints
Security:single module:_setFieldCertPolicies
Security:single module:_setFieldCrlDistPoints
Security:single module:_setFieldExtKeyUsage
Security:single module:_setFieldKeyUsage
Security:single module:_setFieldNetscapeCertType
Security:single module:_setFieldSubjIssuerAltName
Security:single module:_setFieldSubjectKeyId
Security:single module:_setFieldCrlNumber
Security:single module:__Z17getFieldCrlCommonR11DecodedItemRK9cssm_datajRmRN8Security13CssmOwnedDataE
Security:single module:_getFieldCrlNumber
Security:single module:_getFieldDeltaCrl
Security:single module:_freeFieldIssuingDistPoint
Security:single module:_freeFieldOidOrData
Security:single module:_bn_mul_comba4
Security:single module:_bn_sqr_comba4
Security:single module:_bn_sqr_words
Security:single module:_pmod
Security:single module:_feeRandAllocWithSeed
Security:single module:_feeRandAlloc
Security:single module:_feeRandFree
Security:single module:_feeRandNextNum
Security:single module:_feeRandBytes
Security:single module:_feeRandAddEntropy
Security:single module:_newPointProj
Security:single module:_freePointProj
Security:single module:_ptopProj
Security:single module:_ellDoubleProj
Security:single module:_ellAddProj
Security:single module:_ellNegProj
Security:single module:_ellSubProj
Security:single module:_ellMulProjSimple
Security:single module:_ellMulProj
Security:single module:_normalizeProj
Security:single module:_jacobi_symbol
Security:single module:_powFp2
Security:single module:_powermodg
Security:single module:_sqrtmod
Security:single module:_findPointProj
Security:single module:_giantAddDigits
Security:single module:_giantAddDouble
Security:single module:_giantSubDigits
Security:single module:_giantMulDigits
Security:single module:_VectorMultiply
Security:single module:_lh_new
Security:single module:_lh_insert
Security:single module:_expand
Security:single module:_getrn
Security:single module:_lh_free
Security:single module:_lh_delete
Security:single module:_lh_retrieve
Security:single module:_lh_doall
Security:single module:_lh_doall_arg
Security:single module:_lh_strhash
Security:single module:_lh_num_items
Security:single module:_contract
Security:single module:_BUF_MEM_grow
Security:single module:_BUF_MEM_new
Security:single module:_BUF_MEM_free
Security:single module:_BUF_strdup
Security:single module:_sk_insert
Security:single module:_sk_set_cmp_func
Security:single module:_sk_dup
Security:single module:_sk_new
Security:single module:_sk_delete_ptr
Security:single module:_sk_delete
Security:single module:_sk_find
Security:single module:_sk_push
Security:single module:_sk_unshift
Security:single module:_sk_shift
Security:single module:_sk_pop
Security:single module:_sk_zero
Security:single module:_sk_pop_free
Security:single module:_sk_free
Security:single module:_sk_num
Security:single module:_sk_value
Security:single module:_sk_set
Security:single module:_sk_sort
Security:single module:_bn_sqr_normal
Security:single module:_BN_div_recp
Security:single module:_BN_reciprocal
Security:single module:_BN_RECP_CTX_init
Security:single module:_BN_RECP_CTX_new
Security:single module:_BN_RECP_CTX_free
Security:single module:_BN_RECP_CTX_set
Security:single module:_BN_mod_mul_reciprocal
Security:single module:_BN_mod_exp2_mont
Security:single module:_RSA_padding_add_PKCS1_type_1
Security:single module:_RSA_padding_check_PKCS1_type_2
Security:single module:_RSA_padding_add_SSLv23
Security:single module:_RSA_padding_check_SSLv23
Security:single module:_RSA_padding_add_none
Security:single module:_RSA_padding_check_none
Security:single module:_rijndaelKeySched
Security:single module:_rijndaelEncrypt
Security:single module:_rijndaelDecrypt
Security:single module:_KeyAddition
Security:single module:_ShiftRow
Security:single module:_Substitution
Security:single module:_MixColumn
Security:single module:_InvMixColumn
Security:single module:_CAST_encrypt
Security:single module:_CAST_decrypt
Security:single module:_BF_encrypt
Security:single module:_BF_decrypt
Security:single module:_BF_cbc_encrypt
