Certificate:
    Data:
        Version: 3 (0x2)
        Serial Number: 15 (0xf)
        Signature Algorithm: sha1WithRSAEncryption
        Issuer: C=US, O=Apple Computer, Inc., OU=Apple Computer (Development) Certificate Authority, CN=Apple Root (Development) Certificate Authority
        Validity
            Not Before: Sep  7 23:25:28 2005 GMT
            Not After : Dec 31 23:59:59 2008 GMT
        Subject: C=US, O=Apple Computer, Inc., OU=Apple Computer (Development) Certificate Authority, CN=Apple .Mac (Development) Certificate Authority
        Subject Public Key Info:
            Public Key Algorithm: rsaEncryption
            RSA Public Key: (2048 bit)
                Modulus (2048 bit):
                    00:d1:cf:99:37:47:10:29:47:01:1c:cd:a6:a4:4e:
                    f5:9d:1c:b1:57:f3:8b:d0:45:ab:98:4e:7b:79:23:
                    57:e8:4f:69:66:ce:3e:35:f3:b3:6c:09:ac:f0:1b:
                    25:46:b3:0d:c3:f3:59:62:66:0c:69:c4:fe:44:98:
                    cf:2e:1b:4b:90:61:2a:b9:07:9c:6f:75:95:07:f9:
                    8d:8b:0c:df:85:98:b3:3f:94:e1:f0:cf:fa:94:fe:
                    3c:c9:8b:cf:a4:a5:f5:e8:95:f7:59:35:0f:3a:f6:
                    70:85:a7:f3:19:ff:a2:8f:a7:0d:fb:a1:4a:89:c0:
                    70:7f:5e:50:81:ca:9b:5f:62:17:88:b9:be:46:2e:
                    4d:3e:bc:1e:6c:d4:6d:37:3d:0b:5b:9a:95:c4:ca:
                    44:1e:75:7a:94:98:f9:91:6e:c6:09:08:ae:41:8e:
                    5a:30:49:95:1b:14:a2:3d:aa:4d:b5:d1:fb:af:ef:
                    6a:ec:ab:79:0a:65:46:90:4e:55:c2:12:d6:4d:45:
                    eb:91:13:19:66:86:67:f2:f0:de:20:02:1e:68:f9:
                    44:9b:5d:72:e1:cf:80:c7:bf:dc:22:8d:a2:41:b1:
                    15:46:2e:3e:60:f1:b3:9b:51:af:e1:0a:6f:19:04:
                    f0:98:c4:7f:54:a9:e7:b9:59:75:35:ff:fa:64:bf:
                    71:91
                Exponent: 65537 (0x10001)
        X509v3 extensions:
            X509v3 Key Usage: critical
                Digital Signature, Certificate Sign, CRL Sign
            X509v3 Basic Constraints: critical
                CA:TRUE
            X509v3 Subject Key Identifier: 
                36:11:78:76:AB:3C:86:69:DD:E8:0A:67:A4:FB:3B:B6:05:0B:19:F6
            X509v3 Authority Key Identifier: 
                keyid:54:57:E1:95:6E:DB:D6:F1:DA:37:F6:66:01:5D:B6:70:7F:3C:A8:BD

            X509v3 Certificate Policies: 
                Policy: 1.2.840.113635.100.5.2
                  CPS: http://certinfo.mac.com/certificateauthority/terms.html
                  User Notice:
                    Explicit Text: Reliance on this certificate by any party assumes acceptance of the then applicable standard terms and conditions of use, certificate policy and certification practice statements.

            X509v3 CRL Distribution Points: 
                URI:http://certinfo.mac.com/certificateauthority/root.crl

            Authority Information Access: 
                CA Issuers - URI:http://certinfo.mac.com/certificateauthority/casigners.html
                X509v3 Issuer Alternative Name - URI:http://certinfo.mac.com/certificateauthority/DevelopmentRootCert.pem

    Signature Algorithm: sha1WithRSAEncryption
        7d:ba:62:fb:05:85:52:b2:2d:8a:ec:6c:48:c6:f8:cb:2f:12:
        c1:14:a7:46:44:72:99:c5:1e:fc:1b:a2:77:f8:05:7e:db:1f:
        59:c8:02:0f:30:58:06:2e:d0:35:b5:ac:6b:8c:64:88:7b:d5:
        57:86:41:5d:f2:cc:e1:f2:6d:32:fd:cc:d8:c2:55:ce:e5:67:
        4b:c5:f6:23:d6:48:a5:66:69:02:1c:fb:33:d9:14:5f:75:10:
        44:52:90:b4:c8:2b:5a:28:0f:50:12:db:06:a2:0d:d5:99:d7:
        f7:f7:2d:1f:90:7e:e2:06:73:10:86:6f:f7:f6:21:c6:17:05:
        2f:c4:61:63:ad:af:9f:53:37:66:c9:7a:f5:a7:32:a2:33:95:
        0f:e1:26:8c:a8:26:e0:91:5c:5d:99:73:c0:05:72:37:3e:c7:
        3b:5f:4b:14:87:39:c1:68:92:10:40:7b:a4:f9:1a:20:80:bc:
        52:83:8b:f5:69:05:1a:ed:dc:2e:56:be:2f:1c:b9:40:aa:e8:
        3a:8e:4f:2b:52:2a:a1:fc:94:28:11:15:3c:d1:da:b1:f7:5c:
        be:3b:f6:c1:20:70:ff:67:81:9f:ab:f3:d2:06:63:14:0d:04:
        87:a3:96:6b:18:71:df:b2:15:6f:d3:1b:d2:7b:fe:59:02:51:
        cc:0c:05:2d
-----BEGIN CERTIFICATE-----
MIIGSDCCBTCgAwIBAgIBDzANBgkqhkiG9w0BAQUFADCBojELMAkGA1UEBhMCVVMx
HTAbBgNVBAoTFEFwcGxlIENvbXB1dGVyLCBJbmMuMTswOQYDVQQLEzJBcHBsZSBD
b21wdXRlciAoRGV2ZWxvcG1lbnQpIENlcnRpZmljYXRlIEF1dGhvcml0eTE3MDUG
A1UEAxMuQXBwbGUgUm9vdCAoRGV2ZWxvcG1lbnQpIENlcnRpZmljYXRlIEF1dGhv
cml0eTAeFw0wNTA5MDcyMzI1MjhaFw0wODEyMzEyMzU5NTlaMIGiMQswCQYDVQQG
EwJVUzEdMBsGA1UEChMUQXBwbGUgQ29tcHV0ZXIsIEluYy4xOzA5BgNVBAsTMkFw
cGxlIENvbXB1dGVyIChEZXZlbG9wbWVudCkgQ2VydGlmaWNhdGUgQXV0aG9yaXR5
MTcwNQYDVQQDEy5BcHBsZSAuTWFjIChEZXZlbG9wbWVudCkgQ2VydGlmaWNhdGUg
QXV0aG9yaXR5MIIBIjANBgkqhkiG9w0BAQEFAAOCAQ8AMIIBCgKCAQEA0c+ZN0cQ
KUcBHM2mpE71nRyxV/OL0EWrmE57eSNX6E9pZs4+NfOzbAms8BslRrMNw/NZYmYM
acT+RJjPLhtLkGEquQecb3WVB/mNiwzfhZizP5Th8M/6lP48yYvPpKX16JX3WTUP
OvZwhafzGf+ij6cN+6FKicBwf15QgcqbX2IXiLm+Ri5NPrwebNRtNz0LW5qVxMpE
HnV6lJj5kW7GCQiuQY5aMEmVGxSiPapNtdH7r+9q7Kt5CmVGkE5VwhLWTUXrkRMZ
ZoZn8vDeIAIeaPlEm11y4c+Ax7/cIo2iQbEVRi4+YPGzm1Gv4QpvGQTwmMR/VKnn
uVl1Nf/6ZL9xkQIDAQABo4IChTCCAoEwDgYDVR0PAQH/BAQDAgGGMA8GA1UdEwEB
/wQFMAMBAf8wHQYDVR0OBBYEFDYReHarPIZp3egKZ6T7O7YFCxn2MB8GA1UdIwQY
MBaAFFRX4ZVu29bx2jf2ZgFdtnB/PKi9MIIBKwYDVR0gBIIBIjCCAR4wggEaBgkq
hkiG92NkBQIwggELMEMGCCsGAQUFBwIBFjdodHRwOi8vY2VydGluZm8ubWFjLmNv
bS9jZXJ0aWZpY2F0ZWF1dGhvcml0eS90ZXJtcy5odG1sMIHDBggrBgEFBQcCAjCB
thqBs1JlbGlhbmNlIG9uIHRoaXMgY2VydGlmaWNhdGUgYnkgYW55IHBhcnR5IGFz
c3VtZXMgYWNjZXB0YW5jZSBvZiB0aGUgdGhlbiBhcHBsaWNhYmxlIHN0YW5kYXJk
IHRlcm1zIGFuZCBjb25kaXRpb25zIG9mIHVzZSwgY2VydGlmaWNhdGUgcG9saWN5
IGFuZCBjZXJ0aWZpY2F0aW9uIHByYWN0aWNlIHN0YXRlbWVudHMuMEYGA1UdHwQ/
MD0wO6A5oDeGNWh0dHA6Ly9jZXJ0aW5mby5tYWMuY29tL2NlcnRpZmljYXRlYXV0
aG9yaXR5L3Jvb3QuY3JsMIGmBggrBgEFBQcBAQSBmTCBljBHBggrBgEFBQcwAoY7
aHR0cDovL2NlcnRpbmZvLm1hYy5jb20vY2VydGlmaWNhdGVhdXRob3JpdHkvY2Fz
aWduZXJzLmh0bWwwSwYDVR0ShkRodHRwOi8vY2VydGluZm8ubWFjLmNvbS9jZXJ0
aWZpY2F0ZWF1dGhvcml0eS9EZXZlbG9wbWVudFJvb3RDZXJ0LnBlbTANBgkqhkiG
9w0BAQUFAAOCAQEAfbpi+wWFUrItiuxsSMb4yy8SwRSnRkRymcUe/Buid/gFftsf
WcgCDzBYBi7QNbWsa4xkiHvVV4ZBXfLM4fJtMv3M2MJVzuVnS8X2I9ZIpWZpAhz7
M9kUX3UQRFKQtMgrWigPUBLbBqIN1ZnX9/ctH5B+4gZzEIZv9/YhxhcFL8RhY62v
n1M3Zsl69acyojOVD+EmjKgm4JFcXZlzwAVyNz7HO19LFIc5wWiSEEB7pPkaIIC8
UoOL9WkFGu3cLla+Lxy5QKroOo5PK1IqofyUKBEVPNHasfdcvjv2wSBw/2eBn6vz
0gZjFA0Eh6OWaxhx37IVb9Mb0nv+WQJRzAwFLQ==
-----END CERTIFICATE-----
