_IOUserSCSIParallelInterfaceController_Class
__ZN37IOUserSCSIParallelInterfaceController14UserMapHBADataE20SCSIUserParallelTaskPjPFiP15OSMetaClassBase5IORPCE
__ZN37IOUserSCSIParallelInterfaceController18UserStopControllerEPFiP15OSMetaClassBase5IORPCE
__ZN37IOUserSCSIParallelInterfaceController19UserClearACARequestEyyPjPFiP15OSMetaClassBase5IORPCE
__ZN37IOUserSCSIParallelInterfaceController19UserStartControllerEPFiP15OSMetaClassBase5IORPCE
__ZN37IOUserSCSIParallelInterfaceController20UserAbortTaskRequestEyyyPjPFiP15OSMetaClassBase5IORPCE
__ZN37IOUserSCSIParallelInterfaceController21UserCreateTargetForIDEyPFiP15OSMetaClassBase5IORPCE
__ZN37IOUserSCSIParallelInterfaceController21UserMapHBAData_InvokeE5IORPCMS_Fi20SCSIUserParallelTaskPjE
__ZN37IOUserSCSIParallelInterfaceController22ParallelTaskCompletionEP8OSActionyy14SCSITaskStatus19SCSIServiceResponseyh15SCSI_Sense_DataPFiP15OSMetaClassBase5IORPCE
__ZN37IOUserSCSIParallelInterfaceController22UserTargetPresentForIDEyPbPFiP15OSMetaClassBase5IORPCE
__ZN37IOUserSCSIParallelInterfaceController22UserTargetResetRequestEyPjPFiP15OSMetaClassBase5IORPCE
__ZN37IOUserSCSIParallelInterfaceController23UserAbortTaskSetRequestEyyPjPFiP15OSMetaClassBase5IORPCE
__ZN37IOUserSCSIParallelInterfaceController23UserClearTaskSetRequestEyyPjPFiP15OSMetaClassBase5IORPCE
__ZN37IOUserSCSIParallelInterfaceController23UserGetDMASpecificationEPyS0_PjPFiP15OSMetaClassBase5IORPCE
__ZN37IOUserSCSIParallelInterfaceController23UserProcessParallelTaskE20SCSIUserParallelTaskPjP8OSActionPFiP15OSMetaClassBase5IORPCE
__ZN37IOUserSCSIParallelInterfaceController23UserTerminateControllerEPFiP15OSMetaClassBase5IORPCE
__ZN37IOUserSCSIParallelInterfaceController24UserCompleteParallelTaskEP8OSActionyy14SCSITaskStatus19SCSIServiceResponseyh15SCSI_Sense_DataPFiP15OSMetaClassBase5IORPCE
__ZN37IOUserSCSIParallelInterfaceController24UserInitializeControllerEPFiP15OSMetaClassBase5IORPCE
__ZN37IOUserSCSIParallelInterfaceController25UserInitializeTargetForIDEyPFiP15OSMetaClassBase5IORPCE
__ZN37IOUserSCSIParallelInterfaceController25UserStopController_InvokeE5IORPCMS_FivE
__ZN37IOUserSCSIParallelInterfaceController26UserClearACARequest_InvokeE5IORPCMS_FiyyPjE
__ZN37IOUserSCSIParallelInterfaceController26UserReportMaximumTaskCountEPjPFiP15OSMetaClassBase5IORPCE
__ZN37IOUserSCSIParallelInterfaceController26UserStartController_InvokeE5IORPCMS_FivE
__ZN37IOUserSCSIParallelInterfaceController27UserAbortTaskRequest_InvokeE5IORPCMS_FiyyyPjE
__ZN37IOUserSCSIParallelInterfaceController27UserDoesHBAPerformAutoSenseEPbPFiP15OSMetaClassBase5IORPCE
__ZN37IOUserSCSIParallelInterfaceController27UserLogicalUnitResetRequestEyyPjPFiP15OSMetaClassBase5IORPCE
__ZN37IOUserSCSIParallelInterfaceController28UserCreateTargetForID_InvokeE5IORPCMS_FiyE
__ZN37IOUserSCSIParallelInterfaceController29ParallelTaskCompletion_InvokeE5IORPCMS_FvP8OSActionyy14SCSITaskStatus19SCSIServiceResponseyh15SCSI_Sense_DataE
__ZN37IOUserSCSIParallelInterfaceController29UserReportInitiatorIdentifierEPyPFiP15OSMetaClassBase5IORPCE
__ZN37IOUserSCSIParallelInterfaceController29UserTargetPresentForID_InvokeE5IORPCMS_FiyPbE
__ZN37IOUserSCSIParallelInterfaceController29UserTargetResetRequest_InvokeE5IORPCMS_FiyPjE
__ZN37IOUserSCSIParallelInterfaceController30UserAbortTaskSetRequest_InvokeE5IORPCMS_FiyyPjE
__ZN37IOUserSCSIParallelInterfaceController30UserClearTaskSetRequest_InvokeE5IORPCMS_FiyyPjE
__ZN37IOUserSCSIParallelInterfaceController30UserGetDMASpecification_InvokeE5IORPCMS_FiPyS1_PjE
__ZN37IOUserSCSIParallelInterfaceController30UserProcessParallelTask_InvokeE5IORPCMS_Fi20SCSIUserParallelTaskPjP8OSActionE
__ZN37IOUserSCSIParallelInterfaceController30UserTerminateController_InvokeE5IORPCMS_FivE
__ZN37IOUserSCSIParallelInterfaceController31UserCompleteParallelTask_InvokeE5IORPCMS_FvP8OSActionyy14SCSITaskStatus19SCSIServiceResponseyh15SCSI_Sense_DataE
__ZN37IOUserSCSIParallelInterfaceController31UserInitializeController_InvokeE5IORPCMS_FivE
__ZN37IOUserSCSIParallelInterfaceController32UserInitializeTargetForID_InvokeE5IORPCMS_FiyE
__ZN37IOUserSCSIParallelInterfaceController33UserReportMaximumTaskCount_InvokeE5IORPCMS_FiPjE
__ZN37IOUserSCSIParallelInterfaceController34UserDoesHBAPerformAutoSense_InvokeE5IORPCMS_FiPbE
__ZN37IOUserSCSIParallelInterfaceController34UserDoesHBAPerformDeviceManagementEPbPFiP15OSMetaClassBase5IORPCE
__ZN37IOUserSCSIParallelInterfaceController34UserLogicalUnitResetRequest_InvokeE5IORPCMS_FiyyPjE
__ZN37IOUserSCSIParallelInterfaceController34UserReportHighestSupportedDeviceIDEPyPFiP15OSMetaClassBase5IORPCE
__ZN37IOUserSCSIParallelInterfaceController36CreateActionUserCompleteParallelTaskEmPP8OSAction
__ZN37IOUserSCSIParallelInterfaceController36UserReportInitiatorIdentifier_InvokeE5IORPCMS_FiPyE
__ZN37IOUserSCSIParallelInterfaceController37UserDoesHBASupportSCSIParallelFeatureEjPbPFiP15OSMetaClassBase5IORPCE
__ZN37IOUserSCSIParallelInterfaceController37UserReportHBAHighestLogicalUnitNumberEPyPFiP15OSMetaClassBase5IORPCE
__ZN37IOUserSCSIParallelInterfaceController41UserDoesHBAPerformDeviceManagement_InvokeE5IORPCMS_FiPbE
__ZN37IOUserSCSIParallelInterfaceController41UserReportHighestSupportedDeviceID_InvokeE5IORPCMS_FiPyE
__ZN37IOUserSCSIParallelInterfaceController44UserDoesHBASupportSCSIParallelFeature_InvokeE5IORPCMS_FijPbE
__ZN37IOUserSCSIParallelInterfaceController44UserReportHBAHighestLogicalUnitNumber_InvokeE5IORPCMS_FiPyE
__ZN37IOUserSCSIParallelInterfaceController8DispatchE5IORPC
__ZN37IOUserSCSIParallelInterfaceController9_DispatchEPS_5IORPC
__ZN46IOUserSCSIParallelInterfaceControllerMetaClass3NewEP8OSObject
__ZN46IOUserSCSIParallelInterfaceControllerMetaClass8DispatchE5IORPC
__ZTI37IOUserSCSIParallelInterfaceController
__ZTI46IOUserSCSIParallelInterfaceControllerMetaClass
__ZTS37IOUserSCSIParallelInterfaceController
__ZTS46IOUserSCSIParallelInterfaceControllerMetaClass
__ZTV37IOUserSCSIParallelInterfaceController
__ZTV46IOUserSCSIParallelInterfaceControllerMetaClass
_gIOUserSCSIParallelInterfaceControllerMetaClass
