__ZN18IOBDMediaBSDClient10gMetaClassE
__ZN18IOBDMediaBSDClient10superClassE
__ZN18IOBDMediaBSDClient28_RESERVEDIOBDMediaBSDClient0Ev
__ZN18IOBDMediaBSDClient28_RESERVEDIOBDMediaBSDClient1Ev
__ZN18IOBDMediaBSDClient28_RESERVEDIOBDMediaBSDClient2Ev
__ZN18IOBDMediaBSDClient28_RESERVEDIOBDMediaBSDClient3Ev
__ZN18IOBDMediaBSDClient28_RESERVEDIOBDMediaBSDClient4Ev
__ZN18IOBDMediaBSDClient28_RESERVEDIOBDMediaBSDClient5Ev
__ZN18IOBDMediaBSDClient28_RESERVEDIOBDMediaBSDClient6Ev
__ZN18IOBDMediaBSDClient28_RESERVEDIOBDMediaBSDClient7Ev
__ZN18IOBDMediaBSDClient5ioctlEimPciP4proc
__ZN18IOBDMediaBSDClient9MetaClassC1Ev
__ZN18IOBDMediaBSDClient9MetaClassC2Ev
__ZN18IOBDMediaBSDClient9metaClassE
__ZN18IOBDMediaBSDClientC1EPK11OSMetaClass
__ZN18IOBDMediaBSDClientC1Ev
__ZN18IOBDMediaBSDClientC2EPK11OSMetaClass
__ZN18IOBDMediaBSDClientC2Ev
__ZN18IOBDMediaBSDClientD0Ev
__ZN18IOBDMediaBSDClientD1Ev
__ZN18IOBDMediaBSDClientD2Ev
__ZN18IOBDMediaBSDClientdlEPvm
__ZN18IOBDMediaBSDClientnwEm
__ZN22IOBDBlockStorageDevice10gMetaClassE
__ZN22IOBDBlockStorageDevice10superClassE
__ZN22IOBDBlockStorageDevice32_RESERVEDIOBDBlockStorageDevice0Ev
__ZN22IOBDBlockStorageDevice32_RESERVEDIOBDBlockStorageDevice1Ev
__ZN22IOBDBlockStorageDevice32_RESERVEDIOBDBlockStorageDevice2Ev
__ZN22IOBDBlockStorageDevice32_RESERVEDIOBDBlockStorageDevice3Ev
__ZN22IOBDBlockStorageDevice32_RESERVEDIOBDBlockStorageDevice4Ev
__ZN22IOBDBlockStorageDevice32_RESERVEDIOBDBlockStorageDevice5Ev
__ZN22IOBDBlockStorageDevice32_RESERVEDIOBDBlockStorageDevice6Ev
__ZN22IOBDBlockStorageDevice32_RESERVEDIOBDBlockStorageDevice7Ev
__ZN22IOBDBlockStorageDevice32_RESERVEDIOBDBlockStorageDevice8Ev
__ZN22IOBDBlockStorageDevice32_RESERVEDIOBDBlockStorageDevice9Ev
__ZN22IOBDBlockStorageDevice33_RESERVEDIOBDBlockStorageDevice10Ev
__ZN22IOBDBlockStorageDevice33_RESERVEDIOBDBlockStorageDevice11Ev
__ZN22IOBDBlockStorageDevice33_RESERVEDIOBDBlockStorageDevice12Ev
__ZN22IOBDBlockStorageDevice33_RESERVEDIOBDBlockStorageDevice13Ev
__ZN22IOBDBlockStorageDevice33_RESERVEDIOBDBlockStorageDevice14Ev
__ZN22IOBDBlockStorageDevice33_RESERVEDIOBDBlockStorageDevice15Ev
__ZN22IOBDBlockStorageDevice4initEP12OSDictionary
__ZN22IOBDBlockStorageDevice9MetaClassC1Ev
__ZN22IOBDBlockStorageDevice9MetaClassC2Ev
__ZN22IOBDBlockStorageDevice9metaClassE
__ZN22IOBDBlockStorageDeviceC2EPK11OSMetaClass
__ZN22IOBDBlockStorageDeviceD0Ev
__ZN22IOBDBlockStorageDeviceD1Ev
__ZN22IOBDBlockStorageDeviceD2Ev
__ZN22IOBDBlockStorageDevicedlEPvm
__ZN22IOBDBlockStorageDevicenwEm
__ZN22IOBDBlockStorageDriver10gMetaClassE
__ZN22IOBDBlockStorageDriver10splitTrackEj
__ZN22IOBDBlockStorageDriver10superClassE
__ZN22IOBDBlockStorageDriver13readStructureEP18IOMemoryDescriptorhjhh
__ZN22IOBDBlockStorageDriver14acceptNewMediaEv
__ZN22IOBDBlockStorageDriver17getDeviceTypeNameEv
__ZN22IOBDBlockStorageDriver22instantiateMediaObjectEyyjPc
__ZN22IOBDBlockStorageDriver29instantiateDesiredMediaObjectEv
__ZN22IOBDBlockStorageDriver32_RESERVEDIOBDBlockStorageDriver0Ev
__ZN22IOBDBlockStorageDriver32_RESERVEDIOBDBlockStorageDriver1Ev
__ZN22IOBDBlockStorageDriver32_RESERVEDIOBDBlockStorageDriver2Ev
__ZN22IOBDBlockStorageDriver32_RESERVEDIOBDBlockStorageDriver3Ev
__ZN22IOBDBlockStorageDriver32_RESERVEDIOBDBlockStorageDriver4Ev
__ZN22IOBDBlockStorageDriver32_RESERVEDIOBDBlockStorageDriver5Ev
__ZN22IOBDBlockStorageDriver32_RESERVEDIOBDBlockStorageDriver6Ev
__ZN22IOBDBlockStorageDriver32_RESERVEDIOBDBlockStorageDriver7Ev
__ZN22IOBDBlockStorageDriver32_RESERVEDIOBDBlockStorageDriver8Ev
__ZN22IOBDBlockStorageDriver32_RESERVEDIOBDBlockStorageDriver9Ev
__ZN22IOBDBlockStorageDriver33_RESERVEDIOBDBlockStorageDriver10Ev
__ZN22IOBDBlockStorageDriver33_RESERVEDIOBDBlockStorageDriver11Ev
__ZN22IOBDBlockStorageDriver33_RESERVEDIOBDBlockStorageDriver12Ev
__ZN22IOBDBlockStorageDriver33_RESERVEDIOBDBlockStorageDriver13Ev
__ZN22IOBDBlockStorageDriver33_RESERVEDIOBDBlockStorageDriver14Ev
__ZN22IOBDBlockStorageDriver33_RESERVEDIOBDBlockStorageDriver15Ev
__ZN22IOBDBlockStorageDriver9MetaClassC1Ev
__ZN22IOBDBlockStorageDriver9MetaClassC2Ev
__ZN22IOBDBlockStorageDriver9metaClassE
__ZN22IOBDBlockStorageDriverC1EPK11OSMetaClass
__ZN22IOBDBlockStorageDriverC1Ev
__ZN22IOBDBlockStorageDriverC2EPK11OSMetaClass
__ZN22IOBDBlockStorageDriverC2Ev
__ZN22IOBDBlockStorageDriverD0Ev
__ZN22IOBDBlockStorageDriverD1Ev
__ZN22IOBDBlockStorageDriverD2Ev
__ZN22IOBDBlockStorageDriverdlEPvm
__ZN22IOBDBlockStorageDrivernwEm
__ZN9IOBDMedia10gMetaClassE
__ZN9IOBDMedia10splitTrackEj
__ZN9IOBDMedia10superClassE
__ZN9IOBDMedia12readDiscInfoEP18IOMemoryDescriptorhPt
__ZN9IOBDMedia13readStructureEP18IOMemoryDescriptorhjhh
__ZN9IOBDMedia13readTrackInfoEP18IOMemoryDescriptorjhhPt
__ZN9IOBDMedia18matchPropertyTableEP12OSDictionaryPi
__ZN9IOBDMedia19_RESERVEDIOBDMedia1Ev
__ZN9IOBDMedia19_RESERVEDIOBDMedia2Ev
__ZN9IOBDMedia19_RESERVEDIOBDMedia3Ev
__ZN9IOBDMedia19_RESERVEDIOBDMedia4Ev
__ZN9IOBDMedia19_RESERVEDIOBDMedia5Ev
__ZN9IOBDMedia19_RESERVEDIOBDMedia6Ev
__ZN9IOBDMedia19_RESERVEDIOBDMedia7Ev
__ZN9IOBDMedia19_RESERVEDIOBDMedia8Ev
__ZN9IOBDMedia19_RESERVEDIOBDMedia9Ev
__ZN9IOBDMedia20_RESERVEDIOBDMedia10Ev
__ZN9IOBDMedia20_RESERVEDIOBDMedia11Ev
__ZN9IOBDMedia20_RESERVEDIOBDMedia12Ev
__ZN9IOBDMedia20_RESERVEDIOBDMedia13Ev
__ZN9IOBDMedia20_RESERVEDIOBDMedia14Ev
__ZN9IOBDMedia20_RESERVEDIOBDMedia15Ev
__ZN9IOBDMedia7sendKeyEP18IOMemoryDescriptorhhh
__ZN9IOBDMedia8getSpeedEPt
__ZN9IOBDMedia8setSpeedEt
__ZN9IOBDMedia9MetaClassC1Ev
__ZN9IOBDMedia9MetaClassC2Ev
__ZN9IOBDMedia9metaClassE
__ZN9IOBDMedia9reportKeyEP18IOMemoryDescriptorhjhh
__ZN9IOBDMedia9reportKeyEP18IOMemoryDescriptorhjhhh
__ZN9IOBDMediaC1EPK11OSMetaClass
__ZN9IOBDMediaC1Ev
__ZN9IOBDMediaC2EPK11OSMetaClass
__ZN9IOBDMediaC2Ev
__ZN9IOBDMediaD0Ev
__ZN9IOBDMediaD1Ev
__ZN9IOBDMediaD2Ev
__ZN9IOBDMediadlEPvm
__ZN9IOBDMedianwEm
__ZNK18IOBDMediaBSDClient11getProviderEv
__ZNK18IOBDMediaBSDClient12getMetaClassEv
__ZNK18IOBDMediaBSDClient9MetaClass5allocEv
__ZNK22IOBDBlockStorageDevice12getMetaClassEv
__ZNK22IOBDBlockStorageDevice9MetaClass5allocEv
__ZNK22IOBDBlockStorageDriver11getProviderEv
__ZNK22IOBDBlockStorageDriver12getMetaClassEv
__ZNK22IOBDBlockStorageDriver9MetaClass5allocEv
__ZNK9IOBDMedia11getProviderEv
__ZNK9IOBDMedia12getMetaClassEv
__ZNK9IOBDMedia9MetaClass5allocEv
__ZTV18IOBDMediaBSDClient
__ZTV22IOBDBlockStorageDevice
__ZTV22IOBDBlockStorageDriver
__ZTV9IOBDMedia
__ZTVN18IOBDMediaBSDClient9MetaClassE
__ZTVN22IOBDBlockStorageDevice9MetaClassE
__ZTVN22IOBDBlockStorageDriver9MetaClassE
__ZTVN9IOBDMedia9MetaClassE
