__ZN17IOFireWireSBP2LUN10gMetaClassE
__ZN17IOFireWireSBP2LUN10handleOpenEP9IOServicejPv
__ZN17IOFireWireSBP2LUN10superClassE
__ZN17IOFireWireSBP2LUN11createLoginEv
__ZN17IOFireWireSBP2LUN11getLUNumberEv
__ZN17IOFireWireSBP2LUN11handleCloseEP9IOServicej
__ZN17IOFireWireSBP2LUN11removeLoginEP19IOFireWireSBP2Login
__ZN17IOFireWireSBP2LUN12resumeNotifyEv
__ZN17IOFireWireSBP2LUN14getDiagnosticsEv
__ZN17IOFireWireSBP2LUN15getFireWireUnitEv
__ZN17IOFireWireSBP2LUN15suspendedNotifyEv
__ZN17IOFireWireSBP2LUN15terminateNotifyEv
__ZN17IOFireWireSBP2LUN16initLoginWithLUNEP19IOFireWireSBP2LoginPS_
__ZN17IOFireWireSBP2LUN17createLoginActionEPP19IOFireWireSBP2Login
__ZN17IOFireWireSBP2LUN17removeLoginActionEP19IOFireWireSBP2Login
__ZN17IOFireWireSBP2LUN17staticCreateLoginEP8OSObjectPvS2_S2_S2_
__ZN17IOFireWireSBP2LUN18clearAllTasksInSetEv
__ZN17IOFireWireSBP2LUN18initMgmtORBWithLUNEP27IOFireWireSBP2ManagementORBPS_PvPFvS3_iS1_E
__ZN17IOFireWireSBP2LUN18matchPropertyTableEP12OSDictionary
__ZN17IOFireWireSBP2LUN19createManagementORBEPvPFvS0_iP27IOFireWireSBP2ManagementORBE
__ZN17IOFireWireSBP2LUN19removeManagementORBEP27IOFireWireSBP2ManagementORB
__ZN17IOFireWireSBP2LUN22flushAllManagementORBsEv
__ZN17IOFireWireSBP2LUN23executeFlushAllMgmtORBsEv
__ZN17IOFireWireSBP2LUN23staticRemoveLoginActionEP8OSObjectPvS2_S2_S2_
__ZN17IOFireWireSBP2LUN25createManagementORBActionEPvPFvS0_iP27IOFireWireSBP2ManagementORBEPS2_
__ZN17IOFireWireSBP2LUN25removeManagementORBActionEP27IOFireWireSBP2ManagementORB
__ZN17IOFireWireSBP2LUN27_RESERVEDIOFireWireSBP2LUN0Ev
__ZN17IOFireWireSBP2LUN27_RESERVEDIOFireWireSBP2LUN1Ev
__ZN17IOFireWireSBP2LUN27_RESERVEDIOFireWireSBP2LUN2Ev
__ZN17IOFireWireSBP2LUN27_RESERVEDIOFireWireSBP2LUN3Ev
__ZN17IOFireWireSBP2LUN27_RESERVEDIOFireWireSBP2LUN4Ev
__ZN17IOFireWireSBP2LUN27_RESERVEDIOFireWireSBP2LUN5Ev
__ZN17IOFireWireSBP2LUN27_RESERVEDIOFireWireSBP2LUN6Ev
__ZN17IOFireWireSBP2LUN27_RESERVEDIOFireWireSBP2LUN7Ev
__ZN17IOFireWireSBP2LUN27_RESERVEDIOFireWireSBP2LUN8Ev
__ZN17IOFireWireSBP2LUN29staticExecuteFlushAllMgmtORBsEP8OSObjectPvS2_S2_S2_
__ZN17IOFireWireSBP2LUN31staticCreateManagementORBActionEP8OSObjectPvS2_S2_S2_
__ZN17IOFireWireSBP2LUN31staticRemoveManagementORBActionEP8OSObjectPvS2_S2_S2_
__ZN17IOFireWireSBP2LUN4freeEv
__ZN17IOFireWireSBP2LUN6attachEP9IOService
__ZN17IOFireWireSBP2LUN7messageEjP9IOServicePv
__ZN17IOFireWireSBP2LUN8finalizeEj
__ZN17IOFireWireSBP2LUN9MetaClassC1Ev
__ZN17IOFireWireSBP2LUN9MetaClassC2Ev
__ZN17IOFireWireSBP2LUN9getTargetEv
__ZN17IOFireWireSBP2LUN9metaClassE
__ZN17IOFireWireSBP2LUNC1EPK11OSMetaClass
__ZN17IOFireWireSBP2LUNC1Ev
__ZN17IOFireWireSBP2LUNC2EPK11OSMetaClass
__ZN17IOFireWireSBP2LUNC2Ev
__ZN17IOFireWireSBP2LUND0Ev
__ZN17IOFireWireSBP2LUND1Ev
__ZN17IOFireWireSBP2LUND2Ev
__ZN17IOFireWireSBP2LUNdlEPvm
__ZN17IOFireWireSBP2LUNnwEm
__ZN17IOFireWireSBP2ORB10gMetaClassE
__ZN17IOFireWireSBP2ORB10isAppendedEv
__ZN17IOFireWireSBP2ORB10isTimerSetEv
__ZN17IOFireWireSBP2ORB10orbTimeoutEiP13IOFireWireBusP14IOFWBusCommand
__ZN17IOFireWireSBP2ORB10setToDummyEv
__ZN17IOFireWireSBP2ORB10startTimerEv
__ZN17IOFireWireSBP2ORB10superClassE
__ZN17IOFireWireSBP2ORB11allocateORBEj
__ZN17IOFireWireSBP2ORB11cancelTimerEv
__ZN17IOFireWireSBP2ORB11getRefCon64Ev
__ZN17IOFireWireSBP2ORB11setRefCon64Ey
__ZN17IOFireWireSBP2ORB13allocateTimerEv
__ZN17IOFireWireSBP2ORB13deallocateORBEv
__ZN17IOFireWireSBP2ORB13getORBAddressEP15FWAddressStruct
__ZN17IOFireWireSBP2ORB13initWithLoginEP19IOFireWireSBP2Login
__ZN17IOFireWireSBP2ORB13setIsAppendedEb
__ZN17IOFireWireSBP2ORB14getFireWireLUNEv
__ZN17IOFireWireSBP2ORB15deallocateTimerEv
__ZN17IOFireWireSBP2ORB15getCommandFlagsEv
__ZN17IOFireWireSBP2ORB15getFireWireUnitEv
__ZN17IOFireWireSBP2ORB15setCommandBlockEP18IOMemoryDescriptor
__ZN17IOFireWireSBP2ORB15setCommandBlockEPvj
__ZN17IOFireWireSBP2ORB15setCommandFlagsEj
__ZN17IOFireWireSBP2ORB16orbTimeoutStaticEPviP13IOFireWireBusP14IOFWBusCommand
__ZN17IOFireWireSBP2ORB17allocatePageTableEj
__ZN17IOFireWireSBP2ORB17allocateResourcesEv
__ZN17IOFireWireSBP2ORB17getCommandTimeoutEv
__ZN17IOFireWireSBP2ORB17getMaxPayloadSizeEv
__ZN17IOFireWireSBP2ORB17setCommandBuffersEP18IOMemoryDescriptorjj
__ZN17IOFireWireSBP2ORB17setCommandTimeoutEj
__ZN17IOFireWireSBP2ORB17setMaxPayloadSizeEj
__ZN17IOFireWireSBP2ORB17setNextORBAddressE15FWAddressStruct
__ZN17IOFireWireSBP2ORB19deallocatePageTableEv
__ZN17IOFireWireSBP2ORB20getCommandGenerationEv
__ZN17IOFireWireSBP2ORB20setBufferConstraintsEyjj
__ZN17IOFireWireSBP2ORB20setCommandGenerationEj
__ZN17IOFireWireSBP2ORB21releaseCommandBuffersEv
__ZN17IOFireWireSBP2ORB22prepareFastStartPacketEP24IOBufferMemoryDescriptor
__ZN17IOFireWireSBP2ORB22prepareORBForExecutionEv
__ZN17IOFireWireSBP2ORB23sendTimeoutNotificationEPS_
__ZN17IOFireWireSBP2ORB24calculateTransferSizeLogEPb
__ZN17IOFireWireSBP2ORB25getFetchAgentWriteRetriesEv
__ZN17IOFireWireSBP2ORB25prepareBufferAddressSpaceEP18IOMemoryDescriptor
__ZN17IOFireWireSBP2ORB25setCommandBuffersAsRangesEP14IOVirtualRangejjP4taskjj
__ZN17IOFireWireSBP2ORB25setFetchAgentWriteRetriesEj
__ZN17IOFireWireSBP2ORB26completeBufferAddressSpaceEv
__ZN17IOFireWireSBP2ORB26getCommandBufferDescriptorEv
__ZN17IOFireWireSBP2ORB27_RESERVEDIOFireWireSBP2ORB0Ev
__ZN17IOFireWireSBP2ORB27_RESERVEDIOFireWireSBP2ORB1Ev
__ZN17IOFireWireSBP2ORB27_RESERVEDIOFireWireSBP2ORB2Ev
__ZN17IOFireWireSBP2ORB27_RESERVEDIOFireWireSBP2ORB3Ev
__ZN17IOFireWireSBP2ORB27_RESERVEDIOFireWireSBP2ORB4Ev
__ZN17IOFireWireSBP2ORB27_RESERVEDIOFireWireSBP2ORB5Ev
__ZN17IOFireWireSBP2ORB27_RESERVEDIOFireWireSBP2ORB6Ev
__ZN17IOFireWireSBP2ORB27_RESERVEDIOFireWireSBP2ORB7Ev
__ZN17IOFireWireSBP2ORB27_RESERVEDIOFireWireSBP2ORB8Ev
__ZN17IOFireWireSBP2ORB27setCommandBuffersAsRanges64EP14IOVirtualRangeyjP4taskyy
__ZN17IOFireWireSBP2ORB28deallocateBufferAddressSpaceEv
__ZN17IOFireWireSBP2ORB31getFetchAgentWriteRetryIntervalEv
__ZN17IOFireWireSBP2ORB31setFetchAgentWriteRetryIntervalEj
__ZN17IOFireWireSBP2ORB4freeEv
__ZN17IOFireWireSBP2ORB8getLoginEv
__ZN17IOFireWireSBP2ORB9MetaClassC1Ev
__ZN17IOFireWireSBP2ORB9MetaClassC2Ev
__ZN17IOFireWireSBP2ORB9getRefConEv
__ZN17IOFireWireSBP2ORB9metaClassE
__ZN17IOFireWireSBP2ORB9removeORBEPS_
__ZN17IOFireWireSBP2ORB9setRefConEPv
__ZN17IOFireWireSBP2ORBC1EPK11OSMetaClass
__ZN17IOFireWireSBP2ORBC1Ev
__ZN17IOFireWireSBP2ORBC2EPK11OSMetaClass
__ZN17IOFireWireSBP2ORBC2Ev
__ZN17IOFireWireSBP2ORBD0Ev
__ZN17IOFireWireSBP2ORBD1Ev
__ZN17IOFireWireSBP2ORBD2Ev
__ZN17IOFireWireSBP2ORBdlEPvm
__ZN17IOFireWireSBP2ORBnwEm
__ZN19IOFireWireSBP2Login10abortLoginEv
__ZN19IOFireWireSBP2Login10executeORBEP17IOFireWireSBP2ORB
__ZN19IOFireWireSBP2Login10gMetaClassE
__ZN19IOFireWireSBP2Login10getARDMMaxEv
__ZN19IOFireWireSBP2Login10getLoginIDEv
__ZN19IOFireWireSBP2Login10superClassE
__ZN19IOFireWireSBP2Login11doReconnectEv
__ZN19IOFireWireSBP2Login11initWithLUNEP17IOFireWireSBP2LUN
__ZN19IOFireWireSBP2Login11isConnectedEv
__ZN19IOFireWireSBP2Login11removeLoginEv
__ZN19IOFireWireSBP2Login11setPasswordEP18IOMemoryDescriptor
__ZN19IOFireWireSBP2Login11setPasswordEPvj
__ZN19IOFireWireSBP2Login11submitLoginEv
__ZN19IOFireWireSBP2Login12executeLoginEv
__ZN19IOFireWireSBP2Login12loginTimeoutEiP13IOFireWireBusP14IOFWBusCommand
__ZN19IOFireWireSBP2Login12resumeNotifyEv
__ZN19IOFireWireSBP2Login12ringDoorbellEv
__ZN19IOFireWireSBP2Login12submitLogoutEv
__ZN19IOFireWireSBP2Login13completeLoginEiPKvjPv
__ZN19IOFireWireSBP2Login13executeAddORBEP17IOFireWireSBP2ORB
__ZN19IOFireWireSBP2Login13executeLogoutEv
__ZN19IOFireWireSBP2Login13getLoginFlagsEv
__ZN19IOFireWireSBP2Login13isORBAppendedEP17IOFireWireSBP2ORB
__ZN19IOFireWireSBP2Login13isORBTimerSetEP17IOFireWireSBP2ORB
__ZN19IOFireWireSBP2Login13logoutTimeoutEiP13IOFireWireBusP14IOFWBusCommand
__ZN19IOFireWireSBP2Login13setLoginFlagsEj
__ZN19IOFireWireSBP2Login13startORBTimerEP17IOFireWireSBP2ORB
__ZN19IOFireWireSBP2Login14cancelORBTimerEP17IOFireWireSBP2ORB
__ZN19IOFireWireSBP2Login14completeLogoutEiPKvj
__ZN19IOFireWireSBP2Login14getFireWireLUNEv
__ZN19IOFireWireSBP2Login15executeDoorbellEv
__ZN19IOFireWireSBP2Login15getFireWireUnitEv
__ZN19IOFireWireSBP2Login15suspendedNotifyEv
__ZN19IOFireWireSBP2Login15terminateNotifyEv
__ZN19IOFireWireSBP2Login16doorbellCompleteEiP13IOFireWireNubP11IOFWCommand
__ZN19IOFireWireSBP2Login16executeRemoveORBEP17IOFireWireSBP2ORB
__ZN19IOFireWireSBP2Login16getReconnectTimeEv
__ZN19IOFireWireSBP2Login16initORBWithLoginEP17IOFireWireSBP2ORBPS_
__ZN19IOFireWireSBP2Login16reconnectTimeoutEiP13IOFireWireBusP14IOFWBusCommand
__ZN19IOFireWireSBP2Login16restartReconnectEv
__ZN19IOFireWireSBP2Login16setORBIsAppendedEP17IOFireWireSBP2ORBb
__ZN19IOFireWireSBP2Login16setReconnectTimeEj
__ZN19IOFireWireSBP2Login16staticExecuteORBEP8OSObjectPvS2_S2_S2_
__ZN19IOFireWireSBP2Login16statusBlockWriteEtR9IOFWSpeed15FWAddressStructjPKvPv
__ZN19IOFireWireSBP2Login17allocateResourcesEv
__ZN19IOFireWireSBP2Login17getMaxPayloadSizeEv
__ZN19IOFireWireSBP2Login17loginRetryTimeoutEiP13IOFireWireBusP14IOFWBusCommand
__ZN19IOFireWireSBP2Login17processLoginWriteEv
__ZN19IOFireWireSBP2Login17setMaxPayloadSizeEj
__ZN19IOFireWireSBP2Login17setNextORBAddressEP17IOFireWireSBP2ORB15FWAddressStruct
__ZN19IOFireWireSBP2Login18appendORBImmediateEP17IOFireWireSBP2ORB
__ZN19IOFireWireSBP2Login18clearAllTasksInSetEv
__ZN19IOFireWireSBP2Login18getUnitInformationEv
__ZN19IOFireWireSBP2Login18loginTimeoutStaticEPviP13IOFireWireBusP14IOFWBusCommand
__ZN19IOFireWireSBP2Login18loginWriteCompleteEiP13IOFireWireNubP11IOFWCommand
__ZN19IOFireWireSBP2Login18setLoginCompletionEPvPFvS0_P25FWSBP2LoginCompleteParamsE
__ZN19IOFireWireSBP2Login18setLoginGenerationEj
__ZN19IOFireWireSBP2Login18staticExecuteLoginEP8OSObjectPvS2_S2_S2_
__ZN19IOFireWireSBP2Login19getStatusNotifyProcEPPvPPFvS0_P18FWSBP2NotifyParamsE
__ZN19IOFireWireSBP2Login19initialExecuteLoginEv
__ZN19IOFireWireSBP2Login19logoutTimeoutStaticEPviP13IOFireWireBusP14IOFWBusCommand
__ZN19IOFireWireSBP2Login19logoutWriteCompleteEiP13IOFireWireNubP11IOFWCommand
__ZN19IOFireWireSBP2Login19setLogoutCompletionEPvPFvS0_P26FWSBP2LogoutCompleteParamsE
__ZN19IOFireWireSBP2Login19setStatusNotifyProcEPvPFvS0_P18FWSBP2NotifyParamsE
__ZN19IOFireWireSBP2Login19startReconnectTimerEv
__ZN19IOFireWireSBP2Login19staticExecuteAddORBEP8OSObjectPvS2_S2_S2_
__ZN19IOFireWireSBP2Login19staticExecuteLogoutEP8OSObjectPvS2_S2_S2_
__ZN19IOFireWireSBP2Login19stopLoginRetryTimerEv
__ZN19IOFireWireSBP2Login20clearLoginGenerationEv
__ZN19IOFireWireSBP2Login20fetchAgentRetryTimerEiP13IOFireWireBusP14IOFWBusCommand
__ZN19IOFireWireSBP2Login20startLoginRetryTimerEv
__ZN19IOFireWireSBP2Login21executeSetBusyTimeoutEv
__ZN19IOFireWireSBP2Login21reconnectRetryTimeoutEiP13IOFireWireBusP14IOFWBusCommand
__ZN19IOFireWireSBP2Login21staticExecuteDoorbellEP8OSObjectPvS2_S2_S2_
__ZN19IOFireWireSBP2Login21submitFetchAgentResetEv
__ZN19IOFireWireSBP2Login22doorbellCompleteStaticEPviP13IOFireWireNubP11IOFWCommand
__ZN19IOFireWireSBP2Login22executeFetchAgentResetEv
__ZN19IOFireWireSBP2Login22getMaxCommandBlockSizeEv
__ZN19IOFireWireSBP2Login22prepareORBForExecutionEP17IOFireWireSBP2ORB
__ZN19IOFireWireSBP2Login22reconnectTimeoutStaticEPviP13IOFireWireBusP14IOFWBusCommand
__ZN19IOFireWireSBP2Login22reconnectWriteCompleteEiP13IOFireWireNubP11IOFWCommand
__ZN19IOFireWireSBP2Login22setBusyTimeoutCompleteEiP13IOFireWireNubP11IOFWCommand
__ZN19IOFireWireSBP2Login22staticExecuteRemoveORBEP8OSObjectPvS2_S2_S2_
__ZN19IOFireWireSBP2Login22statusBlockWriteStaticEPvtR9IOFWSpeed15FWAddressStructjPKvS0_
__ZN19IOFireWireSBP2Login23enableUnsolicitedStatusEv
__ZN19IOFireWireSBP2Login23fetchAgentResetCompleteEiP13IOFireWireNubP11IOFWCommand
__ZN19IOFireWireSBP2Login23fetchAgentWriteCompleteEP17IOFireWireSBP2ORBi
__ZN19IOFireWireSBP2Login23fetchAgentWriteCompleteEiP13IOFireWireNubP11IOFWCommand
__ZN19IOFireWireSBP2Login23isPhysicalAccessEnabledEv
__ZN19IOFireWireSBP2Login23loginRetryTimeoutStaticEPviP13IOFireWireBusP14IOFWBusCommand
__ZN19IOFireWireSBP2Login23sendTimeoutNotificationEP17IOFireWireSBP2ORB
__ZN19IOFireWireSBP2Login23stopReconnectRetryTimerEv
__ZN19IOFireWireSBP2Login24loginWriteCompleteStaticEPviP13IOFireWireNubP11IOFWCommand
__ZN19IOFireWireSBP2Login24startReconnectRetryTimerEv
__ZN19IOFireWireSBP2Login24stopFetchAgentRetryTimerEv
__ZN19IOFireWireSBP2Login25logoutWriteCompleteStaticEPviP13IOFireWireNubP11IOFWCommand
__ZN19IOFireWireSBP2Login25reconnectStatusBlockWriteEtR9IOFWSpeed15FWAddressStructjPKvPv
__ZN19IOFireWireSBP2Login25sendReconnectNotificationEj
__ZN19IOFireWireSBP2Login25startFetchAgentRetryTimerEj
__ZN19IOFireWireSBP2Login26fetchAgentRetryTimerStaticEPviP13IOFireWireBusP14IOFWBusCommand
__ZN19IOFireWireSBP2Login27isFetchAgentWriteInProgressEv
__ZN19IOFireWireSBP2Login27reconnectRetryTimeoutStaticEPviP13IOFireWireBusP14IOFWBusCommand
__ZN19IOFireWireSBP2Login27setBusyTimeoutRegisterValueEj
__ZN19IOFireWireSBP2Login28reconnectWriteCompleteStaticEPviP13IOFireWireNubP11IOFWCommand
__ZN19IOFireWireSBP2Login28setBusyTimeoutCompleteStaticEPviP13IOFireWireNubP11IOFWCommand
__ZN19IOFireWireSBP2Login28setFetchAgentResetCompletionEPvPFvS0_iE
__ZN19IOFireWireSBP2Login28setFetchAgentWriteCompletionEPvPFvS0_iP17IOFireWireSBP2ORBE
__ZN19IOFireWireSBP2Login28staticExecuteFetchAgentResetEP8OSObjectPvS2_S2_S2_
__ZN19IOFireWireSBP2Login29_RESERVEDIOFireWireSBP2Login0Ev
__ZN19IOFireWireSBP2Login29_RESERVEDIOFireWireSBP2Login1Ev
__ZN19IOFireWireSBP2Login29_RESERVEDIOFireWireSBP2Login2Ev
__ZN19IOFireWireSBP2Login29_RESERVEDIOFireWireSBP2Login3Ev
__ZN19IOFireWireSBP2Login29_RESERVEDIOFireWireSBP2Login4Ev
__ZN19IOFireWireSBP2Login29_RESERVEDIOFireWireSBP2Login5Ev
__ZN19IOFireWireSBP2Login29_RESERVEDIOFireWireSBP2Login6Ev
__ZN19IOFireWireSBP2Login29_RESERVEDIOFireWireSBP2Login7Ev
__ZN19IOFireWireSBP2Login29_RESERVEDIOFireWireSBP2Login8Ev
__ZN19IOFireWireSBP2Login29fetchAgentResetCompleteStaticEPviP13IOFireWireNubP11IOFWCommand
__ZN19IOFireWireSBP2Login29fetchAgentWriteCompleteStaticEPviP13IOFireWireNubP11IOFWCommand
__ZN19IOFireWireSBP2Login30executeUnsolicitedStatusEnableEv
__ZN19IOFireWireSBP2Login30getUnsolicitedStatusNotifyProcEPPvPPFvS0_P18FWSBP2NotifyParamsE
__ZN19IOFireWireSBP2Login30setLoginRetryCountAndDelayTimeEjj
__ZN19IOFireWireSBP2Login30setUnsolicitedStatusNotifyProcEPvPFvS0_P18FWSBP2NotifyParamsE
__ZN19IOFireWireSBP2Login31reconnectStatusBlockWriteStaticEPvtR9IOFWSpeed15FWAddressStructjPKvS0_
__ZN19IOFireWireSBP2Login31unsolicitedStatusEnableCompleteEiP13IOFireWireNubP11IOFWCommand
__ZN19IOFireWireSBP2Login34setAddressLoForLoginORBAndResponseEjj
__ZN19IOFireWireSBP2Login36staticExecuteUnsolicitedStatusEnableEP8OSObjectPvS2_S2_S2_
__ZN19IOFireWireSBP2Login37unsolicitedStatusEnableCompleteStaticEPviP13IOFireWireNubP11IOFWCommand
__ZN19IOFireWireSBP2Login40sendReconnectNotificationWithStatusBlockEj
__ZN19IOFireWireSBP2Login4freeEv
__ZN19IOFireWireSBP2Login6addORBEP17IOFireWireSBP2ORB
__ZN19IOFireWireSBP2Login9MetaClassC1Ev
__ZN19IOFireWireSBP2Login9MetaClassC2Ev
__ZN19IOFireWireSBP2Login9appendORBEP17IOFireWireSBP2ORB
__ZN19IOFireWireSBP2Login9createORBEv
__ZN19IOFireWireSBP2Login9getRefConEv
__ZN19IOFireWireSBP2Login9getTargetEv
__ZN19IOFireWireSBP2Login9metaClassE
__ZN19IOFireWireSBP2Login9removeORBEP17IOFireWireSBP2ORB
__ZN19IOFireWireSBP2Login9setRefConEPv
__ZN19IOFireWireSBP2Login9submitORBEP17IOFireWireSBP2ORB
__ZN19IOFireWireSBP2LoginC1EPK11OSMetaClass
__ZN19IOFireWireSBP2LoginC1Ev
__ZN19IOFireWireSBP2LoginC2EPK11OSMetaClass
__ZN19IOFireWireSBP2LoginC2Ev
__ZN19IOFireWireSBP2LoginD0Ev
__ZN19IOFireWireSBP2LoginD1Ev
__ZN19IOFireWireSBP2LoginD2Ev
__ZN19IOFireWireSBP2LogindlEPvm
__ZN19IOFireWireSBP2LoginnwEm
__ZN20IOFireWireSBP2Target10gMetaClassE
__ZN20IOFireWireSBP2Target10handleOpenEP9IOServicejPv
__ZN20IOFireWireSBP2Target10superClassE
__ZN20IOFireWireSBP2Target11handleCloseEP9IOServicej
__ZN20IOFireWireSBP2Target11scanForLUNsEv
__ZN20IOFireWireSBP2Target14getTargetFlagsEv
__ZN20IOFireWireSBP2Target14setTargetFlagsEj
__ZN20IOFireWireSBP2Target15getFireWireUnitEv
__ZN20IOFireWireSBP2Target16clearTargetFlagsEj
__ZN20IOFireWireSBP2Target18matchPropertyTableEP12OSDictionary
__ZN20IOFireWireSBP2Target20clearMgmtAgentAccessEv
__ZN20IOFireWireSBP2Target20endIOCriticalSectionEv
__ZN20IOFireWireSBP2Target20synchMgmtAgentAccessEP11IOFWCommand
__ZN20IOFireWireSBP2Target21cancelMgmtAgentAccessEP11IOFWCommand
__ZN20IOFireWireSBP2Target22beginIOCriticalSectionEv
__ZN20IOFireWireSBP2Target23completeMgmtAgentAccessEv
__ZN20IOFireWireSBP2Target23configurePhysicalFilterEv
__ZN20IOFireWireSBP2Target30_RESERVEDIOFireWireSBP2Target0Ev
__ZN20IOFireWireSBP2Target30_RESERVEDIOFireWireSBP2Target1Ev
__ZN20IOFireWireSBP2Target30_RESERVEDIOFireWireSBP2Target2Ev
__ZN20IOFireWireSBP2Target30_RESERVEDIOFireWireSBP2Target3Ev
__ZN20IOFireWireSBP2Target30_RESERVEDIOFireWireSBP2Target4Ev
__ZN20IOFireWireSBP2Target30_RESERVEDIOFireWireSBP2Target5Ev
__ZN20IOFireWireSBP2Target30_RESERVEDIOFireWireSBP2Target6Ev
__ZN20IOFireWireSBP2Target30_RESERVEDIOFireWireSBP2Target7Ev
__ZN20IOFireWireSBP2Target30_RESERVEDIOFireWireSBP2Target8Ev
__ZN20IOFireWireSBP2Target4freeEv
__ZN20IOFireWireSBP2Target4stopEP9IOService
__ZN20IOFireWireSBP2Target5startEP9IOService
__ZN20IOFireWireSBP2Target7messageEjP9IOServicePv
__ZN20IOFireWireSBP2Target8finalizeEj
__ZN20IOFireWireSBP2Target9MetaClassC1Ev
__ZN20IOFireWireSBP2Target9MetaClassC2Ev
__ZN20IOFireWireSBP2Target9createLUNEPNS_7LUNInfoE
__ZN20IOFireWireSBP2Target9metaClassE
__ZN20IOFireWireSBP2TargetC1EPK11OSMetaClass
__ZN20IOFireWireSBP2TargetC1Ev
__ZN20IOFireWireSBP2TargetC2EPK11OSMetaClass
__ZN20IOFireWireSBP2TargetC2Ev
__ZN20IOFireWireSBP2TargetD0Ev
__ZN20IOFireWireSBP2TargetD1Ev
__ZN20IOFireWireSBP2TargetD2Ev
__ZN20IOFireWireSBP2TargetdlEPvm
__ZN20IOFireWireSBP2TargetnwEm
__ZNK17IOFireWireSBP2LUN12getMetaClassEv
__ZNK17IOFireWireSBP2LUN9MetaClass5allocEv
__ZNK17IOFireWireSBP2ORB12getMetaClassEv
__ZNK17IOFireWireSBP2ORB7releaseEv
__ZNK17IOFireWireSBP2ORB9MetaClass5allocEv
__ZNK19IOFireWireSBP2Login12getMetaClassEv
__ZNK19IOFireWireSBP2Login7releaseEv
__ZNK19IOFireWireSBP2Login9MetaClass5allocEv
__ZNK20IOFireWireSBP2Target12getMetaClassEv
__ZNK20IOFireWireSBP2Target12handleIsOpenEPK9IOService
__ZNK20IOFireWireSBP2Target9MetaClass5allocEv
__ZTV17IOFireWireSBP2LUN
__ZTV17IOFireWireSBP2ORB
__ZTV19IOFireWireSBP2Login
__ZTV20IOFireWireSBP2Target
__ZTVN17IOFireWireSBP2LUN9MetaClassE
__ZTVN17IOFireWireSBP2ORB9MetaClassE
__ZTVN19IOFireWireSBP2Login9MetaClassE
__ZTVN20IOFireWireSBP2Target9MetaClassE
_gCommand_Set_Revision_Symbol
_gCommand_Set_Spec_ID_Symbol
_gCommand_Set_Symbol
_gDevice_Type_Symbol
_gFast_Start_Symbol
_gFirmware_Revision_Symbol
_gGUID_Symbol
_gIOUnit_Symbol
_gManagement_Agent_Offset_Symbol
_gModule_Vendor_ID_Symbol
_gUnit_Characteristics_Symbol
