Certificate:
    Data:
        Version: 3 (0x2)
        Serial Number:
            d6:d7:e1:b4:b3:30:91:ee
        Signature Algorithm: sha1WithRSAEncryption
        Issuer: C=DE, ST=Bayern, L=Muenchen, O=Whatever it is, CN=IO::Socket::SSL Demo CA
        Validity
            Not Before: Jan  1 00:00:01 2008 GMT
            Not After : Mar 30 06:56:31 2019 GMT
        Subject: C=DE, ST=Bayern, L=Muenchen, O=Whatever it is, CN=client.local
        Subject Public Key Info:
            Public Key Algorithm: rsaEncryption
            RSA Public Key: (1024 bit)
                Modulus (1024 bit):
                    00:d9:49:27:43:41:46:9b:83:d3:22:2a:ed:1f:97:
                    0c:63:8c:06:3f:4c:0a:74:3e:c3:97:be:27:57:f2:
                    40:18:40:7c:9d:3f:af:12:be:7c:ec:3f:01:bb:0e:
                    bd:0b:fd:0d:30:8f:7a:b9:b7:f2:f7:ef:f8:c7:e2:
                    bf:77:6f:25:26:ab:76:e4:17:4c:3c:e5:c3:29:22:
                    92:38:de:82:f7:03:9c:3d:f8:08:35:b5:fb:90:57:
                    05:48:8b:11:00:4d:97:f8:39:07:bb:36:5a:13:df:
                    a6:15:d3:6c:5a:7f:31:31:39:8e:b0:82:8d:43:ac:
                    3c:9f:a6:f0:6f:3f:c9:f7:a7
                Exponent: 65537 (0x10001)
        X509v3 extensions:
            X509v3 Basic Constraints: 
                CA:FALSE
            Netscape Comment: 
                OpenSSL Generated Certificate
            X509v3 Subject Key Identifier: 
                A3:81:A9:13:5B:B5:3B:0E:99:0E:EF:09:C4:8C:EA:8B:F5:BD:A8:B0
            X509v3 Authority Key Identifier: 
                keyid:DE:65:01:16:19:2E:51:E0:9A:51:1A:37:50:94:7D:39:29:2A:42:2C
                DirName:/C=DE/ST=Bayern/L=Muenchen/O=Whatever it is/CN=IO::Socket::SSL Demo CA
                serial:E7:AD:8B:07:55:8A:17:27

            X509v3 Key Usage: 
                Digital Signature, Non Repudiation, Key Encipherment
    Signature Algorithm: sha1WithRSAEncryption
        7f:2b:5f:6b:dd:37:57:df:1c:37:d6:c5:64:d0:51:93:c0:d8:
        41:dd:60:38:cb:37:dd:c3:4d:94:7c:3d:39:aa:29:38:7b:fe:
        9a:4d:cc:fc:35:10:0f:1d:f5:5c:f5:1f:fa:c1:eb:b9:5f:40:
        fc:15:cb:ae:f4:49:93:31:bf:f6:e6:0c:ce:6e:c1:35:b9:12:
        87:77:52:4f:18:e0:e9:a1:3e:41:ae:9d:59:be:ea:8e:42:1b:
        4f:3e:1e:99:3a:c0:01:b3:eb:1f:de:0a:01:26:d3:4f:8f:f2:
        0d:9a:ef:bb:33:b1:5e:46:b9:8d:74:bf:37:aa:2a:71:aa:f4:
        d9:95
-----BEGIN CERTIFICATE-----
MIIDVzCCAsCgAwIBAgIJANbX4bSzMJHuMA0GCSqGSIb3DQEBBQUAMGwxCzAJBgNV
BAYTAkRFMQ8wDQYDVQQIEwZCYXllcm4xETAPBgNVBAcTCE11ZW5jaGVuMRcwFQYD
VQQKEw5XaGF0ZXZlciBpdCBpczEgMB4GA1UEAxMXSU86OlNvY2tldDo6U1NMIERl
bW8gQ0EwHhcNMDgwMTAxMDAwMDAxWhcNMTkwMzMwMDY1NjMxWjBhMQswCQYDVQQG
EwJERTEPMA0GA1UECBMGQmF5ZXJuMREwDwYDVQQHEwhNdWVuY2hlbjEXMBUGA1UE
ChMOV2hhdGV2ZXIgaXQgaXMxFTATBgNVBAMTDGNsaWVudC5sb2NhbDCBnzANBgkq
hkiG9w0BAQEFAAOBjQAwgYkCgYEA2UknQ0FGm4PTIirtH5cMY4wGP0wKdD7Dl74n
V/JAGEB8nT+vEr587D8Buw69C/0NMI96ubfy9+/4x+K/d28lJqt25BdMPOXDKSKS
ON6C9wOcPfgINbX7kFcFSIsRAE2X+DkHuzZaE9+mFdNsWn8xMTmOsIKNQ6w8n6bw
bz/J96cCAwEAAaOCAQowggEGMAkGA1UdEwQCMAAwLAYJYIZIAYb4QgENBB8WHU9w
ZW5TU0wgR2VuZXJhdGVkIENlcnRpZmljYXRlMB0GA1UdDgQWBBSjgakTW7U7DpkO
7wnEjOqL9b2osDCBngYDVR0jBIGWMIGTgBTeZQEWGS5R4JpRGjdQlH05KSpCLKFw
pG4wbDELMAkGA1UEBhMCREUxDzANBgNVBAgTBkJheWVybjERMA8GA1UEBxMITXVl
bmNoZW4xFzAVBgNVBAoTDldoYXRldmVyIGl0IGlzMSAwHgYDVQQDExdJTzo6U29j
a2V0OjpTU0wgRGVtbyBDQYIJAOetiwdVihcnMAsGA1UdDwQEAwIF4DANBgkqhkiG
9w0BAQUFAAOBgQB/K19r3TdX3xw31sVk0FGTwNhB3WA4yzfdw02UfD05qik4e/6a
Tcz8NRAPHfVc9R/6weu5X0D8Fcuu9EmTMb/25gzObsE1uRKHd1JPGODpoT5Brp1Z
vuqOQhtPPh6ZOsABs+sf3goBJtNPj/INmu+7M7FeRrmNdL83qipxqvTZlQ==
-----END CERTIFICATE-----
