Certificate:
    Data:
        Version: 3 (0x2)
        Serial Number:
            d6:d7:e1:b4:b3:30:91:f0
        Signature Algorithm: sha1WithRSAEncryption
        Issuer: C=DE, ST=Bayern, L=Muenchen, O=Whatever it is, CN=IO::Socket::SSL Demo CA
        Validity
            Not Before: Jan  1 00:00:01 2008 GMT
            Not After : Mar 30 07:05:44 2019 GMT
        Subject: C=DE, ST=Bayern, L=Muenchen, O=Whatever it is, CN=server.local
        Subject Public Key Info:
            Public Key Algorithm: rsaEncryption
            RSA Public Key: (1024 bit)
                Modulus (1024 bit):
                    00:9f:98:73:4b:34:aa:4f:c2:5a:3c:3d:ba:f0:54:
                    55:e6:d5:8a:a0:8f:e4:94:5a:72:47:34:9a:61:50:
                    cc:d0:81:8d:37:c4:8e:0c:79:b4:e4:d9:0d:71:06:
                    3d:07:4d:2a:ff:b5:6a:ef:db:36:f0:be:ed:b2:b0:
                    2e:18:af:f3:35:92:71:15:84:f5:2a:cb:18:bd:7e:
                    db:26:18:c1:4e:31:2a:01:b8:1b:c9:a9:df:6c:62:
                    74:20:49:4d:51:14:93:f4:d6:18:07:f3:3d:d9:f7:
                    dc:10:33:e4:00:a2:6c:62:b0:59:7e:5f:f9:8e:b6:
                    a5:af:ad:f6:fb:e6:fa:df:9b
                Exponent: 65537 (0x10001)
        X509v3 extensions:
            X509v3 Basic Constraints: 
                CA:FALSE
            Netscape Comment: 
                OpenSSL Generated Certificate
            X509v3 Subject Key Identifier: 
                BC:81:38:7B:62:C9:DD:A9:BA:5E:9C:44:AA:AE:71:39:7A:81:C9:E8
            X509v3 Authority Key Identifier: 
                keyid:DE:65:01:16:19:2E:51:E0:9A:51:1A:37:50:94:7D:39:29:2A:42:2C
                DirName:/C=DE/ST=Bayern/L=Muenchen/O=Whatever it is/CN=IO::Socket::SSL Demo CA
                serial:E7:AD:8B:07:55:8A:17:27

            X509v3 Key Usage: 
                Digital Signature, Non Repudiation, Key Encipherment
    Signature Algorithm: sha1WithRSAEncryption
        22:ac:b3:a0:67:eb:c2:40:36:9a:56:71:20:fc:2e:4b:3d:db:
        b1:83:f3:96:5a:33:9b:db:33:de:52:dc:9c:80:36:78:9b:e3:
        90:ea:63:cc:0c:ac:0f:bd:01:20:26:8f:47:27:83:23:a9:90:
        b6:ae:5c:d8:3c:20:27:ca:04:b4:5e:9b:85:fc:34:af:5e:91:
        60:3b:d2:df:b7:06:ae:e3:01:09:1f:89:af:0a:18:0a:3f:ef:
        43:d6:3d:6e:16:74:32:b3:06:f0:8a:f4:80:61:f7:f1:83:85:
        e8:2c:1d:b8:83:f6:81:87:b3:cd:2b:0b:88:1a:f9:3f:15:77:
        3b:cc
-----BEGIN CERTIFICATE-----
MIIDVzCCAsCgAwIBAgIJANbX4bSzMJHwMA0GCSqGSIb3DQEBBQUAMGwxCzAJBgNV
BAYTAkRFMQ8wDQYDVQQIEwZCYXllcm4xETAPBgNVBAcTCE11ZW5jaGVuMRcwFQYD
VQQKEw5XaGF0ZXZlciBpdCBpczEgMB4GA1UEAxMXSU86OlNvY2tldDo6U1NMIERl
bW8gQ0EwHhcNMDgwMTAxMDAwMDAxWhcNMTkwMzMwMDcwNTQ0WjBhMQswCQYDVQQG
EwJERTEPMA0GA1UECBMGQmF5ZXJuMREwDwYDVQQHEwhNdWVuY2hlbjEXMBUGA1UE
ChMOV2hhdGV2ZXIgaXQgaXMxFTATBgNVBAMTDHNlcnZlci5sb2NhbDCBnzANBgkq
hkiG9w0BAQEFAAOBjQAwgYkCgYEAn5hzSzSqT8JaPD268FRV5tWKoI/klFpyRzSa
YVDM0IGNN8SODHm05NkNcQY9B00q/7Vq79s28L7tsrAuGK/zNZJxFYT1KssYvX7b
JhjBTjEqAbgbyanfbGJ0IElNURST9NYYB/M92ffcEDPkAKJsYrBZfl/5jralr632
++b635sCAwEAAaOCAQowggEGMAkGA1UdEwQCMAAwLAYJYIZIAYb4QgENBB8WHU9w
ZW5TU0wgR2VuZXJhdGVkIENlcnRpZmljYXRlMB0GA1UdDgQWBBS8gTh7Ysndqbpe
nESqrnE5eoHJ6DCBngYDVR0jBIGWMIGTgBTeZQEWGS5R4JpRGjdQlH05KSpCLKFw
pG4wbDELMAkGA1UEBhMCREUxDzANBgNVBAgTBkJheWVybjERMA8GA1UEBxMITXVl
bmNoZW4xFzAVBgNVBAoTDldoYXRldmVyIGl0IGlzMSAwHgYDVQQDExdJTzo6U29j
a2V0OjpTU0wgRGVtbyBDQYIJAOetiwdVihcnMAsGA1UdDwQEAwIF4DANBgkqhkiG
9w0BAQUFAAOBgQAirLOgZ+vCQDaaVnEg/C5LPduxg/OWWjOb2zPeUtycgDZ4m+OQ
6mPMDKwPvQEgJo9HJ4MjqZC2rlzYPCAnygS0XpuF/DSvXpFgO9Lftwau4wEJH4mv
ChgKP+9D1j1uFnQyswbwivSAYffxg4XoLB24g/aBh7PNKwuIGvk/FXc7zA==
-----END CERTIFICATE-----
