Certificate:
    Data:
        Version: 3 (0x2)
        Serial Number:
            d6:d7:e1:b4:b3:30:91:ef
        Signature Algorithm: sha1WithRSAEncryption
        Issuer: C=DE, ST=Bayern, L=Muenchen, O=Whatever it is, CN=IO::Socket::SSL Demo CA
        Validity
            Not Before: Jan  1 00:00:01 2008 GMT
            Not After : Mar 30 06:58:42 2019 GMT
        Subject: C=DE, ST=Bayern, L=Muenchen, O=Whatever it is, CN=server.local
        Subject Public Key Info:
            Public Key Algorithm: rsaEncryption
            RSA Public Key: (1024 bit)
                Modulus (1024 bit):
                    00:bc:5e:af:1f:ac:1b:72:fd:51:d7:54:0c:77:9d:
                    15:3b:ef:1a:e4:cd:67:70:5a:d5:16:c2:a1:8d:db:
                    a8:ee:79:7a:10:4d:55:60:21:15:34:7b:44:d0:8b:
                    21:05:3a:d3:2c:26:83:6f:0a:f6:1a:3c:69:cb:bf:
                    25:4b:77:0d:1a:c4:6f:7a:e5:f3:18:4d:d7:c5:65:
                    d2:90:6a:45:b3:a3:51:73:b8:b1:d2:95:51:bb:73:
                    0a:85:11:c7:a8:cf:63:8e:24:b8:9a:e3:88:6d:90:
                    86:ee:ed:97:fd:9a:51:9e:44:9d:b1:c6:3b:92:3a:
                    d5:30:a0:26:98:e9:17:03:15
                Exponent: 65537 (0x10001)
        X509v3 extensions:
            X509v3 Basic Constraints: 
                CA:FALSE
            Netscape Comment: 
                OpenSSL Generated Certificate
            X509v3 Subject Key Identifier: 
                38:21:43:F0:B2:21:77:17:88:B9:97:49:AE:2B:0A:0E:61:D6:DB:8A
            X509v3 Authority Key Identifier: 
                keyid:DE:65:01:16:19:2E:51:E0:9A:51:1A:37:50:94:7D:39:29:2A:42:2C
                DirName:/C=DE/ST=Bayern/L=Muenchen/O=Whatever it is/CN=IO::Socket::SSL Demo CA
                serial:E7:AD:8B:07:55:8A:17:27

            X509v3 Key Usage: 
                Digital Signature, Non Repudiation, Key Encipherment
            X509v3 Subject Alternative Name: 
                DNS:*.server.local, IP Address:127.0.0.1, DNS:www*.other.local, DNS:smtp.mydomain.local, DNS:xn--lwe-sna.idntest.local
    Signature Algorithm: sha1WithRSAEncryption
        57:e3:6d:aa:00:c3:da:61:ed:75:9a:29:1f:d9:d5:c5:f1:70:
        f3:c6:00:81:11:95:b4:e1:a3:9d:3a:86:f8:a0:53:42:3b:22:
        1d:4b:23:97:b6:69:d7:ea:66:49:67:d4:18:e5:cb:5e:1c:c0:
        6f:4d:42:a6:a9:3f:05:5d:4f:6d:38:e9:c1:ca:94:98:45:e3:
        eb:7b:c5:96:fb:f6:00:a2:0b:29:63:29:be:77:3a:4d:16:d0:
        3b:e9:01:0d:95:a6:5c:3f:02:50:23:16:59:a6:26:78:c8:8b:
        15:6f:48:b6:d1:77:0f:80:bb:99:c3:5a:ce:58:d3:2e:85:5b:
        57:c3
-----BEGIN CERTIFICATE-----
MIIDujCCAyOgAwIBAgIJANbX4bSzMJHvMA0GCSqGSIb3DQEBBQUAMGwxCzAJBgNV
BAYTAkRFMQ8wDQYDVQQIEwZCYXllcm4xETAPBgNVBAcTCE11ZW5jaGVuMRcwFQYD
VQQKEw5XaGF0ZXZlciBpdCBpczEgMB4GA1UEAxMXSU86OlNvY2tldDo6U1NMIERl
bW8gQ0EwHhcNMDgwMTAxMDAwMDAxWhcNMTkwMzMwMDY1ODQyWjBhMQswCQYDVQQG
EwJERTEPMA0GA1UECBMGQmF5ZXJuMREwDwYDVQQHEwhNdWVuY2hlbjEXMBUGA1UE
ChMOV2hhdGV2ZXIgaXQgaXMxFTATBgNVBAMTDHNlcnZlci5sb2NhbDCBnzANBgkq
hkiG9w0BAQEFAAOBjQAwgYkCgYEAvF6vH6wbcv1R11QMd50VO+8a5M1ncFrVFsKh
jduo7nl6EE1VYCEVNHtE0IshBTrTLCaDbwr2Gjxpy78lS3cNGsRveuXzGE3XxWXS
kGpFs6NRc7ix0pVRu3MKhRHHqM9jjiS4muOIbZCG7u2X/ZpRnkSdscY7kjrVMKAm
mOkXAxUCAwEAAaOCAW0wggFpMAkGA1UdEwQCMAAwLAYJYIZIAYb4QgENBB8WHU9w
ZW5TU0wgR2VuZXJhdGVkIENlcnRpZmljYXRlMB0GA1UdDgQWBBQ4IUPwsiF3F4i5
l0muKwoOYdbbijCBngYDVR0jBIGWMIGTgBTeZQEWGS5R4JpRGjdQlH05KSpCLKFw
pG4wbDELMAkGA1UEBhMCREUxDzANBgNVBAgTBkJheWVybjERMA8GA1UEBxMITXVl
bmNoZW4xFzAVBgNVBAoTDldoYXRldmVyIGl0IGlzMSAwHgYDVQQDExdJTzo6U29j
a2V0OjpTU0wgRGVtbyBDQYIJAOetiwdVihcnMAsGA1UdDwQEAwIF4DBhBgNVHREE
WjBYgg4qLnNlcnZlci5sb2NhbIcEfwAAAYIQd3d3Ki5vdGhlci5sb2NhbIITc210
cC5teWRvbWFpbi5sb2NhbIIZeG4tLWx3ZS1zbmEuaWRudGVzdC5sb2NhbDANBgkq
hkiG9w0BAQUFAAOBgQBX422qAMPaYe11mikf2dXF8XDzxgCBEZW04aOdOob4oFNC
OyIdSyOXtmnX6mZJZ9QY5cteHMBvTUKmqT8FXU9tOOnBypSYRePre8WW+/YAogsp
Yym+dzpNFtA76QENlaZcPwJQIxZZpiZ4yIsVb0i20XcPgLuZw1rOWNMuhVtXww==
-----END CERTIFICATE-----
-----BEGIN RSA PRIVATE KEY-----
MIICXAIBAAKBgQC8Xq8frBty/VHXVAx3nRU77xrkzWdwWtUWwqGN26jueXoQTVVg
IRU0e0TQiyEFOtMsJoNvCvYaPGnLvyVLdw0axG965fMYTdfFZdKQakWzo1FzuLHS
lVG7cwqFEceoz2OOJLia44htkIbu7Zf9mlGeRJ2xxjuSOtUwoCaY6RcDFQIDAQAB
AoGBALilE4K3YRzBhaTOJX5mgzcBtVoMolV3JCOwW05DwH8qomUyePrG0xNjtdu6
VX7b374KbpG9q+mhyI7I6pTjuPoRaQmVNdUOU8i5F8Wy0vOZFhDSaJoZpehQPkbk
f+IqgjAGOQdFXeTMNAeRjUBqfuL5V15uaD9VX/1Xq3pWZyxtAkEA7BVDODOfKTTV
Zfgmy4u2KdP4a3E2mHm+MwKpvdrxfmpgphpqfuc077f/36BSPN0jpYVw1IvDdy5z
/iSuw+PIPwJBAMxC8vr7wtlTIDbgQWKZLQ8p9N/DUrTlBTUiJCeMdbrOL3tCJETn
klaES7gjrgctvU8209T0yv3yTi+kkfInf6sCQGzJ/4fOgfGDHzM1/uqdHvx3aWpZ
aUcqErN+7qlGUzJl4tOoKJsCACrXJ1ntjvftD5gevbe0EAbDqT/bt40dUhECQBWW
8fXDTIoJ9jq2o1KXnCKhLafFDmXeWxmNnUKs3vi6uFwP1qON0nLgktxIsSlDFWJd
CjDVGuuSg98XRvHQaPcCQHSpGVcl7Y42cYprxSgSWXrLXBIIrq6AT9nREzFTPc3/
TNOdzTyL23tvqYFMzxgA4QK4aLUIdgLlMhx0oXZfaOA=
-----END RSA PRIVATE KEY-----
