__ZN16IOFireWireAVCNub10gMetaClassE
__ZN16IOFireWireAVCNub10superClassE
__ZN16IOFireWireAVCNub26_RESERVEDIOFireWireAVCNub1Ev
__ZN16IOFireWireAVCNub26_RESERVEDIOFireWireAVCNub2Ev
__ZN16IOFireWireAVCNub26_RESERVEDIOFireWireAVCNub3Ev
__ZN16IOFireWireAVCNub9MetaClassC1Ev
__ZN16IOFireWireAVCNub9MetaClassC2Ev
__ZN16IOFireWireAVCNub9metaClassE
__ZN16IOFireWireAVCNubC2EPK11OSMetaClass
__ZN16IOFireWireAVCNubD0Ev
__ZN16IOFireWireAVCNubD1Ev
__ZN16IOFireWireAVCNubD2Ev
__ZN16IOFireWireAVCNubdlEPvm
__ZN16IOFireWireAVCNubnwEm
__ZN17IOFireWireAVCUnit10AVCCommandEPKhjPhPj
__ZN17IOFireWireAVCUnit10gMetaClassE
__ZN17IOFireWireAVCUnit10handleOpenEP9IOServicejPv
__ZN17IOFireWireAVCUnit10superClassE
__ZN17IOFireWireAVCUnit11AVCResponseEPvtR9IOFWSpeed15FWAddressStructjPKvS0_
__ZN17IOFireWireAVCUnit11handleCloseEP9IOServicej
__ZN17IOFireWireAVCUnit13setPropertiesEP8OSObject
__ZN17IOFireWireAVCUnit14rescanSubUnitsEPv
__ZN17IOFireWireAVCUnit14updateSubUnitsEb
__ZN17IOFireWireAVCUnit18AVCAsynchDelayDoneEPviP13IOFireWireBusP14IOFWBusCommand
__ZN17IOFireWireAVCUnit18matchPropertyTableEP12OSDictionary
__ZN17IOFireWireAVCUnit22AVCCommandInGenerationEjPKhjPhPj
__ZN17IOFireWireAVCUnit23updateAVCCommandTimeoutEv
__ZN17IOFireWireAVCUnit25AVCAsynchRequestWriteDoneEPviP13IOFireWireNubP11IOFWCommand
__ZN17IOFireWireAVCUnit27_RESERVEDIOFireWireAVCUnit0Ev
__ZN17IOFireWireAVCUnit27_RESERVEDIOFireWireAVCUnit1Ev
__ZN17IOFireWireAVCUnit27_RESERVEDIOFireWireAVCUnit2Ev
__ZN17IOFireWireAVCUnit27_RESERVEDIOFireWireAVCUnit3Ev
__ZN17IOFireWireAVCUnit30lockAVCAsynchronousCommandLockEv
__ZN17IOFireWireAVCUnit32unlockAVCAsynchronousCommandLockEv
__ZN17IOFireWireAVCUnit35indexOfAVCAsynchronousCommandObjectEP32IOFireWireAVCAsynchronousCommand
__ZN17IOFireWireAVCUnit41removeAVCAsynchronousCommandObjectAtIndexEj
__ZN17IOFireWireAVCUnit4freeEv
__ZN17IOFireWireAVCUnit5startEP9IOService
__ZN17IOFireWireAVCUnit7messageEjP9IOServicePv
__ZN17IOFireWireAVCUnit9MetaClassC1Ev
__ZN17IOFireWireAVCUnit9MetaClassC2Ev
__ZN17IOFireWireAVCUnit9availableEv
__ZN17IOFireWireAVCUnit9metaClassE
__ZN17IOFireWireAVCUnitC1EPK11OSMetaClass
__ZN17IOFireWireAVCUnitC1Ev
__ZN17IOFireWireAVCUnitC2EPK11OSMetaClass
__ZN17IOFireWireAVCUnitC2Ev
__ZN17IOFireWireAVCUnitD0Ev
__ZN17IOFireWireAVCUnitD1Ev
__ZN17IOFireWireAVCUnitD2Ev
__ZN17IOFireWireAVCUnitdlEPvm
__ZN17IOFireWireAVCUnitnwEm
__ZN18IOFireWirePCRSpace10deactivateEv
__ZN18IOFireWirePCRSpace10gMetaClassE
__ZN18IOFireWirePCRSpace10superClassE
__ZN18IOFireWirePCRSpace10updatePlugEjjj
__ZN18IOFireWirePCRSpace12allocatePlugEPvPFvS0_tjjjERjPNS_6ClientE
__ZN18IOFireWirePCRSpace13freeInputPlugEj
__ZN18IOFireWirePCRSpace13readInputPlugEj
__ZN18IOFireWirePCRSpace14freeOutputPlugEj
__ZN18IOFireWirePCRSpace14readOutputPlugEj
__ZN18IOFireWirePCRSpace15updateInputPlugEjjj
__ZN18IOFireWirePCRSpace16updateOutputPlugEjjj
__ZN18IOFireWirePCRSpace17allocateInputPlugEPvPFvS0_tjjjERj
__ZN18IOFireWirePCRSpace18allocateOutputPlugEPvPFvS0_tjjjERj
__ZN18IOFireWirePCRSpace18getPCRAddressSpaceEP13IOFireWireBus
__ZN18IOFireWirePCRSpace19readInputMasterPlugEv
__ZN18IOFireWirePCRSpace20readOutputMasterPlugEv
__ZN18IOFireWirePCRSpace21updateInputMasterPlugEjj
__ZN18IOFireWirePCRSpace22clearAllP2PConnectionsEv
__ZN18IOFireWirePCRSpace22updateOutputMasterPlugEjj
__ZN18IOFireWirePCRSpace24setAVCTargetSpacePointerEP24IOFireWireAVCTargetSpace
__ZN18IOFireWirePCRSpace28_RESERVEDIOFireWirePCRSpace0Ev
__ZN18IOFireWirePCRSpace28_RESERVEDIOFireWirePCRSpace1Ev
__ZN18IOFireWirePCRSpace28_RESERVEDIOFireWirePCRSpace2Ev
__ZN18IOFireWirePCRSpace28_RESERVEDIOFireWirePCRSpace3Ev
__ZN18IOFireWirePCRSpace4initEP13IOFireWireBus
__ZN18IOFireWirePCRSpace7doWriteEtR9IOFWSpeed15FWAddressStructjPKvPv
__ZN18IOFireWirePCRSpace8activateEv
__ZN18IOFireWirePCRSpace8freePlugEjPNS_6ClientE
__ZN18IOFireWirePCRSpace8readPlugEj
__ZN18IOFireWirePCRSpace9MetaClassC1Ev
__ZN18IOFireWirePCRSpace9MetaClassC2Ev
__ZN18IOFireWirePCRSpace9metaClassE
__ZN18IOFireWirePCRSpaceC1EPK11OSMetaClass
__ZN18IOFireWirePCRSpaceC1Ev
__ZN18IOFireWirePCRSpaceC2EPK11OSMetaClass
__ZN18IOFireWirePCRSpaceC2Ev
__ZN18IOFireWirePCRSpaceD0Ev
__ZN18IOFireWirePCRSpaceD1Ev
__ZN18IOFireWirePCRSpaceD2Ev
__ZN18IOFireWirePCRSpacedlEPvm
__ZN18IOFireWirePCRSpacenwEm
__ZN20IOFireWireAVCCommand10gMetaClassE
__ZN20IOFireWireAVCCommand10superClassE
__ZN20IOFireWireAVCCommand14handleResponseEtjPKv
__ZN20IOFireWireAVCCommand19resetInterimTimeoutEv
__ZN20IOFireWireAVCCommand30_RESERVEDIOFireWireAVCCommand1Ev
__ZN20IOFireWireAVCCommand30_RESERVEDIOFireWireAVCCommand2Ev
__ZN20IOFireWireAVCCommand30_RESERVEDIOFireWireAVCCommand3Ev
__ZN20IOFireWireAVCCommand32handleResponseWithSimpleMatchingEtjPKv
__ZN20IOFireWireAVCCommand4freeEv
__ZN20IOFireWireAVCCommand4initEP13IOFireWireNubPKhjPhPj
__ZN20IOFireWireAVCCommand6reinitEP13IOFireWireNubPKhjPhPj
__ZN20IOFireWireAVCCommand6submitEb
__ZN20IOFireWireAVCCommand7executeEv
__ZN20IOFireWireAVCCommand7withNubEP13IOFireWireNubPKhjPhPj
__ZN20IOFireWireAVCCommand7withNubEP13IOFireWireNubjPKhjPhPj
__ZN20IOFireWireAVCCommand8completeEi
__ZN20IOFireWireAVCCommand9MetaClassC1Ev
__ZN20IOFireWireAVCCommand9MetaClassC2Ev
__ZN20IOFireWireAVCCommand9metaClassE
__ZN20IOFireWireAVCCommand9writeDoneEPviP13IOFireWireNubP11IOFWCommand
__ZN20IOFireWireAVCCommandC1EPK11OSMetaClass
__ZN20IOFireWireAVCCommandC1Ev
__ZN20IOFireWireAVCCommandC2EPK11OSMetaClass
__ZN20IOFireWireAVCCommandC2Ev
__ZN20IOFireWireAVCCommandD0Ev
__ZN20IOFireWireAVCCommandD1Ev
__ZN20IOFireWireAVCCommandD2Ev
__ZN20IOFireWireAVCCommanddlEPvm
__ZN20IOFireWireAVCCommandnwEm
__ZN20IOFireWireAVCSubUnit10AVCCommandEPKhjPhPj
__ZN20IOFireWireAVCSubUnit10gMetaClassE
__ZN20IOFireWireAVCSubUnit10handleOpenEP9IOServicejPv
__ZN20IOFireWireAVCSubUnit10superClassE
__ZN20IOFireWireAVCSubUnit11handleCloseEP9IOServicej
__ZN20IOFireWireAVCSubUnit18matchPropertyTableEP12OSDictionary
__ZN20IOFireWireAVCSubUnit22AVCCommandInGenerationEjPKhjPhPj
__ZN20IOFireWireAVCSubUnit23updateAVCCommandTimeoutEv
__ZN20IOFireWireAVCSubUnit30_RESERVEDIOFireWireAVCSubUnit0Ev
__ZN20IOFireWireAVCSubUnit30_RESERVEDIOFireWireAVCSubUnit1Ev
__ZN20IOFireWireAVCSubUnit30_RESERVEDIOFireWireAVCSubUnit2Ev
__ZN20IOFireWireAVCSubUnit30_RESERVEDIOFireWireAVCSubUnit3Ev
__ZN20IOFireWireAVCSubUnit4initEP12OSDictionaryP17IOFireWireAVCUnit
__ZN20IOFireWireAVCSubUnit7messageEjP9IOServicePv
__ZN20IOFireWireAVCSubUnit9MetaClassC1Ev
__ZN20IOFireWireAVCSubUnit9MetaClassC2Ev
__ZN20IOFireWireAVCSubUnit9metaClassE
__ZN20IOFireWireAVCSubUnitC1EPK11OSMetaClass
__ZN20IOFireWireAVCSubUnitC1Ev
__ZN20IOFireWireAVCSubUnitC2EPK11OSMetaClass
__ZN20IOFireWireAVCSubUnitC2Ev
__ZN20IOFireWireAVCSubUnitD0Ev
__ZN20IOFireWireAVCSubUnitD1Ev
__ZN20IOFireWireAVCSubUnitD2Ev
__ZN20IOFireWireAVCSubUnitdlEPvm
__ZN20IOFireWireAVCSubUnitnwEm
__ZN32IOFireWireAVCAsynchronousCommand10gMetaClassE
__ZN32IOFireWireAVCAsynchronousCommand10superClassE
__ZN32IOFireWireAVCAsynchronousCommand42_RESERVEDIOFireWireAVCAsynchronousCommand0Ev
__ZN32IOFireWireAVCAsynchronousCommand42_RESERVEDIOFireWireAVCAsynchronousCommand1Ev
__ZN32IOFireWireAVCAsynchronousCommand42_RESERVEDIOFireWireAVCAsynchronousCommand2Ev
__ZN32IOFireWireAVCAsynchronousCommand42_RESERVEDIOFireWireAVCAsynchronousCommand3Ev
__ZN32IOFireWireAVCAsynchronousCommand4freeEv
__ZN32IOFireWireAVCAsynchronousCommand4initEPKhjPFvPvPS_ES2_
__ZN32IOFireWireAVCAsynchronousCommand6cancelEv
__ZN32IOFireWireAVCAsynchronousCommand6reinitEPKhj
__ZN32IOFireWireAVCAsynchronousCommand6submitEP16IOFireWireAVCNub
__ZN32IOFireWireAVCAsynchronousCommand9MetaClassC1Ev
__ZN32IOFireWireAVCAsynchronousCommand9MetaClassC2Ev
__ZN32IOFireWireAVCAsynchronousCommand9isPendingEv
__ZN32IOFireWireAVCAsynchronousCommand9metaClassE
__ZN32IOFireWireAVCAsynchronousCommandC1EPK11OSMetaClass
__ZN32IOFireWireAVCAsynchronousCommandC1Ev
__ZN32IOFireWireAVCAsynchronousCommandC2EPK11OSMetaClass
__ZN32IOFireWireAVCAsynchronousCommandC2Ev
__ZN32IOFireWireAVCAsynchronousCommandD0Ev
__ZN32IOFireWireAVCAsynchronousCommandD1Ev
__ZN32IOFireWireAVCAsynchronousCommandD2Ev
__ZN32IOFireWireAVCAsynchronousCommanddlEPvm
__ZN32IOFireWireAVCAsynchronousCommandnwEm
__ZNK16IOFireWireAVCNub12getMetaClassEv
__ZNK16IOFireWireAVCNub9MetaClass5allocEv
__ZNK17IOFireWireAVCUnit12getMetaClassEv
__ZNK17IOFireWireAVCUnit9MetaClass5allocEv
__ZNK18IOFireWirePCRSpace12getMetaClassEv
__ZNK18IOFireWirePCRSpace9MetaClass5allocEv
__ZNK20IOFireWireAVCCommand12getMetaClassEv
__ZNK20IOFireWireAVCCommand9MetaClass5allocEv
__ZNK20IOFireWireAVCSubUnit12getMetaClassEv
__ZNK20IOFireWireAVCSubUnit9MetaClass5allocEv
__ZNK32IOFireWireAVCAsynchronousCommand12getMetaClassEv
__ZNK32IOFireWireAVCAsynchronousCommand9MetaClass5allocEv
__ZTV16IOFireWireAVCNub
__ZTV17IOFireWireAVCUnit
__ZTV18IOFireWirePCRSpace
__ZTV20IOFireWireAVCCommand
__ZTV20IOFireWireAVCSubUnit
__ZTV32IOFireWireAVCAsynchronousCommand
__ZTVN16IOFireWireAVCNub9MetaClassE
__ZTVN17IOFireWireAVCUnit9MetaClassE
__ZTVN18IOFireWirePCRSpace9MetaClassE
__ZTVN20IOFireWireAVCCommand9MetaClassE
__ZTVN20IOFireWireAVCSubUnit9MetaClassE
__ZTVN32IOFireWireAVCAsynchronousCommand9MetaClassE