single module:_SessionGetInfo
single module:__ZN8Security17ModuleNexusCommon6createEPFPvvE
single module:__Znwm
single module:dyld_stub_binding_helper
single module:__ZN8Security5MutexC1Eb
single module:__ZN8Security5MutexC4Eb
single module:__ZN8Security5Mutex4lockEv
single module:__ZN8Security9Allocator8standardEm
single module:__ZN8Security5Mutex6unlockEv
single module:__ZN8Security5MutexD1Ev
single module:__ZN8Security5MutexD4Ev
single module:__ZdlPv
single module:__ZN8Security14SecurityServer13ClientSessionC2ERNS_9AllocatorES3_
single module:__ZN8Security14SecurityServer13ClientSessionC4ERNS_9AllocatorES3_
single module:__ZN8Security14SecurityServer13ClientSession14getSessionInfoERmS2_
single module:__ZN8Security14SecurityServer13ClientSession8activateEv
single module:__ZN8Security14SecurityServer13ClientSession6GlobalC1Ev
single module:__ZN8Security14SecurityServer13ClientSession6GlobalC4Ev
single module:__ZN8Security15ThreadStoreSlotC2EPFvPvE
single module:__ZN8Security15ThreadStoreSlotC4EPFvPvE
single module:__ZN8Security14SecurityServer13ClientSession13findSecuritydEv
single module:__ZN8Security12MachPlusPlus5Error5checkEi
single module:__ZNK8Security12MachPlusPlus9Bootstrap6lookupEPKc
single module:__ZNSsC4Ev
single module:__ZNSs12_Alloc_hiderC4EPcRKSaIcE
single module:__ZN8Security7OSXCode4mainEv
single module:__ZN8Security8cfStringEPK7__CFURLb
single module:__ZNSsC1EPKcRKSaIcE
single module:__ZNSsC4EPKcRKSaIcE
single module:__ZNSs12_S_constructIPKcEEPcT_S3_RKSaIcESt20forward_iterator_tag
single module:__ZNSs4_Rep9_S_createEmRKSaIcE
single module:__ZNSt24__default_alloc_templateILb1ELi0EE9_S_refillEm
single module:__ZNSt24__default_alloc_templateILb1ELi0EE14_S_chunk_allocEmRi
single module:__ZNSaIcED4Ev
single module:__ZNKSs5c_strEv
single module:__ZNKSs6substrEmm
single module:__ZNSsC1ERKSsmm
single module:__ZNSsC4ERKSsmm
single module:__ZNKSs8_M_checkEm
single module:__ZNKSs9_M_ibeginEv
single module:__ZNKSs7_M_foldEmm
single module:__ZNSs12_S_constructIN9__gnu_cxx17__normal_iteratorIPcSsEEEES2_T_S4_RKSaIcESt20forward_iterator_tag
single module:__ZNSs13_S_copy_charsEPcN9__gnu_cxx17__normal_iteratorIS_SsEES2_
single module:__ZN8Security13GenericBundleC2EPKcS2_
single module:__ZN8Security13GenericBundleC4EPKcS2_
single module:__ZNSsD4Ev
single module:__ZNKSs13get_allocatorEv
single module:__ZNSs4_Rep10_M_destroyERKSaIcE
single module:__ZNK8Security13GenericBundle6encodeEv
single module:__ZStplIcSt11char_traitsIcESaIcEESbIT_T0_T1_EPKS3_RKS6_
single module:__ZNSs7reserveEm
single module:__ZNSs4_Rep8_M_cloneERKSaIcEm
single module:__ZNKSs7_M_iendEv
single module:__ZNSs7replaceEN9__gnu_cxx17__normal_iteratorIPcSsEES2_PKcS4_
single module:__ZNSs7replaceEmmPKcm
single module:__ZNSs15_M_replace_safeIPKcEERSsN9__gnu_cxx17__normal_iteratorIPcSsEES6_T_S7_
single module:__ZNSs9_M_mutateEmmm
single module:__ZNSs6appendERKSs
single module:__ZNSs15_M_replace_safeIN9__gnu_cxx17__normal_iteratorIPcSsEEEERSsS3_S3_T_S5_
single module:__ZNSs6assignERKSs
single module:__ZNSs4_Rep7_M_grabERKSaIcES2_
single module:_ucsp_client_setup
single module:__Z27__MIG_check__Reply__setup_tP16__Reply__setup_t
single module:__ZN8Security12MachPlusPlus4Port13requestNotifyEjij
single module:_ucsp_client_getSessionInfo
single module:__Z36__MIG_check__Reply__getSessionInfo_tP25__Reply__getSessionInfo_t
single module:_AuthorizationCreate
single module:__ZN8Security14SecurityServer13ClientSession10authCreateEPK20AuthorizationItemSetS4_mRNS0_17AuthorizationBlobE
single module:_ucsp_client_authorizationCreate
single module:__Z41__MIG_check__Reply__authorizationCreate_tP30__Reply__authorizationCreate_t
single module:__ZN16DefaultAllocator4freeEPv
single module:__ZN16DefaultAllocator6mallocEm
single module:_AuthorizationMakeExternalForm
single module:__ZN8Security14SecurityServer13ClientSession15authExternalizeERKNS0_17AuthorizationBlobER25AuthorizationExternalForm
single module:_ucsp_client_authorizationExternalize
single module:__Z46__MIG_check__Reply__authorizationExternalize_tP35__Reply__authorizationExternalize_t
single module:__ZNK8Security14ExecutableTool6encodeEv
single module:_SecKeychainAddCallback
single module:__ZN8Security12KeychainCore7GlobalsC1Ev
single module:__ZN8Security12KeychainCore7GlobalsC4Ev
single module:__ZN8Security12KeychainCore14StorageManagerC1Ev
single module:__ZN8Security12KeychainCore14StorageManagerC4Ev
single module:__ZNSt24__default_alloc_templateILb1ELi0EE8allocateEm
single module:__ZNSt24__default_alloc_templateILb1ELi0EE5_LockC4Ev
single module:__ZNSt24__default_alloc_templateILb1ELi0EE5_LockD4Ev
single module:__ZN8Security12KeychainCore15DynamicDLDBListC1Ev
single module:__ZN8Security12KeychainCore15DynamicDLDBListC4Ev
single module:__ZN8Security14DLDbListCFPrefC1E20SecPreferencesDomain
single module:__ZN8Security14DLDbListCFPrefC4E20SecPreferencesDomain
single module:__ZN8Security14DLDbListCFPref16loadPropertyListEb
single module:__ZN8Security14DLDbListCFPref18ExpandTildesInPathERKSs
single module:__ZNKSs4findEPKcmm
single module:__ZN8Security14DLDbListCFPref9getPwInfoENS0_10PwInfoTypeE
single module:__ZStplIcSt11char_traitsIcESaIcEESbIT_T0_T1_ERKS6_S8_
single module:__ZNSsC1ERKSs
single module:__ZNSsC4ERKSs
single module:__ZNKSs7compareERKSs
single module:__ZNSs6assignEPKcm
single module:__ZN8Security5MutexC1ENS0_4TypeEb
single module:__ZN8Security5MutexC4ENS0_4TypeEb
single module:__ZN8Security10CssmClient10AclFactoryC1Ev
single module:__ZN8Security10CssmClient10AclFactoryC4Ev
single module:__ZN8Security12KeychainCore12CCallbackMgr11AddCallbackEPFlmP23SecKeychainCallbackInfoPvEmS4_
single module:__ZN8Security12KeychainCore12CallbackInfoC4EPFlmP23SecKeychainCallbackInfoPvEmS4_
single module:__ZN8Security12KeychainCore12CallbackInfoC4Ev
single module:__ZN8Security12KeychainCore12CCallbackMgrC4Ev
single module:__ZN8Security8ObserverC2Emm
single module:__ZN8Security8ObserverC4Emm
single module:__ZN8Security14SecurityServer13EventListenerC2EmmRNS_9AllocatorES3_
single module:__ZN8Security14SecurityServer13EventListenerC4EmmRNS_9AllocatorES3_
single module:__ZN8Security12MachPlusPlus10CFAutoPortC2Ev
single module:__ZN8Security12MachPlusPlus10CFAutoPortC4Ev
single module:__ZN8Security12MachPlusPlus10CFAutoPort6enableEv
single module:__ZN8Security12MachPlusPlus4Port6qlimitEj
single module:__ZN8Security14SecurityServer13ClientSession19requestNotificationENS_12MachPlusPlus4PortEmm
single module:_ucsp_client_requestNotification
single module:__Z41__MIG_check__Reply__requestNotification_tP30__Reply__requestNotification_t
single module:__ZN8Security12KeychainCore12CallbackInfoD4Ev
single module:_SecKeychainCopySearchList
single module:__ZN8Security12KeychainCore14StorageManager13getSearchListERSt6vectorINS0_8KeychainESaIS3_EE
single module:__ZN8Security14DLDbListCFPref6revertEb
single module:__ZN8Security14DLDbListCFPref10searchListEv
single module:__ZN8Security14DLDbListCFPref21defaultDLDbIdentifierEv
single module:__ZN8Security14DLDbListCFPref19loginDLDbIdentifierEv
single module:__ZN8Security14DLDbListCFPref25JaguarLoginDLDbIdentifierEv
single module:__ZN8Security17CssmSubserviceUidC1ERK9cssm_guidPK12cssm_versionmm
single module:__ZN8Security17CssmSubserviceUidC4ERK9cssm_guidPK12cssm_versionmm
single module:__ZN8Security6DbNameC1EPKcPK16cssm_net_address
single module:__ZN8Security6DbNameC4EPKcPK16cssm_net_address
single module:__ZN8Security14DLDbListCFPref19LoginDLDbIdentifierEv
single module:__ZN8Security6DbNameD1Ev
single module:__ZN8Security6DbNameD4Ev
single module:__ZN8Security12KeychainCore15DynamicDLDBList10searchListEv
single module:__ZN8Security12KeychainCore15DynamicDLDBList5_loadEv
single module:__ZN8Security9MDSClient9DirectoryC1Ev
single module:__ZN8Security9MDSClient9DirectoryC4Ev
single module:__ZN8Security28CssmAllocatorMemoryFunctionsC1ERNS_9AllocatorE
single module:__ZN8Security28CssmAllocatorMemoryFunctionsC4ERNS_9AllocatorE
single module:_MDS_Initialize
single module:__ZN8Security10MDSSessionC1EPKNS_4GuidERK17cssm_memory_funcs
single module:__ZN8Security10MDSSessionC4EPKNS_4GuidERK17cssm_memory_funcs
single module:__ZN8Security9MDSModule3getEv
single module:__ZN8Security9MDSModuleC4Ev
single module:__ZN8Security20AppleDatabaseManagerC1EPKNS_22AppleDatabaseTableNameE
single module:__ZN8Security20AppleDatabaseManagerC4EPKNS_22AppleDatabaseTableNameE
single module:__ZN8Security15DatabaseManagerC2Ev
single module:__ZN8Security15DatabaseManagerC4Ev
single module:__ZN8Security15DatabaseSessionC2ERNS_15DatabaseManagerE
single module:__ZN8Security15DatabaseSessionC4ERNS_15DatabaseManagerE
single module:__ZN8Security12HandleObject5StateC1Ev
single module:__ZN8Security12HandleObject5StateC4Ev
single module:__ZN8Security5MutexC2Eb
single module:__ZN8Security12HandleObject5State4makeEPS0_
single module:__Z10mds_DbOpenmPKcPK16cssm_net_addressmPK23cssm_access_credentialsPKvPm
single module:__ZN8Security12HandleObject5State4findEml
single module:___dynamic_cast
single module:__ZNK10__cxxabiv121__vmi_class_type_info12__do_dyncastEiNS_17__class_type_info10__sub_kindEPKS1_PKvS4_S6_RNS1_16__dyncast_resultE
single module:__ZNKSt9type_infoeqERKS_
single module:__ZN8Security10MDSSession6DbOpenEPKcPK16cssm_net_addressmPKNS_17AccessCredentialsEPKvRm
single module:__ZN8Security10MDSSession15updateDataBasesEb
single module:__ZN8Security9MDSModule17timeSinceLastScanEv
single module:__ZN8Security4Time3nowEv
single module:__ZN8Security9createDirEPKct
single module:__ZN8Security15doesDirectExistEPKc
single module:__ZN8Security10MDSSession10obtainLockEPKcRii
single module:__ZN8Security12doFilesExistEPKcS1_b
single module:__ZN8Security10MDSSession11DbFilesInfoC1ERS0_PKc
single module:__ZN8Security10MDSSession11DbFilesInfoC4ERS0_PKc
single module:__ZN8Security10MDSSession11DbFilesInfo21removeOutdatedPluginsEv
single module:__ZN8Security10MDSSession11DbFilesInfo9objDbHandEv
single module:__ZN8Security15DatabaseSession6DbOpenEPKcPK16cssm_net_addressmPKNS_17AccessCredentialsEPKvRm
single module:__ZN8Security15DatabaseManager6dbOpenERNS_15DatabaseSessionERKNS_6DbNameEmPKNS_17AccessCredentialsEPKv
single module:__ZN8Security15DatabaseManager3getERKNS_6DbNameE
single module:__ZN8Security20AppleDatabaseManager4makeERKNS_6DbNameE
single module:__ZN8Security13AppleDatabaseC1ERKNS_6DbNameEPKNS_22AppleDatabaseTableNameE
single module:__ZN8Security13AppleDatabaseC4ERKNS_6DbNameEPKNS_22AppleDatabaseTableNameE
single module:__ZN8Security8DatabaseC2ERKNS_6DbNameE
single module:__ZN8Security8DatabaseC4ERKNS_6DbNameE
single module:__ZN8Security6DbNameC1ERKS0_
single module:__ZN8Security6DbNameC4ERKS0_
single module:__ZN8Security10AtomicFileC1ERKSs
single module:__ZN8Security10AtomicFileC4ERKSs
single module:__ZN8Security10AtomicFile9pathSplitERKSsRSsS3_
single module:__ZNKSs5rfindEcm
single module:__ZN8Security10DbModifierC4ERNS_10AtomicFileERKNS_13AppleDatabaseE
single module:__ZN8Security8Database7_dbOpenERNS_15DatabaseSessionEmPKNS_17AccessCredentialsEPKv
single module:__ZN8Security13AppleDatabase13makeDbContextERNS_15DatabaseSessionEmPKNS_17AccessCredentialsEPKv
single module:__ZN8Security14AppleDbContextC4ERNS_8DatabaseERNS_15DatabaseSessionEmPKNS_17AccessCredentialsEPKv
single module:__ZN8Security9DbContextC2ERNS_8DatabaseERNS_15DatabaseSessionEmPK23cssm_access_credentials
single module:__ZN8Security9DbContextC4ERNS_8DatabaseERNS_15DatabaseSessionEmPK23cssm_access_credentials
single module:__ZN8Security13AppleDatabase6dbOpenERNS_9DbContextE
single module:__ZN8Security10DbModifier6commitEv
single module:__ZN8Security10DbModifier12getDbVersionEv
single module:__ZN8Security10AtomicFile4readEv
single module:__ZN8Security18AtomicBufferedFileC1ERKSs
single module:__ZN8Security18AtomicBufferedFileC4ERKSs
single module:__ZN8Security18AtomicBufferedFile4openEv
single module:__ZN8Security10AtomicFile5ropenEPKcit
single module:__ZN8Security9DbVersionC4ERKNS_13AppleDatabaseERKNS_10RefPointerINS_18AtomicBufferedFileEEE
single module:__ZN8Security18AtomicBufferedFile4readExxRx
single module:__ZN8Security18AtomicBufferedFile5closeEv
single module:__ZN8Security10AtomicFile6rcloseEi
single module:__ZN8Security9DbVersion4openEv
single module:__ZN8Security5TableC4ERKNS_11ReadSectionE
single module:__ZN8Security10MetaRecordC1Em
single module:__ZN8Security10MetaRecordC4Em
single module:__ZN8Security9DbVersion9findTableEm
single module:__ZN8Security10MetaRecord22setRecordAttributeInfoERK29cssm_db_record_attribute_info
single module:__ZN8Security10MetaRecord15createAttributeEPKSsPKNS_8CssmDataEmm
single module:__ZN8Security13MetaAttribute6createEmmm
single module:__ZNSt24__default_alloc_templateILb1ELi0EE10deallocateEPvm
single module:__ZNK8Security10MetaRecord12unpackRecordERKNS_11ReadSectionERNS_9AllocatorEP29cssm_db_record_attribute_dataPNS_8CssmDataEm
single module:__ZNK8Security10MetaRecord13metaAttributeERK22cssm_db_attribute_info
single module:__ZNK8Security10MetaRecord14attributeIndexERK22cssm_db_attribute_info
single module:__ZNK8Security13MetaAttribute15unpackAttributeERKNS_11ReadSectionERNS_9AllocatorERmRP9cssm_data
single module:__ZNK8Security13MetaAttribute20unpackNumberOfValuesERKNS_11ReadSectionERmS4_
single module:__ZN8Security17TrackingAllocator6mallocEm
single module:__ZN8Security11UInt32ValueC1ERKNS_11ReadSectionERm
single module:__ZN8Security11UInt32ValueC4ERKNS_11ReadSectionERm
single module:__ZN8Security11UInt32ValueD1Ev
single module:__ZN8Security11UInt32ValueD4Ev
single module:__ZN8Security7DbValueD4Ev
single module:__ZN8Security11StringValueC1ERKNS_11ReadSectionERm
single module:__ZN8Security11StringValueC4ERKNS_11ReadSectionERm
single module:__ZN8Security9BlobValueC4ERKNS_11ReadSectionERm
single module:__ZN8Security11StringValueD1Ev
single module:__ZN8Security11StringValueD4Ev
single module:__ZN8Security9BlobValueD4Ev
single module:__ZN8Security17TrackingAllocator6commitEv
single module:__ZN8Security17TrackingAllocatorD1Ev
single module:__ZN8Security17TrackingAllocatorD4Ev
single module:__ZN8Security17TrackingAllocator5resetEv
single module:__ZN8Security9AllocatorD2Ev
single module:__ZN8Security9AllocatorD4Ev
single module:__ZNK8Security19CssmDbAttributeDatacvmEv
single module:__ZNK8Security19CssmDbAttributeDatacvSsEv
single module:__ZNK8Security8CssmData8toStringEv
single module:__ZNSsC1EPKcmRKSaIcE
single module:__ZNSsC4EPKcmRKSaIcE
single module:__ZN8Security5Table16readIndexSectionEv
single module:__ZN8Security12DbConstIndexC1ERKNS_5TableERKNS_11ReadSectionE
single module:__ZN8Security12DbConstIndexC4ERKNS_5TableERKNS_11ReadSectionE
single module:__ZN8Security7DbIndexC4ERKNS_10MetaRecordEmb
single module:__ZN8Security15DatabaseSession15insertDbContextERNS_9DbContextE
single module:__ZN8Security10MDSSession12DataGetFirstEmPKNS_9CssmQueryEP29cssm_db_record_attribute_dataPNS_8CssmDataERP21cssm_db_unique_record
single module:__ZN8Security15DatabaseSession12DataGetFirstEmPKNS_9CssmQueryEP29cssm_db_record_attribute_dataPNS_8CssmDataERP21cssm_db_unique_record
single module:__ZN8Security15DatabaseSession13findDbContextEm
single module:__ZN8Security13AppleDatabase12dataGetFirstERNS_9DbContextEPKNS_9CssmQueryEP29cssm_db_record_attribute_dataPNS_8CssmDataERP21cssm_db_unique_record
single module:__ZN8Security10DbModifier12createCursorEPK10cssm_query
single module:__ZN8Security18AtomicBufferedFileD1Ev
single module:__ZN8Security18AtomicBufferedFileD4Ev
single module:__ZNK8Security9DbVersion9findTableEm
single module:__ZNK8Security5Table12createCursorEPK10cssm_queryRKNS_9DbVersionE
single module:__ZNK8Security12DbConstIndex12matchesQueryERK10cssm_queryRPNS_10DbQueryKeyE
single module:__ZN8Security12LinearCursorC1EPK10cssm_queryRKNS_9DbVersionERKNS_5TableE
single module:__ZN8Security12LinearCursorC4EPK10cssm_queryRKNS_9DbVersionERKNS_5TableE
single module:__ZN8Security6CursorC4ERKNS_9DbVersionE
single module:__ZN8Security12LinearCursor4nextERmP29cssm_db_record_attribute_dataPNS_8CssmDataERNS_9AllocatorERNS_8RecordIdE
single module:__ZN8Security28CssmAllocatorMemoryFunctions11relayMallocEmPv
single module:__ZN8Security13AppleDatabase18createUniqueRecordERNS_9DbContextEmRKNS_8RecordIdE
single module:__ZN8Security13AppleDatabase18updateUniqueRecordERNS_9DbContextEmRKNS_8RecordIdER21cssm_db_unique_record
single module:__ZN8Security15DatabaseSession16FreeUniqueRecordEmR21cssm_db_unique_record
single module:__ZN8Security13AppleDatabase16freeUniqueRecordERNS_9DbContextER21cssm_db_unique_record
single module:__ZN8Security28CssmAllocatorMemoryFunctions9relayFreeEPvS1_
single module:__ZN8Security10MDSSession11DbFilesInfo19checkOutdatedPluginERK9cssm_dataS4_RSt6vectorIPNS1_9TbdRecordESaIS7_EE
single module:__ZNSs7_M_leakEv
single module:__ZNSs12_M_leak_hardEv
single module:__ZN8Security15DatabaseSession11DataGetNextEmmP29cssm_db_record_attribute_dataPNS_8CssmDataERP21cssm_db_unique_record
single module:__ZN8Security13AppleDatabase11dataGetNextERNS_9DbContextEmP29cssm_db_record_attribute_dataPNS_8CssmDataERP21cssm_db_unique_record
single module:__ZNK10__cxxabiv120__si_class_type_info12__do_dyncastEiNS_17__class_type_info10__sub_kindEPKS1_PKvS4_S6_RNS1_16__dyncast_resultE
single module:__ZN8Security12LinearCursorD0Ev
single module:__ZN8Security12LinearCursorD4Ev
single module:__ZN8Security6CursorD4Ev
single module:__ZN8Security12HandleObjectD2Ev
single module:__ZN8Security12HandleObjectD4Ev
single module:__ZN8Security12HandleObject5State5eraseEPS0_
single module:__ZN8Security10MDSSession11DbFilesInfo18updateSystemDbInfoEPKcS3_
single module:__ZN8Security10MDSSession11DbFilesInfo18updateForBundleDirEPKc
single module:__ZN8Security8isBundleEPK6dirent
single module:__ZN8Security10MDSSession11DbFilesInfo15updateForBundleEPKc
single module:__ZN8Security10MDSSession11DbFilesInfo13lookupForPathEPKc
single module:__Znam
single module:__ZdaPv
single module:__ZN8Security18SelectionPredicateC1ERKNS_10MetaRecordERK24cssm_selection_predicate
single module:__ZN8Security18SelectionPredicateC4ERKNS_10MetaRecordERK24cssm_selection_predicate
single module:__ZN8Security11StringValueC1ERK9cssm_data
single module:__ZN8Security11StringValueC4ERK9cssm_data
single module:__ZN8Security9BlobValueC4ERK9cssm_data
single module:__ZNK8Security18SelectionPredicate8evaluateERKNS_11ReadSectionE
single module:__ZNK8Security11StringValue8evaluateERKS0_m
single module:__ZN8Security9BlobValue8evaluateERKNS_8CssmDataES3_mNS0_10ComparatorE
single module:__ZN8Security9BlobValue10ComparatorD4Ev
single module:__ZN8Security9BlobValue10ComparatorclEPKhS3_m
single module:__ZN8Security15DatabaseSession14DataAbortQueryEmm
single module:__ZN8Security13AppleDatabase14dataAbortQueryERNS_9DbContextEm
single module:__ZN8Security18SelectionPredicateD1Ev
single module:__ZN8Security18SelectionPredicateD4Ev
single module:__ZN8Security11StringValueD0Ev
single module:__ZN8Security16checkUserBundlesEPKc
single module:__ZN8Security9MDSModule9setDbPathEPKc
single module:__ZN8Security10MDSSession11DbFilesInfoD1Ev
single module:__ZN8Security10MDSSession11DbFilesInfoD4Ev
single module:__ZN8Security15DatabaseSession11PassThroughEmmPKvPPv
single module:__ZN8Security13AppleDatabase11passThroughERNS_9DbContextEmPKvPPv
single module:__ZN8Security15DatabaseSession7DbCloseEm
single module:__ZN8Security15DatabaseManager7dbCloseERNS_9DbContextE
single module:__ZN8Security8Database8_dbCloseERNS_9DbContextE
single module:__ZN8Security13AppleDatabase7dbCloseEv
single module:__ZN8Security10DbModifier13closeDatabaseEv
single module:__ZN8Security9DbVersionD4Ev
single module:__ZN8Security5TableD1Ev
single module:__ZN8Security5TableD4Ev
single module:__ZN8Security10MetaRecordD1Ev
single module:__ZN8Security10MetaRecordD4Ev
single module:__ZN8Security13MetaAttributeD4Ev
single module:__ZN8Security15DatabaseManager14removeIfUnusedERNS_8DatabaseE
single module:__ZN8Security8Database13hasDbContextsEv
single module:__ZN8Security13AppleDatabaseD0Ev
single module:__ZN8Security13AppleDatabaseD4Ev
single module:__ZN8Security10DbModifierD4Ev
single module:__ZN8Security10AtomicFileD1Ev
single module:__ZN8Security10AtomicFileD4Ev
single module:__ZN8Security8DatabaseD2Ev
single module:__ZN8Security8DatabaseD4Ev
single module:__ZN8Security14AppleDbContextD0Ev
single module:__ZN8Security14AppleDbContextD4Ev
single module:__ZN8Security9DbContextD2Ev
single module:__ZN8Security9DbContextD4Ev
single module:__ZN8Security9MDSModule13lastScanIsNowEv
single module:__ZN8Security10MDSSession11releaseLockERi
single module:__ZN8Security10MDSSession10dbFullPathEPKcPc
single module:__ZN8Security9MDSModule9getDbPathEPc
single module:__ZN8Security10CssmClient9TableBaseC2ERNS0_8DLAccessEmb
single module:__ZN8Security10CssmClient9TableBaseC4ERNS0_8DLAccessEmb
single module:__ZN8Security10CssmClient10ComparisonC1ERKNS0_9AttributeEmb
single module:__ZN8Security10CssmClient10ComparisonC4ERKNS0_9AttributeEmb
single module:__ZN8Security12CssmAutoData5resetEv
single module:__ZN8Security10CssmClient10ComparisonC1ERKS1_
single module:__ZN8Security10CssmClient10ComparisonC4ERKS1_
single module:__ZNK8Security13CssmOwnedData3getEv
single module:__ZN8Security15CssmManagedDataD2Ev
single module:__ZN8Security15CssmManagedDataD4Ev
single module:__ZNK8Security10CssmClient5Query9cssmQueryEv
single module:__ZN8Security19CssmDbAttributeInfoC1EPKcm
single module:__ZN8Security19CssmDbAttributeInfoC4EPKcm
single module:__ZN8Security9MDSClient6CommonC1Ev
single module:__ZN8Security9MDSClient6CommonC4Ev
single module:__ZN8Security10CssmClient6RecordC2EPKPKc
single module:__ZN8Security10CssmClient6RecordC4EPKPKc
single module:__ZN8Security10CssmClient6Record13addAttributesEPKPKc
single module:__ZN8Security29CssmAutoDbRecordAttributeData3addERK22cssm_db_attribute_info
single module:__ZN8Security29CssmAutoDbRecordAttributeData21getAttributeReferenceERK22cssm_db_attribute_info
single module:__ZN8Security29CssmAutoDbRecordAttributeData13findAttributeERK22cssm_db_attribute_info
single module:__ZN16DefaultAllocator7reallocEPvm
single module:__Z21CompareAttributeInfosRK22cssm_db_attribute_infoS1_
single module:__ZN8Security9MDSClient9Directory9allocatorEv
single module:__ZN8Security9MDSClient9Directory10dlGetFirstERK10cssm_queryR29cssm_db_record_attribute_dataP9cssm_dataRP21cssm_db_unique_record
single module:__Z16mds_DataGetFirst17cssm_dl_db_handlePK10cssm_queryPmP29cssm_db_record_attribute_dataP9cssm_dataPP21cssm_db_unique_record
single module:__ZN8Security11UInt32ValueC1ERK9cssm_data
single module:__ZN8Security11UInt32ValueC4ERK9cssm_data
single module:__ZN8Security13CssmOwnedData3setERNS_15CssmManagedDataE
single module:__ZN18SensitiveAllocator4freeEPv
single module:__ZN8Security10CssmClient9TableBase8IteratorC2EPNS0_8DLAccessEmP21cssm_db_unique_recordPNS0_6RecordEb
single module:__ZN8Security10CssmClient9TableBase8IteratorC4EPNS0_8DLAccessEmP21cssm_db_unique_recordPNS0_6RecordEb
single module:__ZNK8Security9MDSClient6Common11serviceMaskEv
single module:__ZNK8Security9MDSClient6Common8moduleIDEv
single module:__ZN8Security4GuidC1ERKSs
single module:__ZN8Security4GuidC4ERKSs
single module:__ZN8Security4Guid9parseGuidEPKc
single module:__ZN8Security10CssmClient10ModuleImplC1ERKNS_4GuidE
single module:__ZN8Security10CssmClient10ModuleImplC4ERKNS_4GuidE
single module:__ZN8Security10CssmClient8CssmImpl8standardEv
single module:__ZN8Security10CssmClient8CssmImpl12StandardCssm3getEv
single module:__ZN8Security10CssmClient8CssmImplC4Eb
single module:__ZN8Security10CssmClient10ObjectImplC4Ev
single module:__ZN8Security10CssmClient8CssmImpl5setupEv
single module:__ZN8Security10CssmClient10ObjectImplC4ERKNS0_6ObjectE
single module:__ZN8Security10CssmClient10ObjectImpl8addChildEv
single module:__ZN8Security10CssmClient10ModuleImpl17appNotifyCallbackEPFlPK9cssm_guidPvmmmES5_
single module:__ZN8Security10CssmClient10ModuleImpl8activateEv
single module:__ZNK8Security10CssmClient10ModuleImpl7sessionEv
single module:__ZN8Security10CssmClient8CssmImpl8activateEv
single module:_CSSM_Init
single module:__ZN11CssmManagerC1Ev
single module:__ZN11CssmManagerC4Ev
single module:__ZN17AttachmentFactoryC2Ev
single module:__ZN17AttachmentFactoryC4Ev
single module:__ZN8Security12ModuleLoaderC1Ev
single module:__ZN8Security12ModuleLoaderC4Ev
single module:__ZN11CssmManager10initializeERK12cssm_versionmRKN8Security4GuidEmRm
single module:__ZN11CssmManager12checkVersionERK12cssm_version
single module:_CSSM_ModuleLoad
single module:__ZN11CssmManager10loadModuleERKN8Security4GuidEmRKNS0_14ModuleCallbackE
single module:__ZN12MdsComponentC1ERKN8Security4GuidE
single module:__ZN12MdsComponentC4ERKN8Security4GuidE
single module:__ZN8Security10CssmClient10ComparisonC1ERKNS0_9AttributeEmRK9cssm_guid
single module:__ZN8Security10CssmClient10ComparisonC4ERKNS0_9AttributeEmRK9cssm_guid
single module:__ZNK8Security4Guid8toStringEv
single module:__ZNK8Security4Guid8toStringEPc
single module:__ZN8Security10DbQueryKeyC4ERKNS_12DbConstIndexE
single module:__ZNK8Security9BlobValue4packERNS_12WriteSectionERm
single module:__ZN8Security11IndexCursorC1EPNS_10DbQueryKeyERKNS_9DbVersionERKNS_5TableEPKNS_12DbConstIndexE
single module:__ZN8Security11IndexCursorC4EPNS_10DbQueryKeyERKNS_9DbVersionERKNS_5TableEPKNS_12DbConstIndexE
single module:__ZNK8Security12DbConstIndex12performQueryERKNS_10DbQueryKeyERPKNS_6EndianImEES8_
single module:__ZNK8Security15DbKeyComparatorclEmm
single module:__ZN8Security11IndexCursor4nextERmP29cssm_db_record_attribute_dataPNS_8CssmDataERNS_9AllocatorERNS_8RecordIdE
single module:__ZNK8Security12DbConstIndex16getRecordSectionEPKNS_6EndianImEE
single module:__ZNK8Security5Table16getRecordSectionEm
single module:__ZN8Security10CssmClient9TableBase3UidD1Ev
single module:__ZN8Security10CssmClient9TableBase3UidD4Ev
single module:__ZN8Security9MDSClient9Directory14dlFreeUniqueIdEP21cssm_db_unique_record
single module:__Z20mds_FreeUniqueRecord17cssm_dl_db_handleP21cssm_db_unique_record
single module:__ZN8Security10CssmClient9TableBase6HandleD1Ev
single module:__ZN8Security10CssmClient9TableBase6HandleD4Ev
single module:__ZN8Security9MDSClient9Directory12dlAbortQueryEm
single module:__Z18mds_DataAbortQuery17cssm_dl_db_handlem
single module:__ZN8Security11IndexCursorD0Ev
single module:__ZN8Security11IndexCursorD4Ev
single module:__ZNK8Security9MDSClient6Common4pathEv
single module:__ZN8Security12ModuleLoaderclERKSs
single module:__ZN6ModuleC1EP11CssmManagerRK12MdsComponentPN8Security6PluginE
single module:__ZN6ModuleC4EP11CssmManagerRK12MdsComponentPN8Security6PluginE
single module:__ZN8Security12StaticPlugin4loadEPK9cssm_guidS3_PFlS3_PvmmmES4_
single module:_CSSM_SPI_ModuleLoad__sd_cspdl
single module:__ZN13SDCSPDLPluginC1Ev
single module:__ZN13SDCSPDLPluginC4Ev
single module:__ZN8Security10CssmPluginC2Ev
single module:__ZN8Security10CssmPluginC4Ev
single module:__ZN14SDCSPDLSessionC1Ev
single module:__ZN14SDCSPDLSessionC4Ev
single module:__ZN8Security7KeyPoolC2Ev
single module:__ZN8Security7KeyPoolC4Ev
single module:__ZN8Security10CssmClient7CSPImplC1ERKNS_4GuidE
single module:__ZN8Security10CssmClient7CSPImplC4ERKNS_4GuidE
single module:__ZN8Security10CssmClient14AttachmentImplC2ERKNS_4GuidEm
single module:__ZN8Security10CssmClient14AttachmentImplC4ERKNS_4GuidEm
single module:__ZN8Security10CssmClient8CssmImpl10autoModuleERKNS_4GuidE
single module:__ZN8Security10CssmClient10ModuleImplC1ERKNS_4GuidERKNS0_4CssmE
single module:__ZN8Security10CssmClient10ModuleImplC4ERKNS_4GuidERKNS0_4CssmE
single module:__ZN8Security10CssmClient14AttachmentImpl4makeEm
single module:__ZN8Security10CssmPlugin10moduleLoadERKNS_4GuidES3_RKNS_14ModuleCallbackE
single module:__ZN8Security10CssmPlugin4loadEv
single module:__ZN12MdsComponentD1Ev
single module:__ZN12MdsComponentD4Ev
single module:__ZN8Security17ModuleCallbackSet6insertERKNS_14ModuleCallbackE
single module:__ZN8Security10CssmClient10ComparisonC1ERKNS0_9AttributeEmRKSs
single module:__ZN8Security10CssmClient10ComparisonC4ERKNS0_9AttributeEmRKSs
single module:__ZN8Security9MDSClient2DLC1Ev
single module:__ZN8Security9MDSClient2DLC4Ev
single module:__ZN8Security9MDSClient13PrimaryRecordC4EPKPKc
single module:__ZN8Security9MDSClient6Common7CarrierD4Ev
single module:__ZN8Security10CssmClient6RecordD2Ev
single module:__ZN8Security10CssmClient6RecordD4Ev
single module:__ZN8Security29CssmAutoDbRecordAttributeDataD1Ev
single module:__ZN8Security29CssmAutoDbRecordAttributeDataD4Ev
single module:__ZN8Security29CssmAutoDbRecordAttributeData5clearEv
single module:__ZN8Security19CssmDbAttributeData12deleteValuesERNS_9AllocatorE
single module:__ZN8Security10CssmClient9TableBase8Iterator7advanceEPNS0_6RecordE
single module:__ZN8Security9MDSClient9Directory9dlGetNextEmR29cssm_db_record_attribute_dataP9cssm_dataRP21cssm_db_unique_record
single module:__Z15mds_DataGetNext17cssm_dl_db_handlemP29cssm_db_record_attribute_dataP9cssm_dataPP21cssm_db_unique_record
single module:__ZN8Security11UInt32ValueD0Ev
single module:__ZN8Security12KeychainCore14StorageManager8keychainERKNS_14DLDbIdentifierE
single module:__ZN8Security10CssmClient11SSCSPDLImplC1ERKNS0_6ModuleE
single module:__ZN8Security10CssmClient11SSCSPDLImplC4ERKNS0_6ModuleE
single module:__ZN8Security10CssmClient9CSPDLImplC4ERKNS0_6ModuleE
single module:__ZN8Security10CssmClient7CSPImplC2ERKNS0_6ModuleE
single module:__ZN8Security10CssmClient7CSPImplC4ERKNS0_6ModuleE
single module:__ZN8Security10CssmClient14AttachmentImplC2ERKNS0_6ModuleEm
single module:__ZN8Security10CssmClient14AttachmentImplC4ERKNS0_6ModuleEm
single module:__ZN8Security10CssmClient6DLImplC2ERKNS0_6ModuleE
single module:__ZN8Security10CssmClient6DLImplC4ERKNS0_6ModuleE
single module:__ZN8Security10CssmClient9CSPDLImpl12subserviceIdEm
single module:__ZN8Security10CssmClient14AttachmentImpl12subserviceIdEm
single module:__ZN8Security10CssmClient11SSCSPDLImpl5newDbEPKcPK16cssm_net_address
single module:__ZN8Security10CssmClient8SSDbImplC1ERKNS0_7SSCSPDLEPKcPK16cssm_net_address
single module:__ZN8Security10CssmClient8SSDbImplC4ERKNS0_7SSCSPDLEPKcPK16cssm_net_address
single module:__ZN8Security10CssmClient6DbImplC2ERKNS0_2DLEPKcPK16cssm_net_address
single module:__ZN8Security10CssmClient6DbImplC4ERKNS0_2DLEPKcPK16cssm_net_address
single module:__ZN8Security10CssmClient10ObjectImplC2ERKNS0_6ObjectE
single module:__ZN8Security12KeychainCore6gTypesEv
single module:__ZN8Security12KeychainCore10SecCFTypesC4Ev
single module:__ZN8Security11CFAllocatorC1ERNS_5MutexE
single module:__ZN8Security11CFAllocatorC4ERNS_5MutexE
single module:__ZN8Security7CFClassC1EPKcPNS_11CFAllocatorE
single module:__ZN8Security7CFClassC4EPKcPNS_11CFAllocatorE
single module:__ZN8Security11SecCFObject8allocateEmRKNS_7CFClassE
single module:__ZN8Security11CFAllocator8allocateElmPv
single module:__ZN8Security12KeychainCore12KeychainImplC1ERKNS_10CssmClient2DbE
single module:__ZN8Security12KeychainCore12KeychainImplC4ERKNS_10CssmClient2DbE
single module:__ZN8Security12KeychainCore18DefaultCredentialsC1ERNS_9AllocatorE
single module:__ZN8Security12KeychainCore18DefaultCredentialsC4ERNS_9AllocatorE
single module:__ZN8Security15AutoCredentialsC2ERNS_9AllocatorE
single module:__ZN8Security15AutoCredentialsC4ERNS_9AllocatorE
single module:__ZN8Security15AutoCredentials4initEv
single module:__ZN8Security10CssmClient6DbImpl18defaultCredentialsEPNS1_23DefaultCredentialsMakerE
single module:__ZN8Security10CssmClient8DLAccessD2Ev
single module:__ZN8Security10CssmClient8DLAccessD4Ev
single module:__ZNK8Security17CssmSubserviceUidltERK19cssm_subservice_uid
single module:__ZNK8Security17CssmSubserviceUideqERK19cssm_subservice_uid
single module:__ZN8Security12KeychainCore14StorageManager23convertFromKeychainListERKSt6vectorINS0_8KeychainESaIS3_EE
single module:__ZN8Security11SecCFObject6handleEb
single module:_SecKeychainOpen
single module:__ZN8Security12KeychainCore14StorageManager4makeEPKcb
single module:__ZN8Security12KeychainCore14StorageManager12makeKeychainERKNS_14DLDbIdentifierEb
single module:__ZN8Security7CFClass9equalTypeEPKvS2_
single module:__ZN8Security11SecCFObject8optionalEPKv
single module:__ZN8Security11SecCFObject5equalERS0_
single module:_SecKeychainGetStatus
single module:__ZN8Security12KeychainCore8Keychain8optionalEP20OpaqueSecKeychainRef
single module:__ZN8Security11SecCFObject8requiredEPKvl
single module:__ZNK8Security12KeychainCore12KeychainImpl6statusEv
single module:__ZN8Security10CssmClient6DbImpl8isLockedEv
single module:__ZN8Security10CssmClient6DbImpl8activateEv
single module:__ZN8Security10CssmClient8SSDbImpl4openEv
single module:__ZN8Security10CssmClient6DbImpl4openEv
single module:__ZN8Security10CssmClient14AttachmentImpl8activateEv
single module:__ZNK8Security10CssmClient14AttachmentImpl6moduleEv
single module:_CSSM_SPI_ModuleLoad__apple_cspdl
single module:__ZN11CSPDLPluginC1Ev
single module:__ZN11CSPDLPluginC4Ev
single module:__ZN14SSCSPDLSessionC1Ev
single module:__ZN14SSCSPDLSessionC4Ev
single module:__ZNK8Security10CssmClient9CSPDLImpl9allocatorEv
single module:__ZNK8Security10CssmClient10ObjectImpl9allocatorEv
single module:_CSSM_ModuleAttach
single module:__ZN11CssmManager9getModuleERKN8Security4GuidE
single module:__ZN6Module6attachERK12cssm_versionmmRK17cssm_memory_funcsmmP19cssm_func_name_addrm
single module:__ZNK17AttachmentFactory18attachmentMakerForEm
single module:__ZN10AttachmentC2EP6ModuleRK12cssm_versionmmRK17cssm_memory_funcsmm
single module:__ZN10AttachmentC4EP6ModuleRK12cssm_versionmmRK17cssm_memory_funcsmm
single module:__ZN8Security12StaticPlugin6attachEPK9cssm_guidPK12cssm_versionmmmmmS3_S3_S3_PK12cssm_upcallsPP17cssm_module_funcs
single module:_CSSM_SPI_ModuleAttach__apple_cspdl
single module:__ZN8Security10CssmPlugin12moduleAttachEmRKNS_4GuidES3_S3_S3_RK12cssm_versionmmmmRK12cssm_upcallsRP17cssm_module_funcs
single module:__ZN11CSPDLPlugin11makeSessionEmRK12cssm_versionmmmRK12cssm_upcalls
single module:__ZN11SSDLSessionC1EmR11CSPDLPluginRK12cssm_versionmmmRK12cssm_upcallsRN8Security15DatabaseManagerER14SSCSPDLSession
single module:__ZN11SSDLSessionC4EmR11CSPDLPluginRK12cssm_versionmmmRK12cssm_upcallsRN8Security15DatabaseManagerER14SSCSPDLSession
single module:__ZN8Security15DLPluginSessionC2EmRNS_10CssmPluginERK12cssm_versionmmmRK12cssm_upcallsRNS_15DatabaseManagerE
single module:__ZN8Security15DLPluginSessionC4EmRNS_10CssmPluginERK12cssm_versionmmmRK12cssm_upcallsRNS_15DatabaseManagerE
single module:__ZN8Security13PluginSessionC2EmRNS_10CssmPluginERK12cssm_versionmmmRK12cssm_upcalls
single module:__ZN8Security13PluginSessionC4EmRNS_10CssmPluginERK12cssm_versionmmmRK12cssm_upcalls
single module:__ZN8Security10CssmClient6DLImplC1ERKNS0_6ModuleE
single module:__ZN8Security14SecurityServer13ClientSessionC1ERNS_9AllocatorES3_
single module:__ZN8Security14SecurityServer13ClientSession19registerForAclEditsEPFvPvRS1_mlES2_
single module:__ZN8Security10CssmClient10ObjectImpl9allocatorERNS_9AllocatorE
single module:__ZN8Security15DLPluginSession9constructEv
single module:_CSSM_DL_DbOpen
single module:__ZN8Security12HandleObject5State6locateEml
single module:__ZN8Security5Mutex7tryLockEv
single module:__ZN8Security13CountingMutex11finishEnterEv
single module:__ZNK8Security9MDSClient6Common14singleThreadedEv
single module:__ZNK8Security19CssmDbAttributeDatacvbEv
single module:__Z11cssm_DbOpenmPKcPK16cssm_net_addressmPK23cssm_access_credentialsPKvPm
single module:__ZN11SSDLSession6DbOpenEPKcPK16cssm_net_addressmPKN8Security17AccessCredentialsEPKvRm
single module:__ZN14SSDatabaseImplC1ERN8Security14SecurityServer13ClientSessionERKNS0_10CssmClient2DLEPKcPK16cssm_net_address
single module:__ZN14SSDatabaseImplC4ERN8Security14SecurityServer13ClientSessionERKNS0_10CssmClient2DLEPKcPK16cssm_net_address
single module:__ZN14SSDatabaseImpl4openERKN8Security14DLDbIdentifierE
single module:_CSSM_SPI_ModuleLoad__apple_file_dl
single module:__ZN11AppleFileDLC1Ev
single module:__ZN11AppleFileDLC4Ev
single module:_CSSM_SPI_ModuleAttach__apple_file_dl
single module:__ZN11AppleFileDL11makeSessionEmRK12cssm_versionmmmRK12cssm_upcalls
single module:__ZN8Security15DLPluginSessionC1EmRNS_10CssmPluginERK12cssm_versionmmmRK12cssm_upcallsRNS_15DatabaseManagerE
single module:__ZN8Security13CountingMutex4exitEv
single module:__ZN8Security10CssmClient10ObjectImpl5checkEl
single module:__ZN14SSDatabaseImpl11getDbBlobIdEPN8Security17CssmDataContainerE
single module:__ZN8Security10CssmClient6DbImpl11newDbCursorEmRNS_9AllocatorE
single module:__ZN8Security10CssmClient14DbDbCursorImplC1ERKNS0_2DbEmRNS_9AllocatorE
single module:__ZN8Security10CssmClient14DbDbCursorImplC4ERKNS0_2DbEmRNS_9AllocatorE
single module:__ZN8Security10CssmClient12DbCursorImplC2ERKNS0_6ObjectEmRNS_9AllocatorE
single module:__ZN8Security10CssmClient12DbCursorImplC4ERKNS0_6ObjectEmRNS_9AllocatorE
single module:__ZN8Security10CssmClient14DbDbCursorImpl4nextEPNS0_12DbAttributesEPNS_17CssmDataContainerERNS0_14DbUniqueRecordE
single module:__ZN14SSDatabaseImpl17newDbUniqueRecordEv
single module:__ZN18SSUniqueRecordImplC1ERK10SSDatabase
single module:__ZN18SSUniqueRecordImplC4ERK10SSDatabase
single module:__ZN8Security10CssmClient18DbUniqueRecordImplC2ERKNS0_2DbE
single module:__ZN8Security10CssmClient18DbUniqueRecordImplC4ERKNS0_2DbE
single module:_CSSM_DL_DataGetFirst
single module:__Z17cssm_DataGetFirst17cssm_dl_db_handlePK10cssm_queryPmP29cssm_db_record_attribute_dataP9cssm_dataPP21cssm_db_unique_record
single module:__ZN8Security15DLPluginSession6mallocEm
single module:__ZN8Security13PluginSession6mallocEm
single module:__ZN10Attachment12upcallMallocEmm
single module:__ZN8Security28CssmMemoryFunctionsAllocator6mallocEm
single module:__ZN8Security10CssmClient18DbUniqueRecordImpl8activateEv
single module:__ZN8Security10CssmClient14DbDbCursorImplD0Ev
single module:__ZN8Security10CssmClient14DbDbCursorImplD4Ev
single module:__ZN8Security10CssmClient14DbDbCursorImpl10deactivateEv
single module:_CSSM_DL_DataAbortQuery
single module:__Z19cssm_DataAbortQuery17cssm_dl_db_handlem
single module:__ZN8Security13CssmAutoQueryD2Ev
single module:__ZN8Security13CssmAutoQueryD4Ev
single module:__ZN8Security13CssmAutoQuery5clearEv
single module:__ZN8Security10CssmClient10ObjectImplD2Ev
single module:__ZN8Security10CssmClient10ObjectImplD4Ev
single module:__ZN8Security10CssmClient10ObjectImpl11removeChildEv
single module:__ZN18SSUniqueRecordImplD0Ev
single module:__ZN18SSUniqueRecordImplD4Ev
single module:__ZN8Security10CssmClient18DbUniqueRecordImplD2Ev
single module:__ZN8Security10CssmClient18DbUniqueRecordImplD4Ev
single module:__ZN8Security10CssmClient18DbUniqueRecordImpl10deactivateEv
single module:_CSSM_DL_FreeUniqueRecord
single module:__Z21cssm_FreeUniqueRecord17cssm_dl_db_handleP21cssm_db_unique_record
single module:__ZN8Security15DLPluginSession4freeEPv
single module:__ZN10Attachment10upcallFreeEmPv
single module:__ZN8Security28CssmMemoryFunctionsAllocator4freeEPv
single module:__ZN8Security14SecurityServer13ClientSession8decodeDbERKNS_14DLDbIdentifierEPKNS_17AccessCredentialsERKNS_8CssmDataE
single module:__ZN8Security25DatabaseAccessCredentialsC1EPKNS_17AccessCredentialsERNS_9AllocatorE
single module:__ZN8Security25DatabaseAccessCredentialsC4EPKNS_17AccessCredentialsERNS_9AllocatorE
single module:_ucsp_client_decodeDb
single module:__Z30__MIG_check__Reply__decodeDb_tP19__Reply__decodeDb_t
single module:__ZN11SSDLSession12makeDbHandleER10SSDatabase
single module:__ZN8Security12KeychainCore12KeychainImpl15makeCredentialsEv
single module:__ZN8Security12KeychainCore12KeychainImpl18defaultCredentialsEv
single module:__ZN8Security12KeychainCore18DefaultCredentialsclENS_10CssmClient2DbE
single module:__ZN8Security10CssmClient20UnlockReferralRecordC1Ev
single module:__ZN8Security10CssmClient20UnlockReferralRecordC4Ev
single module:__ZN8Security10CssmClient14DLCommonFieldsC4EPKPKc
single module:__ZN8Security10CssmClient2Db9allocatorEv
single module:__ZN8Security10CssmClient2Db10dlGetFirstERK10cssm_queryR29cssm_db_record_attribute_dataP9cssm_dataRP21cssm_db_unique_record
single module:__ZN11SSDLSession12DataGetFirstEmPKN8Security9CssmQueryEP29cssm_db_record_attribute_dataPNS0_8CssmDataERP21cssm_db_unique_record
single module:__ZN11SSDLSession12findDbHandleEm
single module:__ZN8Security9CssmError7throwMeEl
single module:___cxa_allocate_exception
single module:__ZN8Security9CssmErrorC4El
single module:__ZN8Security11CommonErrorC2Ev
single module:__ZN8Security11CommonErrorC4Ev
single module:___cxa_throw
single module:___cxa_get_globals
single module:__Z21get_globals_init_oncev
single module:__Unwind_RaiseException
single module:save_world
single module:_uw_init_context_1
single module:_uw_frame_state_for
single module:__Unwind_Find_FDE
single module:__Unwind_Find_registered_FDE
single module:_examine_objects
single module:_search_object
single module:_init_object
single module:_classify_object_over_fdes
single module:_get_cie_encoding
single module:_read_uleb128
single module:_read_sleb128
single module:_read_encoded_value_with_base
single module:_base_from_object
single module:_size_of_encoded_value
single module:_add_fdes
single module:_fde_split
single module:_fde_single_encoding_compare
single module:_frame_heapsort
single module:_extract_cie_info
single module:_execute_cfa_program
single module:_uw_update_context_1
single module:_base_of_encoded_value
single module:___gxx_personality_v0
single module:__Unwind_GetLanguageSpecificData
single module:_uw_update_context
single module:__Z17parse_lsda_headerP15_Unwind_ContextPKhP16lsda_header_info
single module:__Unwind_GetRegionStart
single module:__Z12read_uleb128PKhPj
single module:__Z21base_of_encoded_valuehP15_Unwind_Context
single module:__Unwind_GetIP
single module:__Z28read_encoded_value_with_basehjPKhPj
single module:__Z12read_sleb128PKhPi
single module:__Z15get_ttype_entryP16lsda_header_infoj
single module:__Z21size_of_encoded_valueh
single module:__Z16get_adjusted_ptrPKSt9type_infoS1_PPv
single module:__ZNKSt9type_info14__is_pointer_pEv
single module:__ZNK10__cxxabiv117__class_type_info10__do_catchEPKSt9type_infoPPvj
single module:__ZNK10__cxxabiv117__class_type_info11__do_upcastEPKS0_PPv
single module:__ZNK10__cxxabiv120__si_class_type_info11__do_upcastEPKNS_17__class_type_infoEPKvRNS1_15__upcast_resultE
single module:__ZNK10__cxxabiv117__class_type_info11__do_upcastEPKS0_PKvRNS0_15__upcast_resultE
single module:__Unwind_RaiseException_Phase2
single module:__Unwind_SetGR
single module:__Unwind_SetIP
single module:_uw_install_context_1
single module:_init_dwarf_reg_size_table
single module:eh_rest_world_r10
single module:rest_world_eh_r7r8
single module:___cxa_begin_catch
single module:__ZN8Security9CssmError9cssmErrorERKNS_11CommonErrorEl
single module:__ZN8Security9CssmError9cssmErrorEll
single module:___cxa_end_catch
single module:___cxa_get_globals_fast
single module:__Unwind_DeleteException
single module:__Z23__gxx_exception_cleanup19_Unwind_Reason_CodeP17_Unwind_Exception
single module:__ZN8Security11CommonErrorD2Ev
single module:__ZN8Security11CommonErrorD4Ev
single module:__ZNSt9exceptionD2Ev
single module:__ZNSt9exceptionD4Ev
single module:___cxa_free_exception
single module:__ZN8Security12KeychainCore7Globals11credentialsEv
single module:__ZNK8Security10CssmClient10AclFactory10promptCredEv
single module:__ZN8Security10CssmClient7StaticsC4Ev
single module:__ZN8Security15AutoCredentialsC1ERNS_9AllocatorEm
single module:__ZN8Security15AutoCredentialsC4ERNS_9AllocatorEm
single module:__ZN8Security15AutoCredentials9getSampleEm
single module:__ZN8Security9TypedListC1ERNS_9AllocatorEl
single module:__ZN8Security9TypedListC4ERNS_9AllocatorEl
single module:__ZN8Security11ListElementC4El
single module:__ZN8Security8CssmList6appendEPNS_11ListElementE
single module:__ZN8Security11ListElementC1ERKNS_8CssmListE
single module:__ZN8Security11ListElementC4ERKNS_8CssmListE
single module:__ZN8Security9TypedListC1ERNS_9AllocatorElPNS_11ListElementE
single module:__ZN8Security9TypedListC4ERNS_9AllocatorElPNS_11ListElementE
single module:__ZN8Security11ListElementC1ERNS_9AllocatorERKNS_8CssmDataE
single module:__ZN8Security11ListElementC4ERNS_9AllocatorERKNS_8CssmDataE
single module:__ZN8Security12CssmAutoData7releaseEv
single module:__ZN8Security11ListElementC1El
single module:_CSSM_DL_Authenticate
single module:__Z17cssm_Authenticate17cssm_dl_db_handlemPK23cssm_access_credentials
single module:__ZN11SSDLSession12AuthenticateEmmRKN8Security17AccessCredentialsE
single module:__ZN14SSDatabaseImpl12authenticateEmPK23cssm_access_credentials
single module:__ZN14SSDatabaseImpl8dbHandleEv
single module:__ZN8Security14SecurityServer13ClientSession14authenticateDbEmmPKNS_17AccessCredentialsE
single module:__ZN8Security11ListElement4listEv
single module:__ZN8Security11ListElement4dataEv
single module:__ZN8Security11ListElement4lastEv
single module:__ZNK8Security9TypedList11checkProperEl
single module:__ZNK8Security9TypedList8isProperEv
single module:__ZNK8Security11ListElement4wordEv
single module:_ucsp_client_authenticateDb
single module:__Z36__MIG_check__Reply__authenticateDb_tP25__Reply__authenticateDb_t
single module:_CSSM_DL_PassThrough
single module:__Z16cssm_PassThrough17cssm_dl_db_handlemPKvPPv
single module:__ZN11SSDLSession11PassThroughEmmPKvPPv
single module:__ZN14SSDatabaseImpl8isLockedEv
single module:__ZN8Security14SecurityServer13ClientSession8isLockedEm
single module:_ucsp_client_isLocked
single module:__Z30__MIG_check__Reply__isLocked_tP19__Reply__isLocked_t
single module:_SecKeychainGetPath
single module:__ZN8Security10CssmClient6DbImpl4nameEv
single module:_SecKeychainGetDLDBHandle
single module:_CSSM_GetModuleGUIDFromHandle
single module:_SecKeychainCopyDefault
single module:__ZN8Security12KeychainCore14StorageManager15defaultKeychainEv
single module:_SecKeychainSearchCreateFromAttributes
single module:__ZN8Security12KeychainCore14StorageManager18optionalSearchListEPKvRSt6vectorINS0_8KeychainESaIS5_EE
single module:__ZN8Security12KeychainCore12KCCursorImplC1ERKSt6vectorINS0_8KeychainESaIS3_EEmPK24SecKeychainAttributeListmm
single module:__ZN8Security12KeychainCore12KCCursorImplC4ERKSt6vectorINS0_8KeychainESaIS3_EEmPK24SecKeychainAttributeListmm
single module:__ZN8Security12KeychainCore6Schema13recordTypeForEm
single module:_SecKeychainSearchCopyNext
single module:__ZN8Security12KeychainCore4ItemC1Ev
single module:__ZN8Security12KeychainCore4ItemC4Ev
single module:__ZN8Security12KeychainCore12KCCursorImpl4nextERNS0_4ItemE
single module:__ZN8Security10CssmClient12DbAttributesC1Ev
single module:__ZN8Security10CssmClient12DbAttributesC4Ev
single module:__ZN8Security10CssmClient8SSDbImpl11newDbCursorERK10cssm_queryRNS_9AllocatorE
single module:__ZN8Security10CssmClient14SSDbCursorImplC1ERKNS0_2DbERK10cssm_queryRNS_9AllocatorE
single module:__ZN8Security10CssmClient14SSDbCursorImplC4ERKNS0_2DbERK10cssm_queryRNS_9AllocatorE
single module:__ZN8Security10CssmClient14DbDbCursorImplC2ERKNS0_2DbERK10cssm_queryRNS_9AllocatorE
single module:__ZN8Security10CssmClient14DbDbCursorImplC4ERKNS0_2DbERK10cssm_queryRNS_9AllocatorE
single module:__ZN8Security10CssmClient12DbCursorImplC2ERKNS0_6ObjectERK10cssm_queryRNS_9AllocatorE
single module:__ZN8Security10CssmClient12DbCursorImplC4ERKNS0_6ObjectERK10cssm_queryRNS_9AllocatorE
single module:__ZN8Security13CssmAutoQueryC2ERK10cssm_queryRNS_9AllocatorE
single module:__ZN8Security13CssmAutoQueryC4ERK10cssm_queryRNS_9AllocatorE
single module:__ZN8Security10CssmClient14SSDbCursorImpl4nextEPNS0_12DbAttributesEPNS_17CssmDataContainerERNS0_14DbUniqueRecordE
single module:__ZN8Security10CssmClient14SSDbCursorImpl4nextEPNS0_12DbAttributesEPNS_17CssmDataContainerERNS0_14DbUniqueRecordEPK23cssm_access_credentials
single module:__ZN8Security10CssmClient8SSDbImpl17newDbUniqueRecordEv
single module:__ZN8Security10CssmClient20SSDbUniqueRecordImplC1ERKNS0_2DbE
single module:__ZN8Security10CssmClient20SSDbUniqueRecordImplC4ERKNS0_2DbE
single module:__ZN11SSDLSession18makeSSUniqueRecordER14SSUniqueRecord
single module:__ZN11SSDLSession18createUniqueRecordEm
single module:__ZN8Security12KeychainCore12KeychainImpl4itemEmRNS_10CssmClient14DbUniqueRecordE
single module:__ZN8Security12KeychainCore12KeychainImpl14makePrimaryKeyEmRNS_10CssmClient14DbUniqueRecordE
single module:__ZN8Security10CssmClient12DbAttributesC1ERKNS0_2DbEmRNS_9AllocatorE
single module:__ZN8Security10CssmClient12DbAttributesC4ERKNS0_2DbEmRNS_9AllocatorE
single module:__ZN8Security12KeychainCore12KeychainImpl26gatherPrimaryKeyAttributesERNS_10CssmClient12DbAttributesE
single module:__ZN8Security12KeychainCore12KeychainImpl18primaryKeyInfosForEm
single module:__ZN8Security12KeychainCore12KeychainImpl14keychainSchemaEv
single module:__ZN8Security12KeychainCore18KeychainSchemaImplC4ERKNS_10CssmClient2DbE
single module:__ZN8Security10CssmClient8SSDbImpl11newDbCursorEmRNS_9AllocatorE
single module:__ZN8Security10CssmClient14SSDbCursorImplC1ERKNS0_2DbEmRNS_9AllocatorE
single module:__ZN8Security10CssmClient14SSDbCursorImplC4ERKNS0_2DbEmRNS_9AllocatorE
single module:__ZN8Security10CssmClient14DbDbCursorImplC2ERKNS0_2DbEmRNS_9AllocatorE
single module:__ZN8Security10CssmClient20SSDbUniqueRecordImplD0Ev
single module:__ZN8Security10CssmClient20SSDbUniqueRecordImplD4Ev
single module:_CSSM_DL_DataGetNext
single module:__Z16cssm_DataGetNext17cssm_dl_db_handlemP29cssm_db_record_attribute_dataP9cssm_dataPP21cssm_db_unique_record
single module:__ZN11SSDLSession11DataGetNextEmmP29cssm_db_record_attribute_dataPN8Security8CssmDataERP21cssm_db_unique_record
single module:__ZN11SSDLSession16FreeUniqueRecordEmR21cssm_db_unique_record
single module:__ZN11SSDLSession18killSSUniqueRecordER21cssm_db_unique_record
single module:__ZN11SSDLSession17parseUniqueRecordERK21cssm_db_unique_record
single module:__ZN11SSDLSession16freeUniqueRecordER21cssm_db_unique_record
single module:__ZN8Security13CssmAutoQuery3addEmRK22cssm_db_attribute_infoRKNS_12CssmPolyDataE
single module:__ZN8Security19CssmDbAttributeData3setERK22cssm_db_attribute_infoRKNS_12CssmPolyDataERNS_9AllocatorE
single module:__ZN8Security29CssmAutoDbRecordAttributeDataD2Ev
single module:__ZN8Security10CssmClient14DbDbCursorImplD2Ev
single module:__ZNK8Security12KeychainCore18KeychainSchemaImpl18primaryKeyInfosForEm
single module:__ZN8Security10CssmClient20SSDbUniqueRecordImpl3getEPNS0_12DbAttributesEPNS_17CssmDataContainerE
single module:__ZN8Security10CssmClient20SSDbUniqueRecordImpl3getEPNS0_12DbAttributesEPNS_17CssmDataContainerEPK23cssm_access_credentials
single module:__ZN8Security10CssmClient18DbUniqueRecordImpl3getEPNS0_12DbAttributesEPNS_17CssmDataContainerE
single module:_CSSM_DL_DataGetFromUniqueRecordId
single module:__Z30cssm_DataGetFromUniqueRecordId17cssm_dl_db_handlePK21cssm_db_unique_recordP29cssm_db_record_attribute_dataP9cssm_data
single module:__ZN11SSDLSession25DataGetFromUniqueRecordIdEmRK21cssm_db_unique_recordP29cssm_db_record_attribute_dataPN8Security8CssmDataE
single module:__ZN11SSDLSession18findSSUniqueRecordERK21cssm_db_unique_record
single module:__ZN8Security15DatabaseSession25DataGetFromUniqueRecordIdEmRK21cssm_db_unique_recordP29cssm_db_record_attribute_dataPNS_8CssmDataE
single module:__ZN8Security13AppleDatabase25dataGetFromUniqueRecordIdERNS_9DbContextERK21cssm_db_unique_recordP29cssm_db_record_attribute_dataPNS_8CssmDataE
single module:__ZN8Security13AppleDatabase17parseUniqueRecordERK21cssm_db_unique_recordRm
single module:__ZN8Security10DbModifier9getRecordEmRKNS_8RecordIdEP29cssm_db_record_attribute_dataPNS_8CssmDataERNS_9AllocatorE
single module:__ZNK8Security5Table9getRecordERKNS_8RecordIdEP29cssm_db_record_attribute_dataPNS_8CssmDataERNS_9AllocatorE
single module:__ZN8Security9BlobValueC1ERKNS_11ReadSectionERm
single module:__ZN8Security9BlobValueD1Ev
single module:__ZN8Security12KeychainCore14PrimaryKeyImplC1ERKNS_10CssmClient12DbAttributesE
single module:__ZN8Security12KeychainCore14PrimaryKeyImplC4ERKNS_10CssmClient12DbAttributesE
single module:__ZN8Security12KeychainCore14PrimaryKeyImpl9putUInt32ERPhm
single module:__ZN8Security12KeychainCore12KeychainImpl11_lookupItemERKNS0_10PrimaryKeyE
single module:__ZN8Security12KeychainCore4ItemC1ERKNS0_8KeychainERKNS0_10PrimaryKeyERKNS_10CssmClient14DbUniqueRecordE
single module:__ZN8Security12KeychainCore4ItemC4ERKNS0_8KeychainERKNS0_10PrimaryKeyERKNS_10CssmClient14DbUniqueRecordE
single module:__ZNK8Security12KeychainCore14PrimaryKeyImpl10recordTypeEv
single module:__ZNK8Security12KeychainCore14PrimaryKeyImpl9getUInt32ERPhRm
single module:__ZN8Security12KeychainCore8ItemImplC4ERKNS0_8KeychainERKNS0_10PrimaryKeyERKNS_10CssmClient14DbUniqueRecordE
single module:__ZN8Security12KeychainCore12KeychainImpl7addItemERKNS0_10PrimaryKeyEPNS0_8ItemImplE
single module:_SecKeychainItemCopyContent
single module:__ZN8Security12KeychainCore4ItemC1EPNS0_8ItemImplE
single module:__ZN8Security12KeychainCore4ItemC4EPNS0_8ItemImplE
single module:__ZN8Security12KeychainCore8ItemImpl10getContentEPmP24SecKeychainAttributeListS2_PPv
single module:__ZNK8Security12KeychainCore8ItemImpl10recordTypeEv
single module:__ZN8Security12KeychainCore6Schema12itemClassForEm
single module:__ZN8Security12KeychainCore8ItemImpl14dbUniqueRecordEv
single module:__ZNK8Security12KeychainCore8ItemImpl12isPersistantEv
single module:__ZN8Security12KeychainCore8ItemImpl10getContentEPNS_10CssmClient12DbAttributesEPNS_17CssmDataContainerE
single module:_SecKeychainItemCopyKeychain
single module:__ZNK8Security12KeychainCore8ItemImpl8keychainEv
single module:_SecKeychainAttributeInfoForItemID
single module:__ZN8Security12KeychainCore12KeychainImpl25getAttributeInfoForItemIDEmPP24SecKeychainAttributeInfo
single module:__ZNK8Security12KeychainCore18KeychainSchemaImpl29getAttributeInfoForRecordTypeEmPP24SecKeychainAttributeInfo
single module:__ZNK8Security12KeychainCore18KeychainSchemaImpl18relationInfoMapForEm
single module:_SecKeychainItemCopyAttributesAndData
single module:__ZN8Security12KeychainCore8ItemImpl20getAttributesAndDataEP24SecKeychainAttributeInfoPmPP24SecKeychainAttributeListS4_PPv
single module:__ZN8Security13TimeDateValueC1ERKNS_11ReadSectionERm
single module:__ZN8Security13TimeDateValueC4ERKNS_11ReadSectionERm
single module:__ZN8Security13TimeDateValueD1Ev
single module:__ZN8Security13TimeDateValueD4Ev
single module:_SecKeychainItemFreeAttributesAndData
single module:__ZN8Security12KeychainCore8ItemImpl21freeAttributesAndDataEP24SecKeychainAttributeListPv
single module:_SecKeychainFreeAttributeInfo
single module:__ZN8Security12KeychainCore12KeychainImpl17freeAttributeInfoEP24SecKeychainAttributeInfo
single module:__ZN8Security12KeychainCore6Schema13attributeInfoEm
single module:_SecKeychainItemFreeContent
single module:__ZN8Security12KeychainCore8ItemImpl11freeContentEP24SecKeychainAttributeListPv
single module:__ZN8Security12KeychainCore11CertificateC1ERKNS0_8KeychainERKNS0_10PrimaryKeyERKNS_10CssmClient14DbUniqueRecordE
single module:__ZN8Security12KeychainCore11CertificateC4ERKNS0_8KeychainERKNS0_10PrimaryKeyERKNS_10CssmClient14DbUniqueRecordE
single module:__ZN8Security12KeychainCore8ItemImplC2ERKNS0_8KeychainERKNS0_10PrimaryKeyERKNS_10CssmClient14DbUniqueRecordE
single module:_SecCertificateGetData
single module:__ZN8Security12KeychainCore11Certificate4dataEv
single module:__ZN8Security12KeychainCore8ItemImpl7setDataEmPKv
single module:_SecCertificateGetCLHandle
single module:__ZN8Security12KeychainCore11Certificate8clHandleEv
single module:__ZN8Security12KeychainCore11Certificate4typeEv
single module:__ZN8Security12KeychainCore8ItemImpl12getAttributeER20SecKeychainAttributePm
single module:__ZN8Security12KeychainCore8ItemImpl16getAttributeFromEPNS_19CssmDbAttributeDataER20SecKeychainAttributePm
single module:__ZN8Security12KeychainCore11Certificate9clForTypeEm
single module:__ZN8Security10CssmClient6CLImplC1ERKNS_4GuidE
single module:__ZN8Security10CssmClient6CLImplC4ERKNS_4GuidE
single module:_CSSM_SPI_ModuleLoad__apple_x509_cl
single module:__ZN11AppleX509CLC1Ev
single module:__ZN11AppleX509CLC4Ev
single module:_CSSM_SPI_ModuleAttach__apple_x509_cl
single module:__ZN11AppleX509CL11makeSessionEmRK12cssm_versionmmmRK12cssm_upcalls
single module:__ZN18AppleX509CLSessionC1EmRN8Security10CssmPluginERK12cssm_versionmmmRK12cssm_upcalls
single module:__ZN18AppleX509CLSessionC4EmRN8Security10CssmPluginERK12cssm_versionmmmRK12cssm_upcalls
single module:__ZN8Security15CLPluginSession9constructEv
single module:_SecCertificateInferLabel
single module:__ZN8Security12KeychainCore11Certificate10inferLabelEbPPK10__CFString
single module:__ZN8Security12KeychainCore11Certificate15copyFieldValuesERK9cssm_data
single module:__ZN8Security12KeychainCore11Certificate10certHandleEv
single module:_CSSM_CL_CertCache
single module:__Z14cssm_CertCachemPK9cssm_dataPm
single module:__ZN18AppleX509CLSession9CertCacheERKN8Security8CssmDataERm
single module:__ZN11DecodedCertC1ER18AppleX509CLSessionRKN8Security8CssmDataE
single module:__ZN11DecodedCertC4ER18AppleX509CLSessionRKN8Security8CssmDataE
single module:__ZN11DecodedItemC2ER18AppleX509CLSession
single module:__ZN11DecodedItemC4ER18AppleX509CLSession
single module:__ZN11SecNssCoderC1Ej
single module:__ZN11SecNssCoderC4Ej
single module:_PORT_NewArena
single module:_PORT_ZAlloc
single module:_PR_Calloc
single module:_PL_InitArenaPool
single module:_PR_CeilingLog2
single module:__ZN17DecodedExtensionsC1ER11SecNssCoderRN8Security9AllocatorE
single module:__ZN17DecodedExtensionsC4ER11SecNssCoderRN8Security9AllocatorE
single module:__ZN11SecNssCoder6decodeEPKvmPK22SecAsn1Template_structPv
single module:_SEC_ASN1Decode
single module:_SEC_ASN1DecoderStart
single module:_PORT_ArenaZAlloc
single module:_PORT_ArenaAlloc
single module:_PL_ArenaAllocate
single module:_PR_Malloc
single module:_sec_asn1d_push_state
single module:_sec_asn1d_alloc
single module:_sec_asn1d_init_state_based_on_template
single module:_SEC_ASN1DecoderUpdate
single module:_sec_asn1d_parse_identifier
single module:_sec_asn1d_confirm_identifier
single module:_sec_asn1d_parse_length
single module:_sec_asn1d_parse_more_length
single module:_sec_asn1d_prepare_for_contents
single module:_PORT_ArenaMark
single module:_SEC_ASN1GetSubtemplate
single module:_sec_asn1d_parse_leaf
single module:_sec_asn1d_free_child
single module:_sec_asn1d_absorb_child
single module:_PORT_ArenaRelease
single module:_sec_asn1d_next_in_sequence
single module:_sec_asn1d_record_any_header
single module:_sec_asn1d_add_to_subitems
single module:_sec_asn1d_reuse_encoding
single module:__Z14NSS_ATVChooserPvhPKcS_
single module:_SecAsn1TaggedTemplateChooser
single module:_sec_asn1d_next_in_group
single module:_sec_asn1d_concat_group
single module:_NSS_TimeChooser
single module:_sec_asn1d_parse_bit_string
single module:_sec_asn1d_parse_more_bit_string
single module:_SEC_ASN1DecoderFinish
single module:_PORT_FreeArena
single module:_PL_FinishArenaPool
single module:_FreeArenaList
single module:_PR_Free
single module:__ZN17DecodedExtensions13decodeFromNssEPP17NSS_CertExtension
single module:__Z14clNssArraySizePPKv
single module:_clOidToNssInfo
single module:__Z17clCompareCssmDataPK9cssm_dataS1_
single module:__ZN11SecNssCoder6mallocEm
single module:__Z15clNssBoolToCssmRK9cssm_data
single module:__ZN17DecodedExtensions12addExtensionERK9cssm_databPvbPK22SecAsn1Template_structPS1_
single module:__ZN8Security13PluginSession7reallocEPvm
single module:__ZN10Attachment13upcallReallocEmPvm
single module:__ZN8Security28CssmMemoryFunctionsAllocator7reallocEPvm
single module:__ZN8Security28CssmAllocatorMemoryFunctions12relayReallocEPvmS1_
single module:__ZN12DecodedExtenC4ERK9cssm_databPvbPK22SecAsn1Template_structR11SecNssCoderPS1_
single module:__ZN11SecNssCoder13allocCopyItemEPKvmR9cssm_data
single module:__ZN11SecNssCoder9allocItemER9cssm_datam
single module:__ZN13CLCachedEntryC2Ev
single module:__ZN13CLCachedEntryC4Ev
single module:_CSSM_CL_CertGetFirstCachedFieldValue
single module:__Z33cssm_CertGetFirstCachedFieldValuemmPK9cssm_dataPmS2_PPS_
single module:__ZN18AppleX509CLSession28CertGetFirstCachedFieldValueEmRKN8Security8CssmDataERmRP9cssm_data
single module:__ZN18AppleX509CLSession16lookupCachedCertEm
single module:__ZN11DecodedCert16getCertFieldDataERKN8Security8CssmDataEjRmRNS0_13CssmOwnedDataE
single module:__Z11oidToFieldsRKN8Security8CssmDataE
single module:_getFieldSubjAltName
single module:__ZNK11DecodedItem14findDecodedExtERK9cssm_databmRm
single module:__ZNK17DecodedExtensions12getExtensionEj
single module:__Z24CL_nssGeneralNamesToCssmRK16NSS_GeneralNamesR15CE_GeneralNamesR11SecNssCoderRN8Security9AllocatorE
single module:__Z18NSS_genNameChooserPvhPKcS_
single module:__Z23CL_nssGeneralNameToCssmR14NSS_TaggedItemR14CE_GeneralNameR11SecNssCoderRN8Security9AllocatorE
single module:__Z15clAllocCopyDataRN8Security9AllocatorERK9cssm_dataRS2_
single module:__Z11clAllocDataRN8Security9AllocatorER9cssm_datam
single module:_getFieldExtenCommon
single module:__ZNK12DecodedExten13convertToCdsaEPvP19cssm_x509_extensionRN8Security9AllocatorE
single module:__ZN7CLQueryC1E11CLQueryTypeRKN8Security8CssmDataEjbm
single module:__ZN7CLQueryC4E11CLQueryTypeRKN8Security8CssmDataEjbm
single module:__ZN8Security12KeychainCore11Certificate19copyFirstFieldValueERK9cssm_data
single module:__Z16getField_SubjectR11DecodedItemjRmRN8Security13CssmOwnedDataE
single module:_getField_RDN_NSS
single module:__Z16CL_nssNameToCssmRK8NSS_NameR14cssm_x509_nameRN8Security9AllocatorE
single module:__Z15CL_nssRdnToCssmRK7NSS_RDNR13cssm_x509_rdnRN8Security9AllocatorER11SecNssCoder
single module:__ZN11SecNssCoderD1Ev
single module:__ZN11SecNssCoderD4Ev
single module:_CSSM_CL_CertAbortQuery
single module:__Z19cssm_CertAbortQuerymm
single module:__ZN18AppleX509CLSession14CertAbortQueryEm
single module:__ZN7CLQueryD1Ev
single module:__ZN7CLQueryD4Ev
single module:__ZN8Security12KeychainCore11Certificate17getEmailAddressesEPP9cssm_dataS3_RSt6vectorINS_8CssmDataESaIS6_EE
single module:_SecInferLabelFromX509Name
single module:__Z18findPrintableFieldRK14cssm_x509_namePK9cssm_data
single module:__ZN8Security12KeychainCore11Certificate17releaseFieldValueERK9cssm_dataPS2_
single module:_CSSM_CL_FreeFieldValue
single module:__Z19cssm_FreeFieldValuemPK9cssm_dataPS_
single module:__ZN18AppleX509CLSession14FreeFieldValueERKN8Security8CssmDataERS1_
single module:__ZN11DecodedCert17freeCertFieldDataERKN8Security8CssmDataERNS0_13CssmOwnedDataE
single module:_freeField_RDN
single module:__Z15CL_freeX509NameP14cssm_x509_nameRN8Security9AllocatorE
single module:__Z14CL_freeX509RdnP13cssm_x509_rdnRN8Security9AllocatorE
single module:__ZN8Security14CssmRemoteData5resetEv
single module:__ZN8Security14CssmRemoteData7releaseEv
single module:__ZN8Security12KeychainCore11Certificate18releaseFieldValuesERK9cssm_dataPPS2_
single module:_freeFieldSubjIssuerAltName
single module:_verifySetFreeExtension
single module:__Z23CL_freeCssmGeneralNamesP15CE_GeneralNamesRN8Security9AllocatorE
single module:__Z22CL_freeCssmGeneralNameR14CE_GeneralNameRN8Security9AllocatorE
single module:_freeFieldExtenCommon
single module:_CSSM_CL_CertGetFirstFieldValue
single module:__Z27cssm_CertGetFirstFieldValuemPK9cssm_dataS1_PmS2_PPS_
single module:__ZN18AppleX509CLSession22CertGetFirstFieldValueERKN8Security8CssmDataES3_RmRP9cssm_data
single module:__Z17getField_NotAfterR11DecodedItemjRmRN8Security13CssmOwnedDataE
single module:_getField_TimeNSS
single module:_tbsGetCheck
single module:__Z16CL_nssTimeToCssmRK14NSS_TaggedItemR14cssm_x509_timeRN8Security9AllocatorE
single module:_freeField_Time
single module:__Z15CL_freeCssmTimeP14cssm_x509_timeRN8Security9AllocatorE
single module:__Z18getFieldIssuerNormR11DecodedItemjRmRN8Security13CssmOwnedDataE
single module:_getField_normRDN_NSS
single module:__Z23CL_normalizeX509NameNSSR8NSS_NameR11SecNssCoder
single module:__Z18CL_normalizeStringPcRi
single module:__Z21SecNssEncodeItemOdataPKvPK22SecAsn1Template_structRN8Security13CssmOwnedDataE
single module:__Z16SecNssEncodeItemPKvPK22SecAsn1Template_structRN8Security9AllocatorER9cssm_data
single module:_SEC_ASN1Encode
single module:_SEC_ASN1EncoderStart
single module:_sec_asn1e_push_state
single module:_sec_asn1e_init_state_based_on_template
single module:_SEC_ASN1EncoderUpdate
single module:_sec_asn1e_write_header
single module:_sec_asn1e_contents_length
single module:_SEC_ASN1LengthLength
single module:_sec_asn1e_encode_item_count
single module:_sec_asn1e_write_length_bytes
single module:_SEC_ASN1EncodeLength
single module:_sec_asn1e_write_contents
single module:_sec_asn1e_next_in_sequence
single module:_sec_asn1e_next_in_group
single module:_sec_asn1e_encode_item_store
single module:__Z19getFieldSubjectNormR11DecodedItemjRmRN8Security13CssmOwnedDataE
single module:_CSSM_CL_CertVerify
single module:__Z15cssm_CertVerifymyPK9cssm_dataS1_PK10cssm_fieldm
single module:__ZN18AppleX509CLSession10CertVerifyEyRKN8Security8CssmDataEPS2_PK10cssm_fieldm
single module:__Z26CL_certCrlDecodeComponentsRKN8Security8CssmDataERNS_13CssmOwnedDataES4_S4_
single module:__ZN18AppleX509CLSession14CertGetKeyInfoERKN8Security8CssmDataERP8cssm_key
single module:__ZNK11DecodedCert14extractCSSMKeyERN8Security9AllocatorE
single module:__Z20CL_extractCSSMKeyNSSRK33cssm_x509_subject_public_key_infoRN8Security9AllocatorEPK11DecodedCert
single module:_cssmOidToAlg
single module:_compareCssmData
single module:__ZNK11DecodedCert13inferKeyUsageEv
single module:__Z21clBitStringToKeyUsageRK9cssm_data
single module:_getGlobalCspHand
single module:__ZN11CSPAttacher10getCspHandEb
single module:_CSSM_SPI_ModuleLoad__apple_csp
single module:__ZN14AppleCSPPluginC1Ev
single module:__ZN14AppleCSPPluginC4Ev
single module:__ZN15CryptKitFactoryC1EPN8Security9AllocatorES2_
single module:__ZN15CryptKitFactoryC4EPN8Security9AllocatorES2_
single module:_initCryptKit
single module:_fallocRegister
single module:__ZN13AscAlgFactoryC1EPN8Security9AllocatorES2_
single module:__ZN13AscAlgFactoryC4EPN8Security9AllocatorES2_
single module:_comMallocRegister
single module:__ZN15RSA_DSA_FactoryC1EPN8Security9AllocatorES2_
single module:__ZN15RSA_DSA_FactoryC4EPN8Security9AllocatorES2_
single module:_CRYPTO_set_mem_functions
single module:_CRYPTO_set_locked_mem_functions
single module:_ERR_load_RSA_strings
single module:_ERR_load_BN_strings
single module:_ERR_load_DSA_strings
single module:__ZN10DH_FactoryC1EPN8Security9AllocatorES2_
single module:__ZN10DH_FactoryC4EPN8Security9AllocatorES2_
single module:_ERR_load_DH_strings
single module:_CSSM_SPI_ModuleAttach__apple_csp
single module:__ZN14AppleCSPPlugin11makeSessionEmRK12cssm_versionmmmRK12cssm_upcalls
single module:__ZN15AppleCSPSessionC1EmR14AppleCSPPluginRK12cssm_versionmmmRK12cssm_upcalls
single module:__ZN15AppleCSPSessionC4EmR14AppleCSPPluginRK12cssm_versionmmmRK12cssm_upcalls
single module:__ZN8Security16CSPPluginSession9constructEv
single module:_CSSM_QueryKeySizeInBits
single module:__Z23cssm_QueryKeySizeInBitsmyPK12cssm_contextPK8cssm_keyP13cssm_key_size
single module:__ZN8Security20CSPFullPluginSession18QueryKeySizeInBitsEyPKNS_7ContextEPKNS_7CssmKeyER13cssm_key_size
single module:__ZN15AppleCSPSession10getKeySizeERKN8Security7CssmKeyER13cssm_key_size
single module:__ZN15AppleCSPSession12infoProviderERKN8Security7CssmKeyE
single module:__ZN18RSAKeyInfoProvider8providerERKN8Security7CssmKeyER15AppleCSPSession
single module:__ZN18RSAKeyInfoProviderC4ERKN8Security7CssmKeyER15AppleCSPSession
single module:__ZN18RSAKeyInfoProvider18QueryKeySizeInBitsER13cssm_key_size
single module:_rawCssmKeyToRsa
single module:_RSA_new
single module:_RSA_new_method
single module:_RSA_PKCS1_SSLeay
single module:_CRYPTO_malloc
single module:__Z8osMallocm
single module:_RSA_eay_init
single module:_CRYPTO_new_ex_data
single module:_RSAPublicKeyDecode
single module:__Z23RSAPublicKeyDecodePKCS1R11SecNssCoderP6rsa_stPvm
single module:_cssmDataToBn
single module:_BN_new
single module:_BN_bin2bn
single module:_bn_expand2
single module:_RSA_size
single module:_BN_num_bits
single module:_BN_num_bits_word
single module:_RSA_free
single module:_CRYPTO_add_lock
single module:_CRYPTO_free_ex_data
single module:_RSA_eay_finish
single module:_BN_clear_free
single module:_CRYPTO_free
single module:__Z6osFreePv
single module:__ZN11DecodedCertD1Ev
single module:__ZN11DecodedCertD4Ev
single module:__ZN11DecodedItemD2Ev
single module:__ZN11DecodedItemD4Ev
single module:__ZN17DecodedExtensionsD1Ev
single module:__ZN17DecodedExtensionsD4Ev
single module:__ZN12DecodedExtenD4Ev
single module:__Z11CL_oidToAlgRK9cssm_data
single module:_CSSM_CSP_CreateSignatureContext
single module:__ZN8Security7Context7Builder4makeEv
single module:__Z9CL_mallocmPv
single module:__ZN13HandleContext5MakerclEmm
single module:__ZN8Security7ContextC2Emm
single module:__ZN8Security7ContextC4Emm
single module:__ZN8Security7Context7Builder4doneERP22cssm_context_attributeRm
single module:__ZN13HandleContext14validateChangeEm
single module:__Z16cssm_EventNotifymmyPK12cssm_context
single module:__ZN8Security16CSPPluginSession11EventNotifyEmyRKNS_7ContextE
single module:__ZN15AppleCSPSession13contextCreateEyRKN8Security7ContextE
single module:__Z7CL_freePvS_
single module:__ZN18AppleX509CLSession10verifyDataEyRKN8Security8CssmDataES3_
single module:_CSSM_VerifyData
single module:__ZN13HandleContext7tryLockEv
single module:__ZN8Security13CountingMutex8tryEnterEv
single module:__Z15cssm_VerifyDatamyPK12cssm_contextPK9cssm_datammS4_
single module:__ZN8Security20CSPFullPluginSession10VerifyDataEyRKNS_7ContextEPKNS_8CssmDataEmmRS5_
single module:__ZN8Security20CSPFullPluginSession14VerifyDataInitEyRKNS_7ContextE
single module:__ZN8Security20CSPFullPluginSession4initEymRKNS_7ContextEb
single module:__ZN8Security20CSPFullPluginSession14checkOperationEmm
single module:__ZN15AppleCSPSession12setupContextERPN8Security20CSPFullPluginSession10CSPContextERKNS0_7ContextEb
single module:__ZN15RSA_DSA_Factory5setupER15AppleCSPSessionRPN8Security20CSPFullPluginSession10CSPContextERKNS2_7ContextE
single module:__ZN16SignatureContext4initERKN8Security7ContextEb
single module:__ZN10SHA1Object10digestInitEv
single module:__ZN9RSASigner10signerInitERKN8Security7ContextEb
single module:__ZN9RSASigner14keyFromContextERKN8Security7ContextE
single module:_contextToRsaKey
single module:__ZN8Security7Context4findEmPK22cssm_context_attributej
single module:_cspValidateIntendedKeyUsage
single module:_cspValidateKeyUsageBits
single module:_cspVerifyKeyTimes
single module:__Z17cspGetUniformDateRK9cssm_date
single module:_cssmKeyToRsa
single module:_RSA_blinding_off
single module:__ZN8Security20CSPFullPluginSession16VerifyDataUpdateEyPKNS_8CssmDataEm
single module:__ZN8Security20CSPFullPluginSession16getStagedContextEymb
single module:__ZN16SignatureContext6updateERKN8Security8CssmDataE
single module:__ZN10SHA1Object12digestUpdateEPKvm
single module:__ZN8Security20CSPFullPluginSession15VerifyDataFinalEyRKNS_8CssmDataE
single module:__ZN16SignatureContext5finalERKN8Security8CssmDataE
single module:__ZNK10SHA1Object17digestSizeInBytesEv
single module:__ZN10SHA1Object11digestFinalEPv
single module:__ZN9RSASigner6verifyEPKvmS1_m
single module:_generateDigestInfo
single module:_RSA_public_decrypt
single module:_RSA_eay_public_decrypt
single module:_BN_init
single module:_BN_CTX_new
single module:_BN_MONT_CTX_new
single module:_BN_MONT_CTX_set
single module:_BN_copy
single module:_BN_set_word
single module:_BN_set_bit
single module:_BN_mod_inverse
single module:_BN_CTX_start
single module:_BN_CTX_get
single module:_BN_div
single module:_BN_ucmp
single module:_BN_lshift
single module:_bn_div_words
single module:_bn_mul_words
single module:_BN_sub
single module:_BN_usub
single module:_BN_rshift
single module:_BN_CTX_end
single module:_BN_mul
single module:_BN_add
single module:_BN_uadd
single module:_bn_add_words
single module:_bn_mul_normal
single module:_BN_mod
single module:_BN_sub_word
single module:_BN_free
single module:_BN_mod_exp_mont
single module:_BN_mod_mul_montgomery
single module:_bn_mul_recursive
single module:_bn_cmp_words
single module:_bn_sub_words
single module:_bn_mul_comba8
single module:_BN_from_montgomery
single module:_bn_mul_add_words
single module:_BN_value_one
single module:_BN_is_bit_set
single module:_BN_sqr
single module:_bn_sqr_recursive
single module:_bn_sqr_comba8
single module:_BN_bn2bin
single module:_RSA_padding_check_PKCS1_type_1
single module:_BN_CTX_free
single module:__Z14CL_freeCSSMKeyP8cssm_keyRN8Security9AllocatorEb
single module:_CSSM_DeleteContext
single module:__ZN8Security16CSPPluginSession13contextDeleteEyRKNS_7ContextEPNS0_13PluginContextE
single module:__ZN16SignatureContextD0Ev
single module:__ZN16SignatureContextD4Ev
single module:__ZN9RSASignerD0Ev
single module:__ZN9RSASignerD4Ev
single module:_BN_MONT_CTX_free
single module:__ZN15AppleCSPContextD2Ev
single module:__ZN15AppleCSPContextD4Ev
single module:__ZN8Security16CSPPluginSession13PluginContextD2Ev
single module:__ZN8Security16CSPPluginSession13PluginContextD4Ev
single module:__ZN13HandleContextD1Ev
single module:__ZN13HandleContextD4Ev
single module:__ZN8Security7CFClass12finalizeTypeEPKv
single module:__ZN8Security12KeychainCore12KCCursorImplD1Ev
single module:__ZN8Security12KeychainCore12KCCursorImplD4Ev
single module:__ZN8Security11SecCFObjectD2Ev
single module:__ZN8Security11SecCFObjectD4Ev
single module:__ZN8Security12KeychainCore8ItemImpl16useSecureStorageERKNS_10CssmClient2DbE
single module:__ZNK8Security10CssmClient9CSPDLImpl14subserviceMaskEv
single module:__ZN8Security10CssmClient11SSGroupImplC4ERKNS0_4SSDbERK9cssm_data
single module:__ZN8Security10CssmClient7KeyImplC2ERKNS0_3CSPE
single module:__ZN8Security10CssmClient7KeyImplC4ERKNS0_3CSPE
single module:__ZN8Security9BlobValueC1ERK9cssm_data
single module:__ZNK8Security9BlobValue8evaluateERKS0_m
single module:__ZN8Security9BlobValueD0Ev
single module:__ZN5SSKeyC1ER11SSDLSessionRN8Security7CssmKeyER10SSDatabaseRK14SSUniqueRecordmRNS2_8CssmDataE
single module:__ZN5SSKeyC4ER11SSDLSessionRN8Security7CssmKeyER10SSDatabaseRK14SSUniqueRecordmRNS2_8CssmDataE
single module:__ZN8Security13ReferencedKeyC2ERNS_7KeyPoolE
single module:__ZN8Security13ReferencedKeyC4ERNS_7KeyPoolE
single module:__ZN8Security7KeyPool3addERNS_13ReferencedKeyE
single module:__ZN8Security13ReferencedKey12keyReferenceEv
single module:__ZNK18SSUniqueRecordImpl8databaseEv
single module:__ZNK8Security14CssmDLPolyDatacv9cssm_dateEv
single module:__ZN8Security13ReferencedKey16makeReferenceKeyERNS_9AllocatorEmR8cssm_key
single module:__ZN8Security10CssmClient7KeyImpl8activateEv
single module:__ZN11SSDLSession14DataAbortQueryEmm
single module:__ZN8Security10CssmClient11SSGroupImpl14decodeDataBlobERK9cssm_dataPK23cssm_access_credentialsRNS_9AllocatorERS2_
single module:__ZN8Security10CssmClient5CryptC2ERKNS0_3CSPEm
single module:__ZN8Security10CssmClient5CryptC4ERKNS0_3CSPEm
single module:__ZN8Security10CssmClient7ContextC2ERKNS0_3CSPEm
single module:__ZN8Security10CssmClient7ContextC4ERKNS0_3CSPEm
single module:__ZN8Security10CssmClient5Crypt3keyERKNS0_3KeyE
single module:__ZN8Security10CssmClient7Context4credEPK23cssm_access_credentials
single module:__ZN8Security10CssmClient7Decrypt7decryptEPKNS_8CssmDataEmPS2_m
single module:__ZN8Security10CssmClient7Decrypt4initEv
single module:__ZN8Security10CssmClient5Crypt8activateEv
single module:__ZNK10__cxxabiv117__class_type_info12__do_dyncastEiNS0_10__sub_kindEPKS0_PKvS3_S5_RNS0_16__dyncast_resultE
single module:__ZN12SSCSPSessionC1EmR11CSPDLPluginRK12cssm_versionmmmRK12cssm_upcallsR14SSCSPDLSessionRN8Security10CssmClient3CSPE
single module:__ZN12SSCSPSessionC4EmR11CSPDLPluginRK12cssm_versionmmmRK12cssm_upcallsR14SSCSPDLSessionRN8Security10CssmClient3CSPE
single module:_CSSM_CSP_CreateSymmetricContext
single module:__ZN12SSCSPSession13contextCreateEyRKN8Security7ContextE
single module:_CSSM_DecryptDataInit
single module:__Z20cssm_DecryptDataInitmyPK12cssm_contexty
single module:__ZN8Security20CSPFullPluginSession15DecryptDataInitEyRKNS_7ContextEy
single module:__ZN12SSCSPSession12setupContextERPN8Security20CSPFullPluginSession10CSPContextERKNS0_7ContextEb
single module:__ZN9SSFactory5setupER12SSCSPSessionRPN8Security20CSPFullPluginSession10CSPContextERKNS2_7ContextEb
single module:__ZN14SSCryptContextC1ER12SSCSPSession
single module:__ZN14SSCryptContextC4ER12SSCSPSession
single module:__ZN9SSContextC4ER12SSCSPSession
single module:__ZN14SSCryptContext4initERKN8Security7ContextEb
single module:__ZN9SSContext11clearOutBufEv
single module:__ZN12SSCSPSession9lookupKeyERKN8Security7CssmKeyE
single module:__ZN14SSCSPDLSession9lookupKeyERKN8Security7CssmKeyE
single module:__ZNK8Security7KeyPool7findKeyERK8cssm_key
single module:__ZN8Security13ReferencedKey12keyReferenceERK8cssm_key
single module:__ZNK8Security7KeyPool16findKeyReferenceEm
single module:__ZN5SSKey9keyHandleEv
single module:__ZN5SSKey13clientSessionEv
single module:__ZN8Security14SecurityServer13ClientSession9decodeKeyEmRKNS_8CssmDataERNS_7CssmKey6HeaderE
single module:_ucsp_client_decodeKey
single module:__Z31__MIG_check__Reply__decodeKey_tP20__Reply__decodeKey_t
single module:_CSSM_DecryptDataUpdate
single module:__Z22cssm_DecryptDataUpdatemyPK9cssm_datamPS_mPm
single module:__ZN8Security20CSPFullPluginSession17DecryptDataUpdateEyPKNS_8CssmDataEmPS1_mRm
single module:__ZN8Security20CSPFullPluginSession6WriterC1EPNS_8CssmDataEmS3_
single module:__ZN8Security20CSPFullPluginSession6WriterC4EPNS_8CssmDataEmS3_
single module:__ZN14SSCryptContext10outputSizeEbm
single module:__ZN8Security20CSPFullPluginSession6Writer8allocateEmRNS_9AllocatorE
single module:__ZN8Security20CSPFullPluginSession10CSPContext6updateEPKNS_8CssmDataEmRNS0_6WriterE
single module:__ZN8Security20CSPFullPluginSession6Writer9nextBlockERPvRm
single module:__ZN14SSCryptContext9inputSizeEm
single module:__ZN14SSCryptContext6updateEPvRmS0_S1_
single module:__ZN8Security20CSPFullPluginSession6Writer3useEm
single module:__ZN8Security20CSPFullPluginSession6Writer5closeEv
single module:__ZN8Security10CssmClient7Decrypt5finalERNS_8CssmDataE
single module:_CSSM_DecryptDataFinal
single module:__Z21cssm_DecryptDataFinalmyP9cssm_data
single module:__ZN8Security20CSPFullPluginSession16DecryptDataFinalEyRNS_8CssmDataE
single module:__ZN8Security20CSPFullPluginSession10CSPContext5finalERNS_8CssmDataERNS_9AllocatorE
single module:__ZN8Security14SecurityServer13ClientSession7decryptERKNS_7ContextEmRKNS_8CssmDataERS5_RNS_9AllocatorE
single module:__ZN8Security11SendContextC1ERKNS_7ContextE
single module:__ZN8Security11SendContextC4ERKNS_7ContextE
single module:_ucsp_client_decrypt
single module:__Z29__MIG_check__Reply__decrypt_tP18__Reply__decrypt_t
single module:__ZN8Security10DataOutputD1Ev
single module:__ZN8Security10DataOutputD4Ev
single module:__ZN8Security12MachPlusPlus10deallocateEjm
single module:__ZN8Security20CSPFullPluginSession10makeBufferEmRNS_9AllocatorE
single module:__ZN14SSCryptContext5finalERN8Security8CssmDataE
single module:__ZN9SSContext10copyOutBufERN8Security8CssmDataE
single module:__ZN8Security10CssmClient7ContextD2Ev
single module:__ZN8Security10CssmClient7ContextD4Ev
single module:__ZN8Security10CssmClient7Context10deactivateEv
single module:__ZN14SSCryptContextD0Ev
single module:__ZN14SSCryptContextD4Ev
single module:__ZN8Security10CssmClient7KeyImplD2Ev
single module:__ZN8Security10CssmClient7KeyImplD4Ev
single module:__ZN8Security10CssmClient7KeyImpl10deactivateEv
single module:_CSSM_FreeKey
single module:__Z12cssm_FreeKeymPK23cssm_access_credentialsP8cssm_keyl
single module:__ZN12SSCSPSession7FreeKeyEPKN8Security17AccessCredentialsERNS0_7CssmKeyEl
single module:__ZN5SSKey4freeEPKN8Security17AccessCredentialsERNS0_7CssmKeyEl
single module:__ZN8Security13ReferencedKey16freeReferenceKeyERNS_9AllocatorER8cssm_key
single module:__ZN8Security14SecurityServer13ClientSession10releaseKeyEm
single module:_ucsp_client_releaseKey
single module:__Z32__MIG_check__Reply__releaseKey_tP21__Reply__releaseKey_t
single module:__ZN5SSKeyD0Ev
single module:__ZN5SSKeyD4Ev
single module:__ZN8Security13ReferencedKeyD2Ev
single module:__ZN8Security13ReferencedKeyD4Ev
single module:__ZN8Security7KeyPool5eraseEm
single module:__ZN8Security10CssmClient9AclBearerD2Ev
single module:__ZN8Security10CssmClient9AclBearerD4Ev
single module:__ZN8Security12KeychainCore15KCEventNotifier17PostKeychainEventEmRKNS0_8KeychainERKNS0_4ItemE
single module:__ZN8Security10CssmClient6DbImpl14dlDbIdentifierEv
single module:__ZNK8Security10CssmClient14AttachmentImpl13subserviceUidEv
single module:__ZNK8Security12KeychainCore8ItemImpl10primaryKeyEv
single module:__ZN8Security12KeychainCore15KCEventNotifier17PostKeychainEventEmRKNS_14DLDbIdentifierERKNS0_10PrimaryKeyE
single module:__ZN8Security19NameValueDictionaryC1Ev
single module:__ZN8Security19NameValueDictionaryC4Ev
single module:__ZN8Security13NameValuePairC1EmRKNS_8CssmDataE
single module:__ZN8Security13NameValuePairC4EmRKNS_8CssmDataE
single module:__ZN8Security13NameValuePair9CloneDataERKNS_8CssmDataE
single module:__ZN8Security19NameValueDictionary6InsertEPNS_13NameValuePairE
single module:__ZN8Security19NameValueDictionary41MakeNameValueDictionaryFromDLDbIdentifierERKNS_14DLDbIdentifierERS0_
single module:__ZN8Security19NameValueDictionary6ExportERNS_8CssmDataE
single module:__ZNK8Security19NameValueDictionary13CountElementsEv
single module:__ZN8Security19NameValueDictionary10GetElementEi
single module:__ZNK8Security13NameValuePair6ExportERNS_8CssmDataE
single module:__ZN8Security14SecurityServer13ClientSession16postNotificationEmmRKNS_8CssmDataE
single module:_ucsp_client_postNotification
single module:__ZN8Security14SecurityServer13ClientSessionD1Ev
single module:__ZN8Security14SecurityServer13ClientSessionD4Ev
single module:__ZN8Security19NameValueDictionaryD1Ev
single module:__ZN8Security19NameValueDictionaryD4Ev
single module:__ZN8Security13NameValuePairD4Ev
single module:__ZN8Security12MachPlusPlus10CFAutoPort10cfCallbackEP12__CFMachPortPvlS4_
single module:__ZN8Security12MachPlusPlus7MessageC1EPvm
single module:__ZN8Security12MachPlusPlus7MessageC4EPvm
single module:__ZN8Security12MachPlusPlus7Message9setBufferEPvm
single module:__ZN8Security12MachPlusPlus7Message7releaseEv
single module:__ZN8Security14SecurityServer13EventListener7receiveERKNS_12MachPlusPlus7MessageE
single module:__ZN8Security14SecurityServer13ClientSession20dispatchNotificationEPK17mach_msg_header_tPNS1_20NotificationConsumerE
single module:__ZN8Security14SecurityServer13ClientSession20dispatchNotificationEPK17mach_msg_header_tPFlmmPKvmPvES7_
single module:__ZN8Security14SecurityServer13ClientSession16consumerDispatchEmmPKvmPv
single module:__ZN8Security8Observer7consumeEmmRKNS_8CssmDataE
single module:__ZN8Security19NameValueDictionaryC1ERKNS_8CssmDataE
single module:__ZN8Security19NameValueDictionaryC4ERKNS_8CssmDataE
single module:__ZN8Security13NameValuePairC4ERKNS_8CssmDataE
single module:__ZN8Security12KeychainCore12CCallbackMgr5EventEmmRNS_19NameValueDictionaryE
single module:__ZNK8Security19NameValueDictionary10FindByNameEm
single module:__ZNK8Security19NameValueDictionary18FindPositionByNameEm
single module:__ZN8Security19NameValueDictionary41MakeDLDbIdentifierFromNameValueDictionaryERKS0_
single module:__ZN8Security12KeychainCore12CCallbackMgr12AlertClientsERKSt4listINS0_12CallbackInfoESaIS3_EEmiRKNS0_8KeychainERKNS0_4ItemE
single module:__ZN8Security12MachPlusPlus7MessageD1Ev
single module:__ZN8Security12MachPlusPlus7MessageD4Ev
single module:__ZN8Security12KeychainCore14PrimaryKeyImplC1ERK9cssm_data
single module:__ZN8Security12KeychainCore14PrimaryKeyImplC4ERK9cssm_data
single module:__ZN8Security12KeychainCore12KeychainImpl4itemERKNS0_10PrimaryKeyE
single module:_AuthorizationCopyRights
single module:__ZN8Security14SecurityServer13ClientSession14authCopyRightsERKNS0_17AuthorizationBlobEPK20AuthorizationItemSetS7_mPPS5_
single module:_ucsp_client_authorizationCopyRights
single module:__Z45__MIG_check__Reply__authorizationCopyRights_tP34__Reply__authorizationCopyRights_t
single module:_AuthorizationCreateFromExternalForm
single module:__ZN8Security14SecurityServer13ClientSession15authInternalizeERK25AuthorizationExternalFormRNS0_17AuthorizationBlobE
single module:_ucsp_client_authorizationInternalize
single module:__Z46__MIG_check__Reply__authorizationInternalize_tP35__Reply__authorizationInternalize_t
