__ZN13IONetworkData10gMetaClassE
__ZN13IONetworkData10superClassE
__ZN13IONetworkData10writeBytesEPKvjj
__ZN13IONetworkData11clearBufferEv
__ZN13IONetworkData12withNoBufferEPKcjjPvPFiS2_S2_PS_jS2_PjjES2_
__ZN13IONetworkData14setAccessTypesEj
__ZN13IONetworkData18withExternalBufferEPKcjPvjS2_PFiS2_S2_PS_jS2_PjjES2_
__ZN13IONetworkData18withInternalBufferEPKcjjPvPFiS2_S2_PS_jS2_PjjES2_
__ZN13IONetworkData21setNotificationTargetEPvPFiS0_S0_PS_jS0_PjjES0_
__ZN13IONetworkData23_RESERVEDIONetworkData0Ev
__ZN13IONetworkData23_RESERVEDIONetworkData1Ev
__ZN13IONetworkData23_RESERVEDIONetworkData2Ev
__ZN13IONetworkData23_RESERVEDIONetworkData3Ev
__ZN13IONetworkData4freeEv
__ZN13IONetworkData4initEPKcjjPvjS2_PFiS2_S2_PS_jS2_PjjES2_
__ZN13IONetworkData4readEPvPjj
__ZN13IONetworkData5resetEv
__ZN13IONetworkData5writeEPvjj
__ZN13IONetworkData9MetaClassC1Ev
__ZN13IONetworkData9MetaClassC2Ev
__ZN13IONetworkData9metaClassE
__ZN13IONetworkDataC1EPK11OSMetaClass
__ZN13IONetworkDataC1Ev
__ZN13IONetworkDataC2EPK11OSMetaClass
__ZN13IONetworkDataC2Ev
__ZN13IONetworkDataD0Ev
__ZN13IONetworkDataD1Ev
__ZN13IONetworkDataD2Ev
__ZN13IONetworkDatadlEPvm
__ZN13IONetworkDatanwEm
__ZN13IOOutputQueue10gMetaClassE
__ZN13IOOutputQueue10superClassE
__ZN13IOOutputQueue13serviceThreadEPv
__ZN13IOOutputQueue15getMbufPriorityEP6__mbuf
__ZN13IOOutputQueue16runServiceThreadEPvS0_
__ZN13IOOutputQueue19cancelServiceThreadEv
__ZN13IOOutputQueue21scheduleServiceThreadEPv
__ZN13IOOutputQueue23_RESERVEDIOOutputQueue1Ev
__ZN13IOOutputQueue23_RESERVEDIOOutputQueue2Ev
__ZN13IOOutputQueue23_RESERVEDIOOutputQueue3Ev
__ZN13IOOutputQueue23_RESERVEDIOOutputQueue4Ev
__ZN13IOOutputQueue23_RESERVEDIOOutputQueue5Ev
__ZN13IOOutputQueue23_RESERVEDIOOutputQueue6Ev
__ZN13IOOutputQueue23_RESERVEDIOOutputQueue7Ev
__ZN13IOOutputQueue23_RESERVEDIOOutputQueue8Ev
__ZN13IOOutputQueue23_RESERVEDIOOutputQueue9Ev
__ZN13IOOutputQueue24_RESERVEDIOOutputQueue10Ev
__ZN13IOOutputQueue24_RESERVEDIOOutputQueue11Ev
__ZN13IOOutputQueue24_RESERVEDIOOutputQueue12Ev
__ZN13IOOutputQueue24_RESERVEDIOOutputQueue13Ev
__ZN13IOOutputQueue24_RESERVEDIOOutputQueue14Ev
__ZN13IOOutputQueue24_RESERVEDIOOutputQueue15Ev
__ZN13IOOutputQueue4freeEv
__ZN13IOOutputQueue4initEv
__ZN13IOOutputQueue9MetaClassC1Ev
__ZN13IOOutputQueue9MetaClassC2Ev
__ZN13IOOutputQueue9metaClassE
__ZN13IOOutputQueueC2EPK11OSMetaClass
__ZN13IOOutputQueueD0Ev
__ZN13IOOutputQueueD1Ev
__ZN13IOOutputQueueD2Ev
__ZN13IOOutputQueuedlEPvm
__ZN13IOOutputQueuenwEm
__ZN13IOPacketQueue10dequeueAllEv
__ZN13IOPacketQueue10gMetaClassE
__ZN13IOPacketQueue10superClassE
__ZN13IOPacketQueue11lockDequeueEv
__ZN13IOPacketQueue11lockEnqueueEP6__mbuf
__ZN13IOPacketQueue11lockPrependEP6__mbuf
__ZN13IOPacketQueue11setCapacityEj
__ZN13IOPacketQueue12withCapacityEj
__ZN13IOPacketQueue14lockDequeueAllEv
__ZN13IOPacketQueue15enqueueWithDropEP6__mbuf
__ZN13IOPacketQueue16initWithCapacityEj
__ZN13IOPacketQueue19lockEnqueueWithDropEP6__mbuf
__ZN13IOPacketQueue23_RESERVEDIOPacketQueue0Ev
__ZN13IOPacketQueue23_RESERVEDIOPacketQueue1Ev
__ZN13IOPacketQueue23_RESERVEDIOPacketQueue2Ev
__ZN13IOPacketQueue23_RESERVEDIOPacketQueue3Ev
__ZN13IOPacketQueue23_RESERVEDIOPacketQueue4Ev
__ZN13IOPacketQueue23_RESERVEDIOPacketQueue5Ev
__ZN13IOPacketQueue23_RESERVEDIOPacketQueue6Ev
__ZN13IOPacketQueue23_RESERVEDIOPacketQueue7Ev
__ZN13IOPacketQueue23_RESERVEDIOPacketQueue8Ev
__ZN13IOPacketQueue23_RESERVEDIOPacketQueue9Ev
__ZN13IOPacketQueue24_RESERVEDIOPacketQueue10Ev
__ZN13IOPacketQueue24_RESERVEDIOPacketQueue11Ev
__ZN13IOPacketQueue24_RESERVEDIOPacketQueue12Ev
__ZN13IOPacketQueue24_RESERVEDIOPacketQueue13Ev
__ZN13IOPacketQueue24_RESERVEDIOPacketQueue14Ev
__ZN13IOPacketQueue24_RESERVEDIOPacketQueue15Ev
__ZN13IOPacketQueue4freeEv
__ZN13IOPacketQueue5flushEv
__ZN13IOPacketQueue7dequeueEv
__ZN13IOPacketQueue7enqueueEP6__mbuf
__ZN13IOPacketQueue7enqueueEPS_
__ZN13IOPacketQueue7prependEP6__mbuf
__ZN13IOPacketQueue7prependEPS_
__ZN13IOPacketQueue9MetaClassC1Ev
__ZN13IOPacketQueue9MetaClassC2Ev
__ZN13IOPacketQueue9lockFlushEv
__ZN13IOPacketQueue9metaClassE
__ZN13IOPacketQueueC1EPK11OSMetaClass
__ZN13IOPacketQueueC1Ev
__ZN13IOPacketQueueC2EPK11OSMetaClass
__ZN13IOPacketQueueC2Ev
__ZN13IOPacketQueueD0Ev
__ZN13IOPacketQueueD1Ev
__ZN13IOPacketQueueD2Ev
__ZN13IOPacketQueuedlEPvm
__ZN13IOPacketQueuenwEm
__ZN14IONetworkStack22insertNetworkInterfaceEP18IONetworkInterface
__ZN14IONetworkStack22removeNetworkInterfaceEP18IONetworkInterface
__ZN14IONetworkStack24registerNetworkInterfaceEP18IONetworkInterfacejb
__ZN14IONetworkStack26reserveInterfaceUnitNumberEP18IONetworkInterfacejbPb
__ZN14IONetworkStack27attachNetworkInterfaceToBSDEP18IONetworkInterface
__ZN15IONetworkMedium10gMetaClassE
__ZN15IONetworkMedium10superClassE
__ZN15IONetworkMedium11nameForTypeEj
__ZN15IONetworkMedium12removeMediumEP12OSDictionaryPKS_
__ZN15IONetworkMedium17getMediumWithTypeEPK12OSDictionaryjj
__ZN15IONetworkMedium18getMediumWithIndexEPK12OSDictionaryjj
__ZN15IONetworkMedium25_RESERVEDIONetworkMedium0Ev
__ZN15IONetworkMedium25_RESERVEDIONetworkMedium1Ev
__ZN15IONetworkMedium25_RESERVEDIONetworkMedium2Ev
__ZN15IONetworkMedium25_RESERVEDIONetworkMedium3Ev
__ZN15IONetworkMedium4freeEv
__ZN15IONetworkMedium4initEjyjjPKc
__ZN15IONetworkMedium6mediumEjyjjPKc
__ZN15IONetworkMedium9MetaClassC1Ev
__ZN15IONetworkMedium9MetaClassC2Ev
__ZN15IONetworkMedium9addMediumEP12OSDictionaryPKS_
__ZN15IONetworkMedium9metaClassE
__ZN15IONetworkMediumC1EPK11OSMetaClass
__ZN15IONetworkMediumC1Ev
__ZN15IONetworkMediumC2EPK11OSMetaClass
__ZN15IONetworkMediumC2Ev
__ZN15IONetworkMediumD0Ev
__ZN15IONetworkMediumD1Ev
__ZN15IONetworkMediumD2Ev
__ZN15IONetworkMediumdlEPvm
__ZN15IONetworkMediumnwEm
__ZN16IOKernelDebugger10gMetaClassE
__ZN16IOKernelDebugger10handleOpenEP9IOServicejPv
__ZN16IOKernelDebugger10superClassE
__ZN16IOKernelDebugger11handleCloseEP9IOServicej
__ZN16IOKernelDebugger13nullRxHandlerEP9IOServicePvPjj
__ZN16IOKernelDebugger13nullTxHandlerEP9IOServicePvj
__ZN16IOKernelDebugger14signalDebuggerEv
__ZN16IOKernelDebugger15registerHandlerEP9IOServicePFvS1_PvjEPFvS1_S2_PjjEPFjS1_EPFbS1_bE
__ZN16IOKernelDebugger18interfacePublishedEPvS0_P9IOServiceP10IONotifier
__ZN16IOKernelDebugger18nullSetModeHandlerEP9IOServiceb
__ZN16IOKernelDebugger20kdpReceiveDispatcherEPvPjj
__ZN16IOKernelDebugger20kdpSetModeDispatcherEi
__ZN16IOKernelDebugger21kdpTransmitDispatcherEPvj
__ZN16IOKernelDebugger21nullLinkStatusHandlerEP9IOService
__ZN16IOKernelDebugger21powerStateDidChangeToEmmP9IOService
__ZN16IOKernelDebugger22powerStateWillChangeToEmmP9IOService
__ZN16IOKernelDebugger23kdpLinkStatusDispatcherEv
__ZN16IOKernelDebugger26_RESERVEDIOKernelDebugger0Ev
__ZN16IOKernelDebugger26_RESERVEDIOKernelDebugger1Ev
__ZN16IOKernelDebugger26_RESERVEDIOKernelDebugger2Ev
__ZN16IOKernelDebugger26_RESERVEDIOKernelDebugger3Ev
__ZN16IOKernelDebugger4freeEv
__ZN16IOKernelDebugger4initEP9IOServicePFvS1_PvjEPFvS1_S2_PjjEPFjS1_EPFbS1_bE
__ZN16IOKernelDebugger4lockEP9IOService
__ZN16IOKernelDebugger6unlockE19IODebuggerLockState
__ZN16IOKernelDebugger7messageEjP9IOServicePv
__ZN16IOKernelDebugger8debuggerEP9IOServicePFvS1_PvjEPFvS1_S2_PjjEPFjS1_EPFbS1_bE
__ZN16IOKernelDebugger9MetaClassC1Ev
__ZN16IOKernelDebugger9MetaClassC2Ev
__ZN16IOKernelDebugger9metaClassE
__ZN16IOKernelDebuggerC1EPK11OSMetaClass
__ZN16IOKernelDebuggerC1Ev
__ZN16IOKernelDebuggerC2EPK11OSMetaClass
__ZN16IOKernelDebuggerC2Ev
__ZN16IOKernelDebuggerD0Ev
__ZN16IOKernelDebuggerD1Ev
__ZN16IOKernelDebuggerD2Ev
__ZN16IOKernelDebuggerdlEPvm
__ZN16IOKernelDebuggernwEm
__ZN17IOECStateNotifier20isCallbackAndContextEPFvPv28IOEthernetControllerAVBStateS1_ES0_
__ZN17IOECStateNotifier4initEPFvPv28IOEthernetControllerAVBStateS1_ES0_
__ZN17IOECStateNotifier6notifyE28IOEthernetControllerAVBStateS0_
__ZN18IOBasicOutputQueue10gMetaClassE
__ZN18IOBasicOutputQueue10superClassE
__ZN18IOBasicOutputQueue10withTargetEP19IONetworkControllerj
__ZN18IOBasicOutputQueue10withTargetEP19IONetworkControllerjj
__ZN18IOBasicOutputQueue10withTargetEP8OSObjectMS0_FjP6__mbufPvEj
__ZN18IOBasicOutputQueue10withTargetEP8OSObjectMS0_FjP6__mbufPvEjj
__ZN18IOBasicOutputQueue11setCapacityEj
__ZN18IOBasicOutputQueue12getDropCountEv
__ZN18IOBasicOutputQueue13getRetryCountEv
__ZN18IOBasicOutputQueue13getStallCountEv
__ZN18IOBasicOutputQueue13serviceThreadEPv
__ZN18IOBasicOutputQueue14getOutputCountEv
__ZN18IOBasicOutputQueue23handleNetworkDataAccessEP13IONetworkDatajPv
__ZN18IOBasicOutputQueue31dispatchNetworkDataNotificationEPvS0_P13IONetworkDataj
__ZN18IOBasicOutputQueue4freeEv
__ZN18IOBasicOutputQueue4initEP8OSObjectMS0_FjP6__mbufPvEjj
__ZN18IOBasicOutputQueue4stopEv
__ZN18IOBasicOutputQueue5flushEv
__ZN18IOBasicOutputQueue5startEv
__ZN18IOBasicOutputQueue6outputEP11IOMbufQueuePj
__ZN18IOBasicOutputQueue7dequeueEv
__ZN18IOBasicOutputQueue7enqueueEP6__mbufPv
__ZN18IOBasicOutputQueue7serviceEj
__ZN18IOBasicOutputQueue9MetaClassC1Ev
__ZN18IOBasicOutputQueue9MetaClassC2Ev
__ZN18IOBasicOutputQueue9metaClassE
__ZN18IOBasicOutputQueueC1EPK11OSMetaClass
__ZN18IOBasicOutputQueueC1Ev
__ZN18IOBasicOutputQueueC2EPK11OSMetaClass
__ZN18IOBasicOutputQueueC2Ev
__ZN18IOBasicOutputQueueD0Ev
__ZN18IOBasicOutputQueueD1Ev
__ZN18IOBasicOutputQueueD2Ev
__ZN18IOBasicOutputQueuedlEPvm
__ZN18IOBasicOutputQueuenwEm
__ZN18IOGatedOutputQueue10gMetaClassE
__ZN18IOGatedOutputQueue10superClassE
__ZN18IOGatedOutputQueue10withTargetEP19IONetworkControllerP10IOWorkLoopj
__ZN18IOGatedOutputQueue10withTargetEP19IONetworkControllerP10IOWorkLoopjj
__ZN18IOGatedOutputQueue10withTargetEP8OSObjectMS0_FjP6__mbufPvEP10IOWorkLoopj
__ZN18IOGatedOutputQueue10withTargetEP8OSObjectMS0_FjP6__mbufPvEP10IOWorkLoopjj
__ZN18IOGatedOutputQueue11gatedOutputEP8OSObjectPS_P11IOMbufQueuePj
__ZN18IOGatedOutputQueue21restartDeferredOutputEP8OSObjectP22IOInterruptEventSourcei
__ZN18IOGatedOutputQueue21scheduleServiceThreadEPv
__ZN18IOGatedOutputQueue4freeEv
__ZN18IOGatedOutputQueue4initEP8OSObjectMS0_FjP6__mbufPvEP10IOWorkLoopjj
__ZN18IOGatedOutputQueue6outputEP11IOMbufQueuePj
__ZN18IOGatedOutputQueue9MetaClassC1Ev
__ZN18IOGatedOutputQueue9MetaClassC2Ev
__ZN18IOGatedOutputQueue9metaClassE
__ZN18IOGatedOutputQueueC1EPK11OSMetaClass
__ZN18IOGatedOutputQueueC1Ev
__ZN18IOGatedOutputQueueC2EPK11OSMetaClass
__ZN18IOGatedOutputQueueC2Ev
__ZN18IOGatedOutputQueueD0Ev
__ZN18IOGatedOutputQueueD1Ev
__ZN18IOGatedOutputQueueD2Ev
__ZN18IOGatedOutputQueuedlEPvm
__ZN18IOGatedOutputQueuenwEm
__ZN18IOMbufMemoryCursor10gMetaClassE
__ZN18IOMbufMemoryCursor10superClassE
__ZN18IOMbufMemoryCursor19genPhysicalSegmentsEP6__mbufPvjb
__ZN18IOMbufMemoryCursor21initWithSpecificationEPFvN14IOMemoryCursor15PhysicalSegmentEPvjEjj
__ZN18IOMbufMemoryCursor21initWithSpecificationEPFvN14IOMemoryCursor15PhysicalSegmentEPvjEjjj
__ZN18IOMbufMemoryCursor24getAndResetCoalesceCountEv
__ZN18IOMbufMemoryCursor28_RESERVEDIOMbufMemoryCursor0Ev
__ZN18IOMbufMemoryCursor28_RESERVEDIOMbufMemoryCursor1Ev
__ZN18IOMbufMemoryCursor28_RESERVEDIOMbufMemoryCursor2Ev
__ZN18IOMbufMemoryCursor28_RESERVEDIOMbufMemoryCursor3Ev
__ZN18IOMbufMemoryCursor9MetaClassC1Ev
__ZN18IOMbufMemoryCursor9MetaClassC2Ev
__ZN18IOMbufMemoryCursor9metaClassE
__ZN18IOMbufMemoryCursorC1EPK11OSMetaClass
__ZN18IOMbufMemoryCursorC1Ev
__ZN18IOMbufMemoryCursorC2EPK11OSMetaClass
__ZN18IOMbufMemoryCursorC2Ev
__ZN18IOMbufMemoryCursorD0Ev
__ZN18IOMbufMemoryCursorD1Ev
__ZN18IOMbufMemoryCursorD2Ev
__ZN18IOMbufMemoryCursordlEPvm
__ZN18IOMbufMemoryCursornwEm
__ZN18IONetworkInterface10gMetaClassE
__ZN18IONetworkInterface10handleOpenEP9IOServicejPv
__ZN18IONetworkInterface10inputEventEjPv
__ZN18IONetworkInterface10superClassE
__ZN18IONetworkInterface11handleCloseEP9IOServicej
__ZN18IONetworkInterface11inputPacketEP6__mbufjjPv
__ZN18IONetworkInterface12if_input_ctlEP7__ifnetjjPv
__ZN18IONetworkInterface12notifyDriverEjPv
__ZN18IONetworkInterface13if_input_pollEP7__ifnetjjPP6__mbufS4_PjS5_
__ZN18IONetworkInterface13if_output_ctlEP7__ifnetjjPv
__ZN18IONetworkInterface13newUserClientEP4taskPvjPP12IOUserClient
__ZN18IONetworkInterface13setExtraFlagsEjj
__ZN18IONetworkInterface13setUnitNumberEt
__ZN18IONetworkInterface13willTerminateEP9IOServicej
__ZN18IONetworkInterface14actionInputCtlEP19IONetworkControllerjjPv
__ZN18IONetworkInterface14addNetworkDataEP13IONetworkData
__ZN18IONetworkInterface14if_set_bpf_tapEP7__ifnetjPFiS1_P6__mbufE
__ZN18IONetworkInterface14if_start_gatedEP7__ifnet
__ZN18IONetworkInterface14performCommandEP19IONetworkControllermPvS2_
__ZN18IONetworkInterface14pushInputQueueEP11IOMbufQueue
__ZN18IONetworkInterface14syncSIOCSIFMTUEP19IONetworkControllerP5ifreq
__ZN18IONetworkInterface15clearInputQueueEv
__ZN18IONetworkInterface15errnoToIOReturnEi
__ZN18IONetworkInterface15flushInputQueueEv
__ZN18IONetworkInterface15initIfnetParamsEP17ifnet_init_params
__ZN18IONetworkInterface15pushInputPacketEP6__mbufj
__ZN18IONetworkInterface16drainOutputQueueEP7__ifnetP19IONetworkController
__ZN18IONetworkInterface16flushOutputQueueEj
__ZN18IONetworkInterface16haltOutputThreadEj
__ZN18IONetworkInterface16handleClientOpenEP9IOServicejPv
__ZN18IONetworkInterface16requestTerminateEP9IOServicej
__ZN18IONetworkInterface16setExtendedFlagsEjj
__ZN18IONetworkInterface16setInterfaceTypeEh
__ZN18IONetworkInterface16stopOutputThreadEj
__ZN18IONetworkInterface16syncSIOCGIFMEDIAEP19IONetworkControllerP5ifreqm
__ZN18IONetworkInterface16syncSIOCSIFMEDIAEP19IONetworkControllerP5ifreq
__ZN18IONetworkInterface17controllerDidOpenEP19IONetworkController
__ZN18IONetworkInterface17handleClientCloseEP9IOServicej
__ZN18IONetworkInterface17if_start_precheckEP7__ifnet
__ZN18IONetworkInterface17removeNetworkDataEPK8OSSymbol
__ZN18IONetworkInterface17removeNetworkDataEPKc
__ZN18IONetworkInterface17setInterfaceStateEjj
__ZN18IONetworkInterface17startOutputThreadEj
__ZN18IONetworkInterface18debuggerRegisteredEv
__ZN18IONetworkInterface18enqueueInputPacketEP6__mbufP11IOMbufQueuej
__ZN18IONetworkInterface18feedPacketInputTapEP6__mbuf
__ZN18IONetworkInterface18powerChangeHandlerEPvS0_S0_
__ZN18IONetworkInterface18setMaxTransferUnitEj
__ZN18IONetworkInterface18signalOutputThreadEj
__ZN18IONetworkInterface19controllerWillCloseEP19IONetworkController
__ZN18IONetworkInterface19enqueueOutputPacketEP6__mbufj
__ZN18IONetworkInterface19feedPacketOutputTapEP6__mbuf
__ZN18IONetworkInterface19if_input_poll_gatedEP7__ifnetjjPP6__mbufS4_PjS5_
__ZN18IONetworkInterface19performGatedCommandEPvS0_S0_S0_S0_
__ZN18IONetworkInterface19reportDatapathIssueEiPvy
__ZN18IONetworkInterface19setInterfaceSubTypeEj
__ZN18IONetworkInterface20_syncNetworkDataDictEv
__ZN18IONetworkInterface20dequeueOutputPacketsEjPP6__mbufS2_PjPy
__ZN18IONetworkInterface20setMediaHeaderLengthEh
__ZN18IONetworkInterface21attachToDataLinkLayerEjPv
__ZN18IONetworkInterface21if_output_pre_enqueueEP7__ifnetP6__mbuf
__ZN18IONetworkInterface21powerStateDidChangeToEmmP9IOService
__ZN18IONetworkInterface21registerOutputHandlerEP8OSObjectMS0_FjP6__mbufPvE
__ZN18IONetworkInterface21setMediaAddressLengthEh
__ZN18IONetworkInterface22powerStateWillChangeToEmmP9IOService
__ZN18IONetworkInterface23configureClientBehaviorEj
__ZN18IONetworkInterface23detachFromDataLinkLayerEjPv
__ZN18IONetworkInterface23handleNetworkInputEventEPvS0_
__ZN18IONetworkInterface23reportDataTransferRatesEyyyy
__ZN18IONetworkInterface24configureOutputPullModelEjjjjj
__ZN18IONetworkInterface25configureOutputStartDelayEtt
__ZN18IONetworkInterface26setPacketPollingParametersEPK32IONetworkPacketPollingParametersj
__ZN18IONetworkInterface27configureInputPacketPollingEjj
__ZN18IONetworkInterface29_RESERVEDIONetworkInterface11Ev
__ZN18IONetworkInterface29_RESERVEDIONetworkInterface12Ev
__ZN18IONetworkInterface29_RESERVEDIONetworkInterface13Ev
__ZN18IONetworkInterface29_RESERVEDIONetworkInterface14Ev
__ZN18IONetworkInterface29_RESERVEDIONetworkInterface15Ev
__ZN18IONetworkInterface29controllerDidChangePowerStateEP19IONetworkControllermjP9IOService
__ZN18IONetworkInterface30controllerWillChangePowerStateEP19IONetworkControllermjP9IOService
__ZN18IONetworkInterface30installOutputPreEnqueueHandlerEPFiPvS0_P6__mbufES0_S0_
__ZN18IONetworkInterface30reportTransmitCompletionStatusEP6__mbufijjj
__ZN18IONetworkInterface31dequeueOutputPacketsWithMaxSizeEjPP6__mbufS2_PjPy
__ZN18IONetworkInterface36dequeueOutputPacketsWithServiceClassEj18IOMbufServiceClassPP6__mbufS3_PjPy
__ZN18IONetworkInterface4freeEv
__ZN18IONetworkInterface4initEP19IONetworkController
__ZN18IONetworkInterface4lockEv
__ZN18IONetworkInterface6unlockEv
__ZN18IONetworkInterface7messageEjP9IOServicePv
__ZN18IONetworkInterface8if_ioctlEP7__ifnetmPv
__ZN18IONetworkInterface8if_startEP7__ifnet
__ZN18IONetworkInterface8setFlagsEtt
__ZN18IONetworkInterface9MetaClassC1Ev
__ZN18IONetworkInterface9MetaClassC2Ev
__ZN18IONetworkInterface9if_detachEP7__ifnet
__ZN18IONetworkInterface9if_outputEP7__ifnetP6__mbuf
__ZN18IONetworkInterface9initIfnetEP5ifnet
__ZN18IONetworkInterface9metaClassE
__ZN18IONetworkInterfaceC2EPK11OSMetaClass
__ZN18IONetworkInterfaceD0Ev
__ZN18IONetworkInterfaceD1Ev
__ZN18IONetworkInterfaceD2Ev
__ZN18IONetworkInterfacedlEPvm
__ZN18IONetworkInterfacenwEm
__ZN19IOECTimeSyncHandler20isCallbackAndContextEPFvPvPN20IOEthernetController19IOEthernetAVBPacketEES0_
__ZN19IOECTimeSyncHandler4callEPN20IOEthernetController19IOEthernetAVBPacketE
__ZN19IOECTimeSyncHandler4initEPFvPvPN20IOEthernetController19IOEthernetAVBPacketEES0_j
__ZN19IOEthernetInterface10gMetaClassE
__ZN19IOEthernetInterface10getFiltersEPK12OSDictionaryPK8OSSymbol
__ZN19IOEthernetInterface10inputEventEjPv
__ZN19IOEthernetInterface10setFiltersEP12OSDictionaryPK8OSSymbolj
__ZN19IOEthernetInterface10superClassE
__ZN19IOEthernetInterface12enableFilterEP19IONetworkControllerPK8OSSymboljj
__ZN19IOEthernetInterface13disableFilterEP19IONetworkControllerPK8OSSymboljj
__ZN19IOEthernetInterface13willTerminateEP9IOServicej
__ZN19IOEthernetInterface14performCommandEP19IONetworkControllermPvS2_
__ZN19IOEthernetInterface14syncSIOCSIFCAPEP19IONetworkControllerP5ifreq
__ZN19IOEthernetInterface14syncSIOCSIFMTUEP19IONetworkControllerP5ifreqb
__ZN19IOEthernetInterface15initIfnetParamsEP17ifnet_init_params
__ZN19IOEthernetInterface15syncSIOCSIFADDREP19IONetworkController
__ZN19IOEthernetInterface16_fixupVlanPacketEP6__mbufti
__ZN19IOEthernetInterface16enableControllerEP19IONetworkController
__ZN19IOEthernetInterface16syncSIOCADDMULTIEP19IONetworkController
__ZN19IOEthernetInterface16syncSIOCDELMULTIEP19IONetworkController
__ZN19IOEthernetInterface16syncSIOCSIFFLAGSEP19IONetworkController
__ZN19IOEthernetInterface17controllerDidOpenEP19IONetworkController
__ZN19IOEthernetInterface17syncSIOCGIFDEVMTUEP19IONetworkControllerP5ifreq
__ZN19IOEthernetInterface17syncSIOCSIFLLADDREP19IONetworkControllerPKci
__ZN19IOEthernetInterface18feedPacketInputTapEP6__mbuf
__ZN19IOEthernetInterface19controllerWillCloseEP19IONetworkController
__ZN19IOEthernetInterface19feedPacketOutputTapEP6__mbuf
__ZN19IOEthernetInterface19performGatedCommandEPvS0_S0_S0_S0_
__ZN19IOEthernetInterface20enableFilter_WrapperEPS_P19IONetworkControllerPK8OSSymboljj
__ZN19IOEthernetInterface20setupMulticastFilterEP19IONetworkController
__ZN19IOEthernetInterface21attachToDataLinkLayerEjPv
__ZN19IOEthernetInterface24handleEthernetInputEventEPvS0_
__ZN19IOEthernetInterface24reportInterfaceWakeFlagsEP19IONetworkController
__ZN19IOEthernetInterface29_RESERVEDIOEthernetInterface0Ev
__ZN19IOEthernetInterface29_RESERVEDIOEthernetInterface1Ev
__ZN19IOEthernetInterface29_RESERVEDIOEthernetInterface2Ev
__ZN19IOEthernetInterface29_RESERVEDIOEthernetInterface3Ev
__ZN19IOEthernetInterface29_RESERVEDIOEthernetInterface4Ev
__ZN19IOEthernetInterface29_RESERVEDIOEthernetInterface5Ev
__ZN19IOEthernetInterface29_RESERVEDIOEthernetInterface6Ev
__ZN19IOEthernetInterface29_RESERVEDIOEthernetInterface7Ev
__ZN19IOEthernetInterface29_RESERVEDIOEthernetInterface8Ev
__ZN19IOEthernetInterface29_RESERVEDIOEthernetInterface9Ev
__ZN19IOEthernetInterface29controllerDidChangePowerStateEP19IONetworkControllermjP9IOService
__ZN19IOEthernetInterface30_RESERVEDIOEthernetInterface10Ev
__ZN19IOEthernetInterface30_RESERVEDIOEthernetInterface11Ev
__ZN19IOEthernetInterface30_RESERVEDIOEthernetInterface12Ev
__ZN19IOEthernetInterface30_RESERVEDIOEthernetInterface13Ev
__ZN19IOEthernetInterface30_RESERVEDIOEthernetInterface14Ev
__ZN19IOEthernetInterface30_RESERVEDIOEthernetInterface15Ev
__ZN19IOEthernetInterface30controllerWillChangePowerStateEP19IONetworkControllermjP9IOService
__ZN19IOEthernetInterface4freeEv
__ZN19IOEthernetInterface4initEP19IONetworkController
__ZN19IOEthernetInterface9MetaClassC1Ev
__ZN19IOEthernetInterface9MetaClassC2Ev
__ZN19IOEthernetInterface9metaClassE
__ZN19IOEthernetInterfaceC1EPK11OSMetaClass
__ZN19IOEthernetInterfaceC1Ev
__ZN19IOEthernetInterfaceC2EPK11OSMetaClass
__ZN19IOEthernetInterfaceC2Ev
__ZN19IOEthernetInterfaceD0Ev
__ZN19IOEthernetInterfaceD1Ev
__ZN19IOEthernetInterfaceD2Ev
__ZN19IOEthernetInterfacedlEPvm
__ZN19IOEthernetInterfacenwEm
__ZN19IONetworkController10copyPacketEP6__mbufj
__ZN19IONetworkController10freePacketEP6__mbufj
__ZN19IONetworkController10gMetaClassE
__ZN19IONetworkController10handleOpenEP9IOServicejPv
__ZN19IONetworkController10sendPacketEPvj
__ZN19IONetworkController10superClassE
__ZN19IONetworkController11handleCloseEP9IOServicej
__ZN19IONetworkController11outputStartEP18IONetworkInterfacej
__ZN19IONetworkController12outputPacketEP6__mbufPv
__ZN19IONetworkController12selectMediumEPK15IONetworkMedium
__ZN19IONetworkController13handleCommandEPvS0_S0_S0_S0_
__ZN19IONetworkController13receivePacketEPvPjj
__ZN19IONetworkController13replacePacketEPP6__mbufj
__ZN19IONetworkController13setLinkStatusEjPK15IONetworkMediumyP6OSData
__ZN19IONetworkController14allocatePacketEj
__ZN19IONetworkController14allocatePacketNoWaitEj
__ZN19IONetworkController14createWorkLoopEv
__ZN19IONetworkController14debugRxHandlerEP9IOServicePvPjj
__ZN19IONetworkController14debugTxHandlerEP9IOServicePvj
__ZN19IONetworkController14executeCommandEP8OSObjectPFiPvS2_S2_S2_S2_ES2_S2_S2_S2_S2_
__ZN19IONetworkController15_broadcastEventEjPv
__ZN19IONetworkController15attachInterfaceEPP18IONetworkInterfaceb
__ZN19IONetworkController15detachInterfaceEP18IONetworkInterfaceb
__ZN19IONetworkController15setDebuggerModeEb
__ZN19IONetworkController16pollInputPacketsEP18IONetworkInterfacejP11IOMbufQueuePv
__ZN19IONetworkController16setCurrentMediumEPK15IONetworkMedium
__ZN19IONetworkController16setMaxPacketSizeEj
__ZN19IONetworkController17createOutputQueueEv
__ZN19IONetworkController17getChecksumDemandEP6__mbufjPjPvS3_
__ZN19IONetworkController17publishPropertiesEv
__ZN19IONetworkController17setAggressivenessEmm
__ZN19IONetworkController17setChecksumResultEP6__mbufjjjjj
__ZN19IONetworkController17setSelectedMediumEPK15IONetworkMedium
__ZN19IONetworkController18configureInterfaceEP18IONetworkInterface
__ZN19IONetworkController18getChecksumSupportEPjjb
__ZN19IONetworkController18releaseFreePacketsEv
__ZN19IONetworkController18systemWillShutdownEj
__ZN19IONetworkController19debugSetModeHandlerEP9IOServiceb
__ZN19IONetworkController19getMbufServiceClassEP6__mbuf
__ZN19IONetworkController19releaseDebuggerLockEv
__ZN19IONetworkController19replaceOrCopyPacketEPP6__mbufjPb
__ZN19IONetworkController19reserveDebuggerLockEv
__ZN19IONetworkController20attachDebuggerClientEPP16IOKernelDebugger
__ZN19IONetworkController20detachDebuggerClientEP16IOKernelDebugger
__ZN19IONetworkController20executeCommandActionEP8OSObjectPvS2_S2_S2_
__ZN19IONetworkController20selectMediumWithNameEPK8OSSymbol
__ZN19IONetworkController21getDebuggerLinkStatusEv
__ZN19IONetworkController22debugLinkStatusHandlerEP9IOService
__ZN19IONetworkController23publishMediumDictionaryEPK12OSDictionary
__ZN19IONetworkController23registerWithPolicyMakerEP9IOService
__ZN19IONetworkController27attachAuxiliaryDataToPacketEP6__mbufPKvyjj
__ZN19IONetworkController27setInputPacketPollingEnableEP18IONetworkInterfaceb
__ZN19IONetworkController28networkInterfaceNotificationEP18IONetworkInterfacejPv
__ZN19IONetworkController29_RESERVEDIONetworkController6Ev
__ZN19IONetworkController29_RESERVEDIONetworkController7Ev
__ZN19IONetworkController29_RESERVEDIONetworkController8Ev
__ZN19IONetworkController29_RESERVEDIONetworkController9Ev
__ZN19IONetworkController29removeAuxiliaryDataFromPacketEP6__mbuf
__ZN19IONetworkController30_RESERVEDIONetworkController10Ev
__ZN19IONetworkController30_RESERVEDIONetworkController11Ev
__ZN19IONetworkController30_RESERVEDIONetworkController12Ev
__ZN19IONetworkController30_RESERVEDIONetworkController13Ev
__ZN19IONetworkController30_RESERVEDIONetworkController14Ev
__ZN19IONetworkController30_RESERVEDIONetworkController15Ev
__ZN19IONetworkController30_RESERVEDIONetworkController16Ev
__ZN19IONetworkController30_RESERVEDIONetworkController17Ev
__ZN19IONetworkController30_RESERVEDIONetworkController18Ev
__ZN19IONetworkController30_RESERVEDIONetworkController19Ev
__ZN19IONetworkController30_RESERVEDIONetworkController20Ev
__ZN19IONetworkController30_RESERVEDIONetworkController21Ev
__ZN19IONetworkController30_RESERVEDIONetworkController22Ev
__ZN19IONetworkController30_RESERVEDIONetworkController23Ev
__ZN19IONetworkController30_RESERVEDIONetworkController24Ev
__ZN19IONetworkController30_RESERVEDIONetworkController25Ev
__ZN19IONetworkController30_RESERVEDIONetworkController26Ev
__ZN19IONetworkController30_RESERVEDIONetworkController27Ev
__ZN19IONetworkController30_RESERVEDIONetworkController28Ev
__ZN19IONetworkController30_RESERVEDIONetworkController29Ev
__ZN19IONetworkController30_RESERVEDIONetworkController30Ev
__ZN19IONetworkController30_RESERVEDIONetworkController31Ev
__ZN19IONetworkController4freeEv
__ZN19IONetworkController4initEP12OSDictionary
__ZN19IONetworkController4stopEP9IOService
__ZN19IONetworkController5startEP9IOService
__ZN19IONetworkController6enableEP16IOKernelDebugger
__ZN19IONetworkController6enableEP18IONetworkInterface
__ZN19IONetworkController6enableEP9IOService
__ZN19IONetworkController7disableEP16IOKernelDebugger
__ZN19IONetworkController7disableEP18IONetworkInterface
__ZN19IONetworkController7disableEP9IOService
__ZN19IONetworkController7messageEjP9IOServicePv
__ZN19IONetworkController7prepareEv
__ZN19IONetworkController8doEnableEP9IOService
__ZN19IONetworkController9MetaClassC1Ev
__ZN19IONetworkController9MetaClassC2Ev
__ZN19IONetworkController9doDisableEP9IOService
__ZN19IONetworkController9metaClassE
__ZN19IONetworkControllerC2EPK11OSMetaClass
__ZN19IONetworkControllerD0Ev
__ZN19IONetworkControllerD1Ev
__ZN19IONetworkControllerD2Ev
__ZN19IONetworkControllerdlEPvm
__ZN19IONetworkControllernwEm
__ZN20IOEthernetController10gMetaClassE
__ZN20IOEthernetController10initializeEv
__ZN20IOEthernetController10setVlanTagEP6__mbufj
__ZN20IOEthernetController10superClassE
__ZN20IOEthernetController14setGPTPPresentEb
__ZN20IOEthernetController15createInterfaceEv
__ZN20IOEthernetController16getVlanTagDemandEP6__mbufPj
__ZN20IOEthernetController16setMulticastListEP17IOEthernetAddressj
__ZN20IOEthernetController16setMulticastModeEb
__ZN20IOEthernetController17allocateAVBPacketEb
__ZN20IOEthernetController17completeAVBPacketEPNS_19IOEthernetAVBPacketE
__ZN20IOEthernetController17publishPropertiesEv
__ZN20IOEthernetController18enablePacketFilterEPK8OSSymboljjj
__ZN20IOEthernetController18getHardwareAddressEPvPj
__ZN20IOEthernetController18setAVBPacketMapperEP8IOMapper
__ZN20IOEthernetController18setHardwareAddressEPK17IOEthernetAddress
__ZN20IOEthernetController18setHardwareAddressEPKvj
__ZN20IOEthernetController18setPromiscuousModeEb
__ZN20IOEthernetController19disablePacketFilterEPK8OSSymboljjj
__ZN20IOEthernetController20cleanupTransmitQueueEj
__ZN20IOEthernetController20setWakeOnMagicPacketEb
__ZN20IOEthernetController21setAVBControllerStateE28IOEthernetControllerAVBState
__ZN20IOEthernetController22receivedTimeSyncPacketEPNS_19IOEthernetAVBPacketE
__ZN20IOEthernetController22timeSyncCallbackThreadEv
__ZN20IOEthernetController22transmitTimeSyncPacketEPNS_19IOEthernetAVBPacketEy
__ZN20IOEthernetController23transmitRealtimePacketsEjPPNS_19IOEthernetAVBPacketEjbPj
__ZN20IOEthernetController24changeAVBControllerStateE33IOEthernetControllerAVBStateEvent
__ZN20IOEthernetController24setTimeSyncPacketSupportE38IOEthernetControllerAVBTimeSyncSupport
__ZN20IOEthernetController25transmittedTimeSyncPacketEPNS_19IOEthernetAVBPacketEb
__ZN20IOEthernetController27timeSyncCallbackThreadEntryEPvi
__ZN20IOEthernetController28allocatedAVBPacketCompletionEPvPNS_19IOEthernetAVBPacketE
__ZN20IOEthernetController29getRealtimeReceiveQueueFilterEjPNS_33IOEthernetAVBIngressFilterElementEPj
__ZN20IOEthernetController29setRealtimeMulticastIsAllowedEb
__ZN20IOEthernetController29setRealtimeReceiveQueueFilterEjPNS_33IOEthernetAVBIngressFilterElementEj
__ZN20IOEthernetController29setTransmitQueuePacketLatencyEjy
__ZN20IOEthernetController29setTransmitQueuePrefetchDelayEjy
__ZN20IOEthernetController31_RESERVEDIOEthernetController10Ev
__ZN20IOEthernetController31_RESERVEDIOEthernetController11Ev
__ZN20IOEthernetController31_RESERVEDIOEthernetController12Ev
__ZN20IOEthernetController31_RESERVEDIOEthernetController13Ev
__ZN20IOEthernetController31_RESERVEDIOEthernetController14Ev
__ZN20IOEthernetController31_RESERVEDIOEthernetController15Ev
__ZN20IOEthernetController31_RESERVEDIOEthernetController16Ev
__ZN20IOEthernetController31_RESERVEDIOEthernetController17Ev
__ZN20IOEthernetController31_RESERVEDIOEthernetController18Ev
__ZN20IOEthernetController31_RESERVEDIOEthernetController19Ev
__ZN20IOEthernetController31_RESERVEDIOEthernetController20Ev
__ZN20IOEthernetController31_RESERVEDIOEthernetController21Ev
__ZN20IOEthernetController31_RESERVEDIOEthernetController22Ev
__ZN20IOEthernetController31_RESERVEDIOEthernetController23Ev
__ZN20IOEthernetController31_RESERVEDIOEthernetController24Ev
__ZN20IOEthernetController31_RESERVEDIOEthernetController25Ev
__ZN20IOEthernetController31_RESERVEDIOEthernetController26Ev
__ZN20IOEthernetController31_RESERVEDIOEthernetController27Ev
__ZN20IOEthernetController31_RESERVEDIOEthernetController28Ev
__ZN20IOEthernetController31_RESERVEDIOEthernetController29Ev
__ZN20IOEthernetController31_RESERVEDIOEthernetController30Ev
__ZN20IOEthernetController31_RESERVEDIOEthernetController31Ev
__ZN20IOEthernetController31addTimeSyncReceivePacketHandlerEPFvPvPNS_19IOEthernetAVBPacketEES0_
__ZN20IOEthernetController31realtimePoolAVBPacketCompletionEPNS_19IOEthernetAVBPacketE
__ZN20IOEthernetController32addTimeSyncTransmitPacketHandlerEPFvPvPNS_19IOEthernetAVBPacketEES0_Pj
__ZN20IOEthernetController32setNumberOfRealtimeReceiveQueuesEj
__ZN20IOEthernetController33setNumberOfRealtimeTransmitQueuesEj
__ZN20IOEthernetController34removeTimeSyncReceivePacketHandlerEPFvPvPNS_19IOEthernetAVBPacketEES0_
__ZN20IOEthernetController35removeTimeSyncTransmitPacketHandlerEj
__ZN20IOEthernetController36setRealtimeReceiveDestinationMACListEjP17IOEthernetAddressi
__ZN20IOEthernetController36setRealtimeReceiveQueuePacketHandlerEjPFvPvPNS_19IOEthernetAVBPacketEES0_
__ZN20IOEthernetController38registerForAVBStateChangeNotificationsEPFvPv28IOEthernetControllerAVBStateS1_ES0_
__ZN20IOEthernetController40deregisterForAVBStateChangeNotificationsEPFvPv28IOEthernetControllerAVBStateS1_ES0_
__ZN20IOEthernetController4freeEv
__ZN20IOEthernetController4initEP12OSDictionary
__ZN20IOEthernetController9MetaClassC1Ev
__ZN20IOEthernetController9MetaClassC2Ev
__ZN20IOEthernetController9metaClassE
__ZN20IOEthernetControllerC2EPK11OSMetaClass
__ZN20IOEthernetControllerD0Ev
__ZN20IOEthernetControllerD1Ev
__ZN20IOEthernetControllerD2Ev
__ZN20IOEthernetControllerdlEPvm
__ZN20IOEthernetControllernwEm
__ZN20IONetworkDataGlobalsC1Ev
__ZN20IONetworkDataGlobalsC2Ev
__ZN20IONetworkDataGlobalsD1Ev
__ZN20IONetworkDataGlobalsD2Ev
__ZN21IOMbufBigMemoryCursor10gMetaClassE
__ZN21IOMbufBigMemoryCursor10superClassE
__ZN21IOMbufBigMemoryCursor17withSpecificationEjj
__ZN21IOMbufBigMemoryCursor19getPhysicalSegmentsEP4mbufPN14IOMemoryCursor15PhysicalSegmentEm
__ZN21IOMbufBigMemoryCursor19getPhysicalSegmentsEP6__mbufPN14IOMemoryCursor15PhysicalSegmentEj
__ZN21IOMbufBigMemoryCursor31getPhysicalSegmentsWithCoalesceEP4mbufPN14IOMemoryCursor15PhysicalSegmentEm
__ZN21IOMbufBigMemoryCursor31getPhysicalSegmentsWithCoalesceEP6__mbufPN14IOMemoryCursor15PhysicalSegmentEj
__ZN21IOMbufBigMemoryCursor9MetaClassC1Ev
__ZN21IOMbufBigMemoryCursor9MetaClassC2Ev
__ZN21IOMbufBigMemoryCursor9metaClassE
__ZN21IOMbufBigMemoryCursorC1EPK11OSMetaClass
__ZN21IOMbufBigMemoryCursorC1Ev
__ZN21IOMbufBigMemoryCursorC2EPK11OSMetaClass
__ZN21IOMbufBigMemoryCursorC2Ev
__ZN21IOMbufBigMemoryCursorD0Ev
__ZN21IOMbufBigMemoryCursorD1Ev
__ZN21IOMbufBigMemoryCursorD2Ev
__ZN21IOMbufBigMemoryCursordlEPvm
__ZN21IOMbufBigMemoryCursornwEm
__ZN24IOMbufLittleMemoryCursor10gMetaClassE
__ZN24IOMbufLittleMemoryCursor10superClassE
__ZN24IOMbufLittleMemoryCursor17withSpecificationEjj
__ZN24IOMbufLittleMemoryCursor19getPhysicalSegmentsEP4mbufPN14IOMemoryCursor15PhysicalSegmentEm
__ZN24IOMbufLittleMemoryCursor19getPhysicalSegmentsEP6__mbufPN14IOMemoryCursor15PhysicalSegmentEj
__ZN24IOMbufLittleMemoryCursor31getPhysicalSegmentsWithCoalesceEP4mbufPN14IOMemoryCursor15PhysicalSegmentEm
__ZN24IOMbufLittleMemoryCursor31getPhysicalSegmentsWithCoalesceEP6__mbufPN14IOMemoryCursor15PhysicalSegmentEj
__ZN24IOMbufLittleMemoryCursor9MetaClassC1Ev
__ZN24IOMbufLittleMemoryCursor9MetaClassC2Ev
__ZN24IOMbufLittleMemoryCursor9metaClassE
__ZN24IOMbufLittleMemoryCursorC1EPK11OSMetaClass
__ZN24IOMbufLittleMemoryCursorC1Ev
__ZN24IOMbufLittleMemoryCursorC2EPK11OSMetaClass
__ZN24IOMbufLittleMemoryCursorC2Ev
__ZN24IOMbufLittleMemoryCursorD0Ev
__ZN24IOMbufLittleMemoryCursorD1Ev
__ZN24IOMbufLittleMemoryCursorD2Ev
__ZN24IOMbufLittleMemoryCursordlEPvm
__ZN24IOMbufLittleMemoryCursornwEm
__ZN25IOMbufNaturalMemoryCursor10gMetaClassE
__ZN25IOMbufNaturalMemoryCursor10superClassE
__ZN25IOMbufNaturalMemoryCursor17withSpecificationEjj
__ZN25IOMbufNaturalMemoryCursor19getPhysicalSegmentsEP4mbufPN14IOMemoryCursor15PhysicalSegmentEm
__ZN25IOMbufNaturalMemoryCursor19getPhysicalSegmentsEP6__mbufPN14IOMemoryCursor15PhysicalSegmentEj
__ZN25IOMbufNaturalMemoryCursor31getPhysicalSegmentsWithCoalesceEP4mbufPN14IOMemoryCursor15PhysicalSegmentEm
__ZN25IOMbufNaturalMemoryCursor31getPhysicalSegmentsWithCoalesceEP6__mbufPN14IOMemoryCursor15PhysicalSegmentEj
__ZN25IOMbufNaturalMemoryCursor9MetaClassC1Ev
__ZN25IOMbufNaturalMemoryCursor9MetaClassC2Ev
__ZN25IOMbufNaturalMemoryCursor9metaClassE
__ZN25IOMbufNaturalMemoryCursorC1EPK11OSMetaClass
__ZN25IOMbufNaturalMemoryCursorC1Ev
__ZN25IOMbufNaturalMemoryCursorC2EPK11OSMetaClass
__ZN25IOMbufNaturalMemoryCursorC2Ev
__ZN25IOMbufNaturalMemoryCursorD0Ev
__ZN25IOMbufNaturalMemoryCursorD1Ev
__ZN25IOMbufNaturalMemoryCursorD2Ev
__ZN25IOMbufNaturalMemoryCursordlEPvm
__ZN25IOMbufNaturalMemoryCursornwEm
__ZN26IONetworkControllerGlobalsC1Ev
__ZN26IONetworkControllerGlobalsC2Ev
__ZN26IONetworkControllerGlobalsD1Ev
__ZN26IONetworkControllerGlobalsD2Ev
__ZNK13IONetworkData12getMetaClassEv
__ZNK13IONetworkData13getBufferTypeEv
__ZNK13IONetworkData14getAccessTypesEv
__ZNK13IONetworkData21getNotificationActionEv
__ZNK13IONetworkData21getNotificationTargetEv
__ZNK13IONetworkData24getNotificationParameterEv
__ZNK13IONetworkData6getKeyEv
__ZNK13IONetworkData7getSizeEv
__ZNK13IONetworkData9MetaClass5allocEv
__ZNK13IONetworkData9getBufferEv
__ZNK13IONetworkData9readBytesEPvPjj
__ZNK13IONetworkData9serializeEP11OSSerialize
__ZNK13IOOutputQueue12getMetaClassEv
__ZNK13IOOutputQueue16getOutputHandlerEv
__ZNK13IOOutputQueue17getStatisticsDataEv
__ZNK13IOOutputQueue9MetaClass5allocEv
__ZNK13IOPacketQueue11getCapacityEv
__ZNK13IOPacketQueue12getMetaClassEv
__ZNK13IOPacketQueue4peekEv
__ZNK13IOPacketQueue7getSizeEv
__ZNK13IOPacketQueue9MetaClass5allocEv
__ZNK15IONetworkMedium12getMetaClassEv
__ZNK15IONetworkMedium7getNameEv
__ZNK15IONetworkMedium7getTypeEv
__ZNK15IONetworkMedium8getFlagsEv
__ZNK15IONetworkMedium8getIndexEv
__ZNK15IONetworkMedium8getSpeedEv
__ZNK15IONetworkMedium9MetaClass5allocEv
__ZNK15IONetworkMedium9isEqualToEPK15OSMetaClassBase
__ZNK15IONetworkMedium9isEqualToEPKS_
__ZNK15IONetworkMedium9serializeEP11OSSerialize
__ZNK16IOKernelDebugger12getMetaClassEv
__ZNK16IOKernelDebugger12handleIsOpenEPK9IOService
__ZNK16IOKernelDebugger9MetaClass5allocEv
__ZNK18IOBasicOutputQueue11getCapacityEv
__ZNK18IOBasicOutputQueue12getMetaClassEv
__ZNK18IOBasicOutputQueue17getStatisticsDataEv
__ZNK18IOBasicOutputQueue7getSizeEv
__ZNK18IOBasicOutputQueue8getStateEv
__ZNK18IOBasicOutputQueue9MetaClass5allocEv
__ZNK18IOGatedOutputQueue12getMetaClassEv
__ZNK18IOGatedOutputQueue9MetaClass5allocEv
__ZNK18IOMbufMemoryCursor12getMetaClassEv
__ZNK18IOMbufMemoryCursor9MetaClass5allocEv
__ZNK18IONetworkInterface12getMetaClassEv
__ZNK18IONetworkInterface12getParameterEPKc
__ZNK18IONetworkInterface12handleIsOpenEPK9IOService
__ZNK18IONetworkInterface12isRegisteredEv
__ZNK18IONetworkInterface13getControllerEv
__ZNK18IONetworkInterface13getExtraFlagsEv
__ZNK18IONetworkInterface13getUnitNumberEv
__ZNK18IONetworkInterface14getNetworkDataEPK8OSSymbol
__ZNK18IONetworkInterface14getNetworkDataEPKc
__ZNK18IONetworkInterface15getLoggingLevelEj
__ZNK18IONetworkInterface15isBPFTapEnabledEj
__ZNK18IONetworkInterface16getInterfaceTypeEv
__ZNK18IONetworkInterface17getInterfaceStateEv
__ZNK18IONetworkInterface18getMaxTransferUnitEv
__ZNK18IONetworkInterface18isPrimaryInterfaceEv
__ZNK18IONetworkInterface19serializePropertiesEP11OSSerialize
__ZNK18IONetworkInterface20getMediaHeaderLengthEv
__ZNK18IONetworkInterface21getMediaAddressLengthEv
__ZNK18IONetworkInterface8getFlagsEv
__ZNK18IONetworkInterface8getIfnetEv
__ZNK18IONetworkInterface9MetaClass5allocEv
__ZNK19IOEthernetInterface12getMetaClassEv
__ZNK19IOEthernetInterface13getNamePrefixEv
__ZNK19IOEthernetInterface9MetaClass5allocEv
__ZNK19IONetworkController11getFeaturesEv
__ZNK19IONetworkController12getMetaClassEv
__ZNK19IONetworkController12handleIsOpenEPK9IOService
__ZNK19IONetworkController14getCommandGateEv
__ZNK19IONetworkController14getOutputQueueEv
__ZNK19IONetworkController14newModelStringEv
__ZNK19IONetworkController15newVendorStringEv
__ZNK19IONetworkController16getCommandClientEv
__ZNK19IONetworkController16getCurrentMediumEv
__ZNK19IONetworkController16getOutputHandlerEv
__ZNK19IONetworkController17getSelectedMediumEv
__ZNK19IONetworkController17newRevisionStringEv
__ZNK19IONetworkController19getMediumDictionaryEv
__ZNK19IONetworkController20copyMediumDictionaryEv
__ZNK19IONetworkController26getPacketBufferConstraintsEP25IOPacketBufferConstraints
__ZNK19IONetworkController9MetaClass5allocEv
__ZNK20IOEthernetController12getMetaClassEv
__ZNK20IOEthernetController13getAVBSupportEPNS_30IOEthernetControllerAVBSupportE
__ZNK20IOEthernetController16getMaxPacketSizeEPj
__ZNK20IOEthernetController16getMinPacketSizeEPj
__ZNK20IOEthernetController16getPacketFiltersEPK8OSSymbolPj
__ZNK20IOEthernetController16getPacketFiltersEPj
__ZNK20IOEthernetController21getControllerAVBStateEv
__ZNK20IOEthernetController29getTransmitQueuePacketLatencyEj
__ZNK20IOEthernetController29getTransmitQueuePrefetchDelayEj
__ZNK20IOEthernetController9MetaClass5allocEv
__ZNK21IOMbufBigMemoryCursor12getMetaClassEv
__ZNK21IOMbufBigMemoryCursor9MetaClass5allocEv
__ZNK24IOMbufLittleMemoryCursor12getMetaClassEv
__ZNK24IOMbufLittleMemoryCursor9MetaClass5allocEv
__ZNK25IOMbufNaturalMemoryCursor12getMetaClassEv
__ZNK25IOMbufNaturalMemoryCursor9MetaClass5allocEv
__ZTV13IONetworkData
__ZTV13IOOutputQueue
__ZTV13IOPacketQueue
__ZTV15IONetworkMedium
__ZTV16IOKernelDebugger
__ZTV18IOBasicOutputQueue
__ZTV18IOGatedOutputQueue
__ZTV18IOMbufMemoryCursor
__ZTV18IONetworkInterface
__ZTV19IOEthernetInterface
__ZTV19IONetworkController
__ZTV20IOEthernetController
__ZTV21IOMbufBigMemoryCursor
__ZTV24IOMbufLittleMemoryCursor
__ZTV25IOMbufNaturalMemoryCursor
__ZTVN13IONetworkData9MetaClassE
__ZTVN13IOOutputQueue9MetaClassE
__ZTVN13IOPacketQueue9MetaClassE
__ZTVN15IONetworkMedium9MetaClassE
__ZTVN16IOKernelDebugger9MetaClassE
__ZTVN18IOBasicOutputQueue9MetaClassE
__ZTVN18IOGatedOutputQueue9MetaClassE
__ZTVN18IOMbufMemoryCursor9MetaClassE
__ZTVN18IONetworkInterface9MetaClassE
__ZTVN19IOEthernetInterface9MetaClassE
__ZTVN19IONetworkController9MetaClassE
__ZTVN20IOEthernetController9MetaClassE
__ZTVN21IOMbufBigMemoryCursor9MetaClassE
__ZTVN24IOMbufLittleMemoryCursor9MetaClassE
__ZTVN25IOMbufNaturalMemoryCursor9MetaClassE
_gIOEthernetDisabledWakeOnLANFilterGroup
_gIOEthernetWakeOnLANFilterGroup
_gIONetworkFilterGroup
