string-inst.o:__ZNSs6appendEPKcm
ProjectBuilderMasterObjectFile.o:__ZN28KerberosFrameworkInitializerC1Ev
ProjectBuilderMasterObjectFile.o:__ZN28KerberosFrameworkInitializerC4Ev
ProjectBuilderMasterObjectFile.o:_Shlib_InitializeResources
dylib1.o:dyld_stub_binding_helper
ProjectBuilderMasterObjectFile.o:_KerberosErrorsInit
ProjectBuilderMasterObjectFile.o:_KerberosProfileInit
ProjectBuilderMasterObjectFile.o:_Kerberos4Init
ProjectBuilderMasterObjectFile.o:_UpdateDefaultCache
ProjectBuilderMasterObjectFile.o:_cc_initialize
ProjectBuilderMasterObjectFile.o:__Z15CCIValidPointerPKv
ProjectBuilderMasterObjectFile.o:__ZN18CCIAbstractFactory13GetTheFactoryEv
ProjectBuilderMasterObjectFile.o:__ZN18CCIAbstractFactory11MakeFactoryEv
new_op.o:__Znwm
ProjectBuilderMasterObjectFile.o:__ZN25CCIContextDataMachIPCStubC1Ei
ProjectBuilderMasterObjectFile.o:__ZN25CCIContextDataMachIPCStubC4Ei
ProjectBuilderMasterObjectFile.o:__ZN14CCIMachIPCStubC2Ev
ProjectBuilderMasterObjectFile.o:__ZN14CCIMachIPCStubC4Ev
ProjectBuilderMasterObjectFile.o:__ZNK25CCIContextDataMachIPCStub18GetGlobalContextIDEv
ProjectBuilderMasterObjectFile.o:__ZNK14CCIMachIPCStub15GetPortNoLaunchEv
ProjectBuilderMasterObjectFile.o:_mach_client_lookup_server
ProjectBuilderMasterObjectFile.o:_LoginSessionGetSessionUID
ProjectBuilderMasterObjectFile.o:__Z23mach_create_server_namePKcjS0_
string-inst.o:__ZNSsC1EPKcRKSaIcE
string-inst.o:__ZNSsC4EPKcRKSaIcE
string-inst.o:__ZNSs12_S_constructIPKcEEPcT_S3_RKSaIcESt20forward_iterator_tag
string-inst.o:__ZNSs4_Rep9_S_createEmRKSaIcE
stl-inst.o:__ZNSt24__default_alloc_templateILb1ELi0EE5_LockC4Ev
stl-inst.o:__ZNSt24__default_alloc_templateILb1ELi0EE9_S_refillEm
stl-inst.o:__ZNSt24__default_alloc_templateILb1ELi0EE14_S_chunk_allocEmRi
stl-inst.o:__ZNSt24__default_alloc_templateILb1ELi0EE5_LockD4Ev
string-inst.o:__ZNSs12_Alloc_hiderC4EPcRKSaIcE
string-inst.o:__ZNSs7reserveEm
string-inst.o:__ZNKSs13get_allocatorEv
string-inst.o:__ZNSs4_Rep8_M_cloneERKSaIcEm
string-inst.o:__ZNSs4_Rep10_M_destroyERKSaIcE
string-inst.o:__ZNKSs7_M_iendEv
string-inst.o:__ZNSs15_M_replace_safeIPKcEERSsN9__gnu_cxx17__normal_iteratorIPcSsEES6_T_S7_
string-inst.o:__ZNSs9_M_mutateEmmm
ProjectBuilderMasterObjectFile.o:_LoginSessionGetSessionName
string-inst.o:__ZNSsC1ERKSs
string-inst.o:__ZNSsC4ERKSs
string-inst.o:__ZNSs4_Rep10_M_disposeERKSaIcE
locale.o:__ZNSt6locale2idC1Ev
locale.o:__ZNSt6locale2idC4Ev
locale.o:__ZNSt6localeC1Ev
locale.o:__ZNSt6localeC4Ev
locale.o:__ZNSt6locale7classicEv
localename.o:__ZNSt6locale5_ImplC1EPPNS_5facetEmb
localename.o:__ZNSt6locale5_ImplC4EPPNS_5facetEmb
locale.o:__ZNSt5ctypeIcEC1EPKmbm
locale.o:__ZNSt5ctypeIcEC4EPKmbm
locale.o:__ZNSt6locale5facetC2Em
locale.o:__ZNSt6locale5facetC4Em
c++locale.o:__ZNSt6locale5facet18_S_create_c_localeERPiPKcS1_
locale.o:__ZNSt5ctypeIcE13classic_tableEv
localename.o:__ZNSt6locale5_Impl16_M_install_facetEPKNS_2idEPNS_5facetE
codecvt.o:__ZNSt7codecvtIcc9mbstate_tEC1Em
codecvt.o:__ZNSt7codecvtIcc9mbstate_tEC4Em
numeric.o:__ZNSt8numpunctIcE22_M_initialize_numpunctEPi
monetary.o:__ZNSt10moneypunctIcLb0EE24_M_initialize_moneypunctEPi
monetary.o:__ZNSt10moneypunctIcLb1EE24_M_initialize_moneypunctEPi
time.o:__ZNSt11__timepunctIcE23_M_initialize_timepunctEPi
locale.o:__ZNSt6localeC1EPNS_5_ImplE
locale.o:__ZNSt6localeC4EPNS_5_ImplE
misc-inst.o:__ZNSt13basic_filebufIcSt11char_traitsIcEEC4EP7__sFILESt13_Ios_Openmodei
basic_file.o:__ZNSt12__basic_fileIcEC1EP23_opaque_pthread_mutex_t
basic_file.o:__ZNSt12__basic_fileIcEC4EP23_opaque_pthread_mutex_t
basic_file.o:__ZNSt12__basic_fileIcE8sys_openEP7__sFILESt13_Ios_Openmode
basic_file.o:__ZNKSt12__basic_fileIcE7is_openEv
ios.o:__ZNSt8ios_base4Init13_S_ios_createEb
misc-inst.o:__ZNSt13basic_filebufIcSt11char_traitsIcEEC1EP7__sFILESt13_Ios_Openmodei
misc-inst.o:__ZNSt13basic_filebufIcSt11char_traitsIcEE27_M_allocate_internal_bufferEv
misc-inst.o:__ZNSt15basic_streambufIcSt11char_traitsIcEE20_M_set_indeterminateEv
misc-inst.o:__ZNSt15basic_streambufIcSt11char_traitsIcEE4setgEPcS3_S3_
ios.o:__ZNSt8ios_baseC2Ev
ios.o:__ZNSt8ios_baseC4Ev
misc-inst.o:__ZNSt9basic_iosIcSt11char_traitsIcEE4initEPSt15basic_streambufIcS1_E
ios.o:__ZNSt8ios_base7_M_initEv
locale.o:__ZNSt6localeaSERKS_
locale.o:__ZNSt6localeD1Ev
locale.o:__ZNSt6localeD4Ev
misc-inst.o:__ZNSt9basic_iosIcSt11char_traitsIcEE15_M_cache_facetsERKSt6locale
locale-inst.o:__ZSt9has_facetISt5ctypeIcEEbRKSt6locale
locale.o:__ZSt9use_facetISt5ctypeIcEERKT_RKSt6locale
locale-inst.o:__ZSt9has_facetISt7num_putIcSt19ostreambuf_iteratorIcSt11char_traitsIcEEEEbRKSt6locale
locale-inst.o:__ZSt9use_facetISt7num_putIcSt19ostreambuf_iteratorIcSt11char_traitsIcEEEERKT_RKSt6locale
locale-inst.o:__ZSt9has_facetISt7num_getIcSt19istreambuf_iteratorIcSt11char_traitsIcEEEEbRKSt6locale
locale-inst.o:__ZSt9use_facetISt7num_getIcSt19istreambuf_iteratorIcSt11char_traitsIcEEEERKT_RKSt6locale
ios.o:__ZNSt8ios_base4InitC4Ev
ios.o:__ZNSt8ios_base4InitC1Ev
ProjectBuilderMasterObjectFile.o:__ZN14UCCacheContextC1Ev
ProjectBuilderMasterObjectFile.o:__ZN14UCCacheContextC4Ev

