Certificate:
    Data:
        Version: 3 (0x2)
        Serial Number: 101 (0x65)
        Signature Algorithm: sha1WithRSAEncryption
        Issuer: C=US, O=Apple Computer, Inc., OU=Apple Computer Certificate Authority, CN=Apple Software Update Certificate Authority
        Validity
            Not Before: Feb 10 18:55:34 2005 GMT
            Not After : Feb 10 18:55:34 2007 GMT
        Subject: C=US, O=Apple Computer, Inc., OU=Apple Computer Software Update, CN=Security Update
        Subject Public Key Info:
            Public Key Algorithm: rsaEncryption
            RSA Public Key: (1024 bit)
                Modulus (1024 bit):
                    00:df:2c:ae:16:89:2f:56:3d:46:5a:86:d7:50:c3:
                    14:ee:64:39:63:ae:05:a5:5f:c8:7a:df:cd:b0:70:
                    dc:c7:56:87:31:8a:19:a7:97:45:20:8f:e8:94:5a:
                    9b:ca:fe:98:0b:d5:53:63:7e:b5:e8:a1:74:00:fb:
                    07:1f:fb:ed:0c:3c:d2:40:25:d9:44:41:c9:4c:cd:
                    f0:93:8b:60:52:39:d6:31:6a:10:13:d7:84:ff:80:
                    33:63:d8:99:41:98:35:97:25:a5:d7:50:26:65:63:
                    16:32:82:73:1f:f0:80:87:a5:70:8f:2c:92:12:25:
                    25:b9:9f:35:a6:89:60:b7:7f
                Exponent: 65537 (0x10001)
        X509v3 extensions:
            X509v3 Key Usage: critical
                Digital Signature
            X509v3 Extended Key Usage: 
                Apple Code Signing
            X509v3 Basic Constraints: critical
                CA:FALSE
            X509v3 Subject Key Identifier: 
                B8:B8:A1:D0:52:48:E8:5C:95:D7:46:7B:83:61:4B:32:A9:5E:85:23
            X509v3 Authority Key Identifier: 
                keyid:5E:21:5B:43:BD:5E:74:56:8A:D7:C7:E0:15:32:FD:0A:FD:E8:46:C2

            X509v3 Certificate Policies: 
                Policy: 1.2.840.113635.100.5.1
                  CPS: https://www.apple.com/certificateauthority/terms.html
                  User Notice:
                    Explicit Text: Reliance on this certificate by any party assumes acceptance of the then applicable standard terms and conditions of use, certificate policy and certification practice statements.

            X509v3 CRL Distribution Points: 
                URI:https://www.apple.com/certificateauthority/swupdate.crl

            Authority Information Access: 
                CA Issuers - URI:https://www.apple.com/certificateauthority/casigners.html

    Signature Algorithm: sha1WithRSAEncryption
        70:54:b0:e8:ea:c3:a4:7c:41:12:ee:56:38:dd:58:b9:a9:79:
        e3:79:a4:f7:e7:df:72:b5:6d:ed:a5:d8:0e:3b:4f:d9:6a:32:
        08:cb:5c:18:f9:9d:b8:d8:99:d7:14:f9:dc:1d:0f:84:d2:b3:
        21:0b:c0:3b:15:00:cc:e7:c5:58:f5:91:a3:fb:96:a4:44:b9:
        05:2d:3f:8d:63:53:b1:22:46:65:0c:c4:d4:f2:6b:43:54:47:
        d5:40:b5:0d:0c:b2:18:5b:70:1d:d4:3a:52:58:78:7f:5e:38:
        15:9b:0d:23:a0:3e:b4:fe:d3:1a:1a:2e:82:8c:d2:24:4e:3f:
        d5:65:96:ae:3d:d3:68:0c:e2:39:94:ea:aa:1b:69:6d:ed:6e:
        5a:d5:c6:c2:31:1b:23:ac:b5:78:59:4c:c7:f8:a4:db:2f:0f:
        48:8f:29:30:18:9b:32:5f:2f:c8:94:6e:83:fe:9d:c1:47:bb:
        37:d1:85:2c:d3:8e:b8:e2:cb:7b:3e:ab:b4:28:2a:66:63:ce:
        00:d4:60:2e:d3:9c:0e:50:fe:cb:0c:2c:24:f9:73:1f:ac:10:
        de:ee:9c:9b:86:d9:46:98:bc:f2:f0:ae:e3:04:06:69:49:fb:
        56:c7:bd:17:76:b7:6b:fa:32:77:3c:50:5c:c0:ce:fa:b7:93:
        b3:c4:e2:c9
-----BEGIN CERTIFICATE-----
MIIFQDCCBCigAwIBAgIBZTANBgkqhkiG9w0BAQUFADCBkTELMAkGA1UEBhMCVVMx
HTAbBgNVBAoTFEFwcGxlIENvbXB1dGVyLCBJbmMuMS0wKwYDVQQLEyRBcHBsZSBD
b21wdXRlciBDZXJ0aWZpY2F0ZSBBdXRob3JpdHkxNDAyBgNVBAMTK0FwcGxlIFNv
ZnR3YXJlIFVwZGF0ZSBDZXJ0aWZpY2F0ZSBBdXRob3JpdHkwHhcNMDUwMjEwMTg1
NTM0WhcNMDcwMjEwMTg1NTM0WjBvMQswCQYDVQQGEwJVUzEdMBsGA1UEChMUQXBw
bGUgQ29tcHV0ZXIsIEluYy4xJzAlBgNVBAsTHkFwcGxlIENvbXB1dGVyIFNvZnR3
YXJlIFVwZGF0ZTEYMBYGA1UEAxMPU2VjdXJpdHkgVXBkYXRlMIGfMA0GCSqGSIb3
DQEBAQUAA4GNADCBiQKBgQDfLK4WiS9WPUZahtdQwxTuZDljrgWlX8h6382wcNzH
Vocxihmnl0Ugj+iUWpvK/pgL1VNjfrXooXQA+wcf++0MPNJAJdlEQclMzfCTi2BS
OdYxahAT14T/gDNj2JlBmDWXJaXXUCZlYxYygnMf8ICHpXCPLJISJSW5nzWmiWC3
fwIDAQABo4ICRjCCAkIwDgYDVR0PAQH/BAQDAgeAMBQGA1UdJQQNMAsGCSqGSIb3
Y2QEATAMBgNVHRMBAf8EAjAAMB0GA1UdDgQWBBS4uKHQUkjoXJXXRnuDYUsyqV6F
IzAfBgNVHSMEGDAWgBReIVtDvV50VorXx+AVMv0K/ehGwjCCASkGA1UdIASCASAw
ggEcMIIBGAYJKoZIhvdjZAUBMIIBCTBBBggrBgEFBQcCARY1aHR0cHM6Ly93d3cu
YXBwbGUuY29tL2NlcnRpZmljYXRlYXV0aG9yaXR5L3Rlcm1zLmh0bWwwgcMGCCsG
AQUFBwICMIG2GoGzUmVsaWFuY2Ugb24gdGhpcyBjZXJ0aWZpY2F0ZSBieSBhbnkg
cGFydHkgYXNzdW1lcyBhY2NlcHRhbmNlIG9mIHRoZSB0aGVuIGFwcGxpY2FibGUg
c3RhbmRhcmQgdGVybXMgYW5kIGNvbmRpdGlvbnMgb2YgdXNlLCBjZXJ0aWZpY2F0
ZSBwb2xpY3kgYW5kIGNlcnRpZmljYXRpb24gcHJhY3RpY2Ugc3RhdGVtZW50cy4w
SAYDVR0fBEEwPzA9oDugOYY3aHR0cHM6Ly93d3cuYXBwbGUuY29tL2NlcnRpZmlj
YXRlYXV0aG9yaXR5L3N3dXBkYXRlLmNybDBVBggrBgEFBQcBAQRJMEcwRQYIKwYB
BQUHMAKGOWh0dHBzOi8vd3d3LmFwcGxlLmNvbS9jZXJ0aWZpY2F0ZWF1dGhvcml0
eS9jYXNpZ25lcnMuaHRtbDANBgkqhkiG9w0BAQUFAAOCAQEAcFSw6OrDpHxBEu5W
ON1Yual543mk9+ffcrVt7aXYDjtP2WoyCMtcGPmduNiZ1xT53B0PhNKzIQvAOxUA
zOfFWPWRo/uWpES5BS0/jWNTsSJGZQzE1PJrQ1RH1UC1DQyyGFtwHdQ6Ulh4f144
FZsNI6A+tP7TGhougozSJE4/1WWWrj3TaAziOZTqqhtpbe1uWtXGwjEbI6y1eFlM
x/ik2y8PSI8pMBibMl8vyJRug/6dwUe7N9GFLNOOuOLLez6rtCgqZmPOANRgLtOc
DlD+ywwsJPlzH6wQ3u6cm4bZRpi88vCu4wQGaUn7Vse9F3a3a/oydzxQXMDO+reT
s8TiyQ==
-----END CERTIFICATE-----
