Certificate:
    Data:
        Version: 3 (0x2)
        Serial Number: 102 (0x66)
        Signature Algorithm: sha1WithRSAEncryption
        Issuer: C=US, O=Apple Computer, Inc., OU=Apple Computer Certificate Authority, CN=Apple Software Update Certificate Authority
        Validity
            Not Before: Feb 10 18:55:36 2005 GMT
            Not After : Feb 10 18:55:36 2007 GMT
        Subject: C=US, O=Apple Computer, Inc., OU=Apple Computer Software Update, CN=Sherlock
        Subject Public Key Info:
            Public Key Algorithm: rsaEncryption
            RSA Public Key: (1024 bit)
                Modulus (1024 bit):
                    00:e9:35:95:82:34:0d:c8:79:a0:6f:78:a7:e6:9f:
                    69:d3:c8:2c:92:86:50:2b:c4:29:53:b6:1d:fa:97:
                    88:59:eb:68:d9:a9:83:a3:67:82:91:4c:99:20:24:
                    a1:80:60:1f:1a:20:f2:04:15:6b:79:66:4d:d7:af:
                    3c:04:f6:b4:0d:d8:92:d3:20:52:a6:7c:14:a2:5d:
                    6c:b0:64:87:fc:12:5a:33:c3:e8:73:8f:93:f1:e0:
                    51:58:87:5d:07:8e:fa:04:cc:a4:f7:ea:9f:cd:dd:
                    6e:68:23:9c:5c:0d:dc:30:1e:4a:21:d7:ab:6a:65:
                    0b:80:24:7c:cf:19:7f:44:99
                Exponent: 65537 (0x10001)
        X509v3 extensions:
            X509v3 Key Usage: critical
                Digital Signature
            X509v3 Extended Key Usage: 
                Apple Code Signing
            X509v3 Basic Constraints: critical
                CA:FALSE
            X509v3 Subject Key Identifier: 
                EE:E7:02:1F:F8:46:A3:D7:15:1A:51:8B:F8:C1:1C:35:47:23:29:BC
            X509v3 Authority Key Identifier: 
                keyid:5E:21:5B:43:BD:5E:74:56:8A:D7:C7:E0:15:32:FD:0A:FD:E8:46:C2

            X509v3 Certificate Policies: 
                Policy: 1.2.840.113635.100.5.1
                  CPS: https://www.apple.com/certificateauthority/terms.html
                  User Notice:
                    Explicit Text: Reliance on this certificate by any party assumes acceptance of the then applicable standard terms and conditions of use, certificate policy and certification practice statements.

            X509v3 CRL Distribution Points: 
                URI:https://www.apple.com/certificateauthority/swupdate.crl

            Authority Information Access: 
                CA Issuers - URI:https://www.apple.com/certificateauthority/casigners.html

    Signature Algorithm: sha1WithRSAEncryption
        c1:1d:87:7f:61:c4:b0:a8:7d:1d:87:fa:48:4c:c4:77:cd:ba:
        46:2e:63:d0:41:e6:9c:c1:9c:57:15:26:4c:86:80:ff:68:d5:
        85:1e:d1:ce:67:2d:62:44:05:ec:7f:d0:0f:75:16:a9:f3:12:
        2e:7d:65:32:51:eb:26:17:25:80:f3:33:57:b0:3d:a9:89:e6:
        ac:69:68:08:7a:7a:db:34:61:2c:4f:a9:cd:54:b0:d2:3e:a9:
        bd:54:7a:cf:c0:a0:20:8e:61:52:0e:ba:77:21:f0:b4:91:ad:
        f7:45:ee:a0:62:93:3b:4d:b5:c2:01:1f:11:03:3e:eb:58:05:
        c7:44:7f:ae:be:fd:73:02:89:81:05:61:d2:62:00:8a:1b:e7:
        bd:4c:68:2d:72:4a:ad:f3:70:b4:c7:0d:fa:fb:69:3b:bd:21:
        5d:9d:b9:a5:cc:b7:11:ed:af:77:c0:7e:4a:98:8d:c3:48:82:
        8d:97:6f:35:c8:f7:48:d5:cd:8b:7c:4c:d5:72:c4:0f:7d:de:
        c9:f1:7a:d6:87:ab:39:14:db:16:7e:64:37:50:ce:bf:d9:7b:
        03:9d:ae:e8:64:bd:31:85:3d:63:53:a3:e6:ea:14:07:82:f7:
        10:aa:9c:38:92:cd:2c:1d:46:33:5f:50:41:82:6a:11:ee:78:
        42:c1:16:84
-----BEGIN CERTIFICATE-----
MIIFOTCCBCGgAwIBAgIBZjANBgkqhkiG9w0BAQUFADCBkTELMAkGA1UEBhMCVVMx
HTAbBgNVBAoTFEFwcGxlIENvbXB1dGVyLCBJbmMuMS0wKwYDVQQLEyRBcHBsZSBD
b21wdXRlciBDZXJ0aWZpY2F0ZSBBdXRob3JpdHkxNDAyBgNVBAMTK0FwcGxlIFNv
ZnR3YXJlIFVwZGF0ZSBDZXJ0aWZpY2F0ZSBBdXRob3JpdHkwHhcNMDUwMjEwMTg1
NTM2WhcNMDcwMjEwMTg1NTM2WjBoMQswCQYDVQQGEwJVUzEdMBsGA1UEChMUQXBw
bGUgQ29tcHV0ZXIsIEluYy4xJzAlBgNVBAsTHkFwcGxlIENvbXB1dGVyIFNvZnR3
YXJlIFVwZGF0ZTERMA8GA1UEAxMIU2hlcmxvY2swgZ8wDQYJKoZIhvcNAQEBBQAD
gY0AMIGJAoGBAOk1lYI0Dch5oG94p+afadPILJKGUCvEKVO2HfqXiFnraNmpg6Nn
gpFMmSAkoYBgHxog8gQVa3lmTdevPAT2tA3YktMgUqZ8FKJdbLBkh/wSWjPD6HOP
k/HgUViHXQeO+gTMpPfqn83dbmgjnFwN3DAeSiHXq2plC4AkfM8Zf0SZAgMBAAGj
ggJGMIICQjAOBgNVHQ8BAf8EBAMCB4AwFAYDVR0lBA0wCwYJKoZIhvdjZAQBMAwG
A1UdEwEB/wQCMAAwHQYDVR0OBBYEFO7nAh/4RqPXFRpRi/jBHDVHIym8MB8GA1Ud
IwQYMBaAFF4hW0O9XnRWitfH4BUy/Qr96EbCMIIBKQYDVR0gBIIBIDCCARwwggEY
BgkqhkiG92NkBQEwggEJMEEGCCsGAQUFBwIBFjVodHRwczovL3d3dy5hcHBsZS5j
b20vY2VydGlmaWNhdGVhdXRob3JpdHkvdGVybXMuaHRtbDCBwwYIKwYBBQUHAgIw
gbYagbNSZWxpYW5jZSBvbiB0aGlzIGNlcnRpZmljYXRlIGJ5IGFueSBwYXJ0eSBh
c3N1bWVzIGFjY2VwdGFuY2Ugb2YgdGhlIHRoZW4gYXBwbGljYWJsZSBzdGFuZGFy
ZCB0ZXJtcyBhbmQgY29uZGl0aW9ucyBvZiB1c2UsIGNlcnRpZmljYXRlIHBvbGlj
eSBhbmQgY2VydGlmaWNhdGlvbiBwcmFjdGljZSBzdGF0ZW1lbnRzLjBIBgNVHR8E
QTA/MD2gO6A5hjdodHRwczovL3d3dy5hcHBsZS5jb20vY2VydGlmaWNhdGVhdXRo
b3JpdHkvc3d1cGRhdGUuY3JsMFUGCCsGAQUFBwEBBEkwRzBFBggrBgEFBQcwAoY5
aHR0cHM6Ly93d3cuYXBwbGUuY29tL2NlcnRpZmljYXRlYXV0aG9yaXR5L2Nhc2ln
bmVycy5odG1sMA0GCSqGSIb3DQEBBQUAA4IBAQDBHYd/YcSwqH0dh/pITMR3zbpG
LmPQQeacwZxXFSZMhoD/aNWFHtHOZy1iRAXsf9APdRap8xIufWUyUesmFyWA8zNX
sD2pieasaWgIenrbNGEsT6nNVLDSPqm9VHrPwKAgjmFSDrp3IfC0ka33Re6gYpM7
TbXCAR8RAz7rWAXHRH+uvv1zAomBBWHSYgCKG+e9TGgtckqt83C0xw36+2k7vSFd
nbmlzLcR7a93wH5KmI3DSIKNl281yPdI1c2LfEzVcsQPfd7J8XrWh6s5FNsWfmQ3
UM6/2XsDna7oZL0xhT1jU6Pm6hQHgvcQqpw4ks0sHUYzX1BBgmoR7nhCwRaE
-----END CERTIFICATE-----
