Certificate:
    Data:
        Version: 3 (0x2)
        Serial Number: 104 (0x68)
        Signature Algorithm: sha1WithRSAEncryption
        Issuer: C=US, O=Apple Computer, Inc., OU=Apple Computer Certificate Authority, CN=Apple Software Update Certificate Authority
        Validity
            Not Before: Feb 10 18:55:40 2005 GMT
            Not After : Feb 10 18:55:40 2007 GMT
        Subject: C=US, O=Apple Computer, Inc., OU=Apple Computer Software Update, CN=Signed Update
        Subject Public Key Info:
            Public Key Algorithm: rsaEncryption
            RSA Public Key: (1024 bit)
                Modulus (1024 bit):
                    00:b6:e1:d1:0a:c0:25:12:5e:ef:76:2a:a6:4a:c7:
                    84:7c:00:71:0e:77:7a:1e:2a:75:69:d2:61:a9:3a:
                    43:15:a9:00:7f:45:aa:2c:0f:00:89:af:6e:af:3e:
                    60:8d:21:2b:5d:28:d7:48:63:16:df:4f:60:34:07:
                    a7:6a:30:bf:0b:12:bd:32:c9:77:5f:e5:de:c5:37:
                    9b:27:c9:d1:1d:40:5c:ea:ff:40:ab:76:15:41:85:
                    96:5f:d4:c9:53:e7:36:e9:e9:8a:07:09:e7:d6:a1:
                    e5:fe:ec:18:f7:91:ca:2a:5d:f6:d3:75:ab:6d:39:
                    e6:6e:b5:9b:fb:4f:ec:6b:57
                Exponent: 65537 (0x10001)
        X509v3 extensions:
            X509v3 Key Usage: critical
                Digital Signature
            X509v3 Extended Key Usage: 
                Apple Code Signing
            X509v3 Basic Constraints: critical
                CA:FALSE
            X509v3 Subject Key Identifier: 
                BC:25:56:53:1A:91:C0:99:1C:82:FB:C6:0D:0B:DB:AB:35:AD:75:3C
            X509v3 Authority Key Identifier: 
                keyid:5E:21:5B:43:BD:5E:74:56:8A:D7:C7:E0:15:32:FD:0A:FD:E8:46:C2

            X509v3 Certificate Policies: 
                Policy: 1.2.840.113635.100.5.1
                  CPS: https://www.apple.com/certificateauthority/terms.html
                  User Notice:
                    Explicit Text: Reliance on this certificate by any party assumes acceptance of the then applicable standard terms and conditions of use, certificate policy and certification practice statements.

            X509v3 CRL Distribution Points: 
                URI:https://www.apple.com/certificateauthority/swupdate.crl

            Authority Information Access: 
                CA Issuers - URI:https://www.apple.com/certificateauthority/casigners.html

    Signature Algorithm: sha1WithRSAEncryption
        be:8f:07:6d:58:35:e3:f3:13:7c:1d:1c:d1:7c:56:da:b3:a6:
        8f:68:f8:c5:cb:63:41:e5:93:69:4a:8d:fe:6a:4e:52:77:73:
        bf:ed:6b:89:91:d0:dc:b2:81:b3:37:4c:d5:2c:4c:0d:41:80:
        19:39:be:5c:5d:6d:4c:fe:3d:4b:22:a3:03:70:64:e8:d1:e2:
        e7:51:3f:d7:d3:fd:2d:d1:f3:35:bf:9a:0d:58:e3:6c:2d:a7:
        41:4a:13:44:0a:cd:aa:97:70:77:13:5e:98:41:56:cf:62:67:
        89:54:3c:9e:9a:52:36:83:a2:c6:28:db:a9:7e:41:66:92:88:
        a8:8b:66:28:c8:b1:dd:f6:cd:36:06:d6:89:0e:8d:46:82:a5:
        d9:75:ba:ac:a1:d6:60:4e:79:1e:cb:dc:88:70:c6:f1:25:91:
        90:4c:9f:db:8c:03:c0:c2:74:2f:88:4f:d2:43:06:3a:2c:a9:
        23:9f:17:c3:13:79:b6:20:5b:91:d8:f6:dc:64:9c:c1:48:b8:
        96:18:79:8f:65:0a:a3:0b:e2:14:b7:64:b6:ba:3d:9e:8a:13:
        f8:7a:f0:b5:d5:7e:c4:ef:77:d2:2d:12:ff:94:f6:1e:51:f1:
        f9:1c:6d:c0:78:13:ab:e1:b3:dd:99:1f:6e:23:cc:85:f3:0a:
        bd:84:fb:c8
-----BEGIN CERTIFICATE-----
MIIFPjCCBCagAwIBAgIBaDANBgkqhkiG9w0BAQUFADCBkTELMAkGA1UEBhMCVVMx
HTAbBgNVBAoTFEFwcGxlIENvbXB1dGVyLCBJbmMuMS0wKwYDVQQLEyRBcHBsZSBD
b21wdXRlciBDZXJ0aWZpY2F0ZSBBdXRob3JpdHkxNDAyBgNVBAMTK0FwcGxlIFNv
ZnR3YXJlIFVwZGF0ZSBDZXJ0aWZpY2F0ZSBBdXRob3JpdHkwHhcNMDUwMjEwMTg1
NTQwWhcNMDcwMjEwMTg1NTQwWjBtMQswCQYDVQQGEwJVUzEdMBsGA1UEChMUQXBw
bGUgQ29tcHV0ZXIsIEluYy4xJzAlBgNVBAsTHkFwcGxlIENvbXB1dGVyIFNvZnR3
YXJlIFVwZGF0ZTEWMBQGA1UEAxMNU2lnbmVkIFVwZGF0ZTCBnzANBgkqhkiG9w0B
AQEFAAOBjQAwgYkCgYEAtuHRCsAlEl7vdiqmSseEfABxDnd6Hip1adJhqTpDFakA
f0WqLA8Aia9urz5gjSErXSjXSGMW309gNAenajC/CxK9Msl3X+XexTebJ8nRHUBc
6v9Aq3YVQYWWX9TJU+c26emKBwnn1qHl/uwY95HKKl3203WrbTnmbrWb+0/sa1cC
AwEAAaOCAkYwggJCMA4GA1UdDwEB/wQEAwIHgDAUBgNVHSUEDTALBgkqhkiG92Nk
BAEwDAYDVR0TAQH/BAIwADAdBgNVHQ4EFgQUvCVWUxqRwJkcgvvGDQvbqzWtdTww
HwYDVR0jBBgwFoAUXiFbQ71edFaK18fgFTL9Cv3oRsIwggEpBgNVHSAEggEgMIIB
HDCCARgGCSqGSIb3Y2QFATCCAQkwQQYIKwYBBQUHAgEWNWh0dHBzOi8vd3d3LmFw
cGxlLmNvbS9jZXJ0aWZpY2F0ZWF1dGhvcml0eS90ZXJtcy5odG1sMIHDBggrBgEF
BQcCAjCBthqBs1JlbGlhbmNlIG9uIHRoaXMgY2VydGlmaWNhdGUgYnkgYW55IHBh
cnR5IGFzc3VtZXMgYWNjZXB0YW5jZSBvZiB0aGUgdGhlbiBhcHBsaWNhYmxlIHN0
YW5kYXJkIHRlcm1zIGFuZCBjb25kaXRpb25zIG9mIHVzZSwgY2VydGlmaWNhdGUg
cG9saWN5IGFuZCBjZXJ0aWZpY2F0aW9uIHByYWN0aWNlIHN0YXRlbWVudHMuMEgG
A1UdHwRBMD8wPaA7oDmGN2h0dHBzOi8vd3d3LmFwcGxlLmNvbS9jZXJ0aWZpY2F0
ZWF1dGhvcml0eS9zd3VwZGF0ZS5jcmwwVQYIKwYBBQUHAQEESTBHMEUGCCsGAQUF
BzAChjlodHRwczovL3d3dy5hcHBsZS5jb20vY2VydGlmaWNhdGVhdXRob3JpdHkv
Y2FzaWduZXJzLmh0bWwwDQYJKoZIhvcNAQEFBQADggEBAL6PB21YNePzE3wdHNF8
Vtqzpo9o+MXLY0Hlk2lKjf5qTlJ3c7/ta4mR0NyygbM3TNUsTA1BgBk5vlxdbUz+
PUsiowNwZOjR4udRP9fT/S3R8zW/mg1Y42wtp0FKE0QKzaqXcHcTXphBVs9iZ4lU
PJ6aUjaDosYo26l+QWaSiKiLZijIsd32zTYG1okOjUaCpdl1uqyh1mBOeR7L3Ihw
xvElkZBMn9uMA8DCdC+IT9JDBjosqSOfF8MTebYgW5HY9txknMFIuJYYeY9lCqML
4hS3ZLa6PZ6KE/h68LXVfsTvd9ItEv+U9h5R8fkcbcB4E6vhs92ZH24jzIXzCr2E
+8g=
-----END CERTIFICATE-----
