Certificate:
    Data:
        Version: 3 (0x2)
        Serial Number:
            2c:10:5b:40:8c:b3:1f:3c:c8:37:ae:60:be:7e:23:eb:1a:79:97
    Signature Algorithm: ecdsa-with-SHA256
        Issuer: CN=SecurityTest CA Cert (ECC)
        Validity
            Not Before: May 26 01:25:40 2018 GMT
            Not After : May 17 01:25:40 2055 GMT
        Subject: OU=SecurityTests Client Cert (RSA), CN=localhost
        Subject Public Key Info:
            Public Key Algorithm: rsaEncryption
                Public-Key: (2048 bit)
                Modulus:
                    00:a7:97:26:3d:78:29:db:d8:11:c9:b2:f6:be:36:
                    a3:e5:f1:a4:b3:ee:87:cd:bf:ba:b3:74:38:2a:de:
                    22:4c:a0:3e:cb:2a:bb:dd:8a:07:b9:f6:70:6d:6f:
                    27:09:4b:dd:f3:68:d4:93:5b:bf:40:4c:50:27:ad:
                    a7:8e:15:36:1b:f2:63:4e:50:69:c3:ba:f6:62:b3:
                    e7:69:1c:6a:f8:29:4a:8c:06:e3:87:58:8d:20:c5:
                    5c:d1:6d:68:b2:50:da:1a:e5:11:dc:6a:26:92:c5:
                    41:50:c6:d1:dc:7e:a1:87:27:7a:fb:0c:d8:fa:9e:
                    b5:33:55:e6:73:26:40:d8:7a:4b:7b:54:ed:4d:1d:
                    3d:71:ad:e5:06:49:c2:60:3a:d9:16:32:20:b4:6f:
                    c8:44:5a:c3:93:04:99:92:ae:4a:68:91:1d:20:c1:
                    68:4e:22:62:a9:c8:75:c9:92:21:e7:3d:72:41:e2:
                    9f:c1:f8:2f:e3:55:12:cd:f0:c1:db:ac:4b:e6:7d:
                    b2:ac:0b:fe:e1:f7:e0:3f:89:97:75:0c:51:b5:5a:
                    0c:06:12:3e:67:8f:7b:3c:8e:4d:af:c1:75:7b:94:
                    bf:38:ce:8c:70:bd:a9:a0:9d:ea:3f:37:5e:35:a0:
                    1c:6c:9d:cd:a9:b4:b0:fa:13:af:39:ff:14:9e:e1:
                    0b:b3
                Exponent: 65537 (0x10001)
        X509v3 extensions:
            X509v3 Basic Constraints: critical
                CA:FALSE
            X509v3 Key Usage: critical
                Digital Signature, Key Encipherment
            X509v3 Extended Key Usage: 
                TLS Web Server Authentication
            X509v3 Subject Alternative Name: 
                DNS:localhost
            X509v3 Subject Key Identifier: 
                EA:37:FA:FD:51:69:13:98:CF:A1:47:05:8B:A3:FA:C4:7D:D1:AB:8C
            X509v3 Authority Key Identifier: 
                keyid:2A:8E:DC:15:F2:1D:69:64:39:77:8F:EE:F4:6D:3F:34:D9:85:F0:8C

    Signature Algorithm: ecdsa-with-SHA256
         30:45:02:21:00:c2:ae:7d:05:21:72:fc:2a:ff:82:a2:8f:a7:
         b0:8d:9c:e1:cf:a4:8c:c9:7e:cc:25:65:be:cc:76:82:67:2f:
         32:02:20:48:c5:93:ad:61:3e:32:8b:56:a6:ea:c4:59:df:63:
         9d:ea:fa:49:01:b5:3a:2b:17:57:a9:c6:e0:57:de:45:67
-----BEGIN CERTIFICATE-----
MIICvjCCAmSgAwIBAgITLBBbQIyzHzzIN65gvn4j6xp5lzAKBggqhkjOPQQDAjAl
MSMwIQYDVQQDExpTZWN1cml0eVRlc3QgQ0EgQ2VydCAoRUNDKTAgFw0xODA1MjYw
MTI1NDBaGA8yMDU1MDUxNzAxMjU0MFowPjEoMCYGA1UECwwfU2VjdXJpdHlUZXN0
cyBDbGllbnQgQ2VydCAoUlNBKTESMBAGA1UEAwwJbG9jYWxob3N0MIIBIjANBgkq
hkiG9w0BAQEFAAOCAQ8AMIIBCgKCAQEAp5cmPXgp29gRybL2vjaj5fGks+6Hzb+6
s3Q4Kt4iTKA+yyq73YoHufZwbW8nCUvd82jUk1u/QExQJ62njhU2G/JjTlBpw7r2
YrPnaRxq+ClKjAbjh1iNIMVc0W1oslDaGuUR3GomksVBUMbR3H6hhyd6+wzY+p61
M1XmcyZA2HpLe1TtTR09ca3lBknCYDrZFjIgtG/IRFrDkwSZkq5KaJEdIMFoTiJi
qch1yZIh5z1yQeKfwfgv41USzfDB26xL5n2yrAv+4ffgP4mXdQxRtVoMBhI+Z497
PI5Nr8F1e5S/OM6McL2poJ3qPzdeNaAcbJ3NqbSw+hOvOf8UnuELswIDAQABo4GM
MIGJMAwGA1UdEwEB/wQCMAAwDgYDVR0PAQH/BAQDAgWgMBMGA1UdJQQMMAoGCCsG
AQUFBwMBMBQGA1UdEQQNMAuCCWxvY2FsaG9zdDAdBgNVHQ4EFgQU6jf6/VFpE5jP
oUcFi6P6xH3Rq4wwHwYDVR0jBBgwFoAUKo7cFfIdaWQ5d4/u9G0/NNmF8IwwCgYI
KoZIzj0EAwIDSAAwRQIhAMKufQUhcvwq/4Kij6ewjZzhz6SMyX7MJWW+zHaCZy8y
AiBIxZOtYT4yi1am6sRZ32Od6vpJAbU6KxdXqcbgV95FZw==
-----END CERTIFICATE-----
