Certificate:
    Data:
        Version: 3 (0x2)
        Serial Number:
            b9:18:42:fe:df:e7:25:9c:ce:fa:d7:d0:e8:56:e3:d5:d3:20:95
    Signature Algorithm: sha256WithRSAEncryption
        Issuer: CN=SecurityTest CA Cert (RSA)
        Validity
            Not Before: May 26 01:14:45 2018 GMT
            Not After : May 17 01:14:45 2055 GMT
        Subject: OU=SecurityTests Client Cert (RSA), CN=localhost
        Subject Public Key Info:
            Public Key Algorithm: rsaEncryption
                Public-Key: (2048 bit)
                Modulus:
                    00:a7:97:26:3d:78:29:db:d8:11:c9:b2:f6:be:36:
                    a3:e5:f1:a4:b3:ee:87:cd:bf:ba:b3:74:38:2a:de:
                    22:4c:a0:3e:cb:2a:bb:dd:8a:07:b9:f6:70:6d:6f:
                    27:09:4b:dd:f3:68:d4:93:5b:bf:40:4c:50:27:ad:
                    a7:8e:15:36:1b:f2:63:4e:50:69:c3:ba:f6:62:b3:
                    e7:69:1c:6a:f8:29:4a:8c:06:e3:87:58:8d:20:c5:
                    5c:d1:6d:68:b2:50:da:1a:e5:11:dc:6a:26:92:c5:
                    41:50:c6:d1:dc:7e:a1:87:27:7a:fb:0c:d8:fa:9e:
                    b5:33:55:e6:73:26:40:d8:7a:4b:7b:54:ed:4d:1d:
                    3d:71:ad:e5:06:49:c2:60:3a:d9:16:32:20:b4:6f:
                    c8:44:5a:c3:93:04:99:92:ae:4a:68:91:1d:20:c1:
                    68:4e:22:62:a9:c8:75:c9:92:21:e7:3d:72:41:e2:
                    9f:c1:f8:2f:e3:55:12:cd:f0:c1:db:ac:4b:e6:7d:
                    b2:ac:0b:fe:e1:f7:e0:3f:89:97:75:0c:51:b5:5a:
                    0c:06:12:3e:67:8f:7b:3c:8e:4d:af:c1:75:7b:94:
                    bf:38:ce:8c:70:bd:a9:a0:9d:ea:3f:37:5e:35:a0:
                    1c:6c:9d:cd:a9:b4:b0:fa:13:af:39:ff:14:9e:e1:
                    0b:b3
                Exponent: 65537 (0x10001)
        X509v3 extensions:
            X509v3 Basic Constraints: critical
                CA:FALSE
            X509v3 Key Usage: critical
                Digital Signature
            X509v3 Extended Key Usage: 
                TLS Web Client Authentication
            X509v3 Subject Key Identifier: 
                EA:37:FA:FD:51:69:13:98:CF:A1:47:05:8B:A3:FA:C4:7D:D1:AB:8C
            X509v3 Authority Key Identifier: 
                keyid:5D:A7:1B:3B:57:D2:0E:08:1E:AA:47:CF:03:34:68:BE:53:00:D9:64

    Signature Algorithm: sha256WithRSAEncryption
         b2:6a:95:8d:f8:09:c6:27:8a:bb:61:8a:a7:93:4d:d1:81:36:
         d8:2e:33:97:71:0a:36:26:2d:4f:3e:4d:89:78:67:a6:f8:79:
         40:be:ea:eb:64:9c:63:11:9a:f8:bd:e4:fb:e7:5a:91:39:a0:
         41:76:81:29:cd:92:7e:bc:02:3b:5d:40:fe:af:12:50:fb:6e:
         19:49:67:f2:1c:21:8d:4a:06:52:0d:fa:81:a9:6d:57:cf:c8:
         f0:52:99:44:a7:37:b2:80:c8:a9:90:60:89:35:47:1e:f1:ed:
         02:c0:68:2b:27:74:17:c8:55:b9:02:8c:f4:4d:bc:94:90:0a:
         45:34:f7:43:01:3c:b1:4b:d3:59:6c:cc:64:2e:de:8e:14:d0:
         bc:cb:11:d0:43:95:7d:56:5c:51:27:6f:4c:bb:c3:3b:7d:c9:
         95:09:60:5b:05:6a:9c:61:16:ab:28:d2:09:c3:4a:7d:ba:3e:
         52:e9:fa:18:c1:0c:88:83:bc:6e:7c:08:48:99:76:ea:08:8d:
         a9:5a:4b:31:b6:84:f7:fd:73:28:d6:fb:5e:99:6f:d7:22:5f:
         ad:0c:9b:f0:91:c7:d5:37:d1:21:11:0f:14:88:ea:4d:14:39:
         d0:92:4d:96:10:42:d7:5f:e2:d9:84:96:ce:bf:ab:3f:d0:2f:
         8b:9b:75:77
-----BEGIN CERTIFICATE-----
MIIDaDCCAlCgAwIBAgIUALkYQv7f5yWczvrX0OhW49XTIJUwDQYJKoZIhvcNAQEL
BQAwJTEjMCEGA1UEAxMaU2VjdXJpdHlUZXN0IENBIENlcnQgKFJTQSkwIBcNMTgw
NTI2MDExNDQ1WhgPMjA1NTA1MTcwMTE0NDVaMD4xKDAmBgNVBAsMH1NlY3VyaXR5
VGVzdHMgQ2xpZW50IENlcnQgKFJTQSkxEjAQBgNVBAMMCWxvY2FsaG9zdDCCASIw
DQYJKoZIhvcNAQEBBQADggEPADCCAQoCggEBAKeXJj14KdvYEcmy9r42o+XxpLPu
h82/urN0OCreIkygPssqu92KB7n2cG1vJwlL3fNo1JNbv0BMUCetp44VNhvyY05Q
acO69mKz52kcavgpSowG44dYjSDFXNFtaLJQ2hrlEdxqJpLFQVDG0dx+oYcnevsM
2PqetTNV5nMmQNh6S3tU7U0dPXGt5QZJwmA62RYyILRvyERaw5MEmZKuSmiRHSDB
aE4iYqnIdcmSIec9ckHin8H4L+NVEs3wwdusS+Z9sqwL/uH34D+Jl3UMUbVaDAYS
PmePezyOTa/BdXuUvzjOjHC9qaCd6j83XjWgHGydzam0sPoTrzn/FJ7hC7MCAwEA
AaN1MHMwDAYDVR0TAQH/BAIwADAOBgNVHQ8BAf8EBAMCB4AwEwYDVR0lBAwwCgYI
KwYBBQUHAwIwHQYDVR0OBBYEFOo3+v1RaROYz6FHBYuj+sR90auMMB8GA1UdIwQY
MBaAFF2nGztX0g4IHqpHzwM0aL5TANlkMA0GCSqGSIb3DQEBCwUAA4IBAQCyapWN
+AnGJ4q7YYqnk03RgTbYLjOXcQo2Ji1PPk2JeGem+HlAvurrZJxjEZr4veT751qR
OaBBdoEpzZJ+vAI7XUD+rxJQ+24ZSWfyHCGNSgZSDfqBqW1Xz8jwUplEpzeygMip
kGCJNUce8e0CwGgrJ3QXyFW5Aoz0TbyUkApFNPdDATyxS9NZbMxkLt6OFNC8yxHQ
Q5V9VlxRJ29Mu8M7fcmVCWBbBWqcYRarKNIJw0p9uj5S6foYwQyIg7xufAhImXbq
CI2pWksxtoT3/XMo1vtemW/XIl+tDJvwkcfVN9EhEQ8UiOpNFDnQkk2WEELXX+LZ
hJbOv6s/0C+Lm3V3
-----END CERTIFICATE-----
