Certificate:
    Data:
        Version: 3 (0x2)
        Serial Number:
            2c:10:5b:40:8c:b3:1f:3c:c8:37:ae:60:be:7e:23:eb:1a:79:96
    Signature Algorithm: ecdsa-with-SHA256
        Issuer: CN=SecurityTest CA Cert (ECC)
        Validity
            Not Before: May 26 01:25:33 2018 GMT
            Not After : May 17 01:25:33 2055 GMT
        Subject: OU=SecurityTests Client Cert (ECC), CN=localhost
        Subject Public Key Info:
            Public Key Algorithm: id-ecPublicKey
                Public-Key: (256 bit)
                pub: 
                    04:10:73:9e:25:d4:2a:14:b0:ed:6c:a7:cd:5b:f5:
                    f2:34:36:4e:1f:52:30:53:b4:c6:8c:19:72:35:d5:
                    7d:8a:7a:87:50:d5:72:c2:ec:a6:ee:00:ef:a3:e8:
                    c5:7a:ec:c5:53:6f:20:6f:74:a1:11:d4:69:d0:68:
                    5d:1b:04:c3:01
                ASN1 OID: prime256v1
                NIST CURVE: P-256
        X509v3 extensions:
            X509v3 Basic Constraints: critical
                CA:FALSE
            X509v3 Key Usage: critical
                Digital Signature, Key Encipherment
            X509v3 Extended Key Usage: 
                TLS Web Server Authentication
            X509v3 Subject Alternative Name: 
                DNS:localhost
            X509v3 Subject Key Identifier: 
                91:13:09:3A:DE:84:E6:6E:80:4C:7D:E9:6C:F6:16:8A:24:7E:BC:B6
            X509v3 Authority Key Identifier: 
                keyid:2A:8E:DC:15:F2:1D:69:64:39:77:8F:EE:F4:6D:3F:34:D9:85:F0:8C

    Signature Algorithm: ecdsa-with-SHA256
         30:45:02:20:35:e7:6c:1f:fa:4c:0a:bf:9b:e9:ad:df:91:31:
         b7:b2:56:09:98:07:1f:f3:5f:fd:f1:71:8e:43:36:52:a5:f4:
         02:21:00:b9:78:65:4d:b3:25:11:64:f7:85:29:70:52:85:64:
         93:cd:d4:8d:a1:4e:fe:66:de:d3:35:cd:e4:90:e8:2e:7f
-----BEGIN CERTIFICATE-----
MIIB8zCCAZmgAwIBAgITLBBbQIyzHzzIN65gvn4j6xp5ljAKBggqhkjOPQQDAjAl
MSMwIQYDVQQDExpTZWN1cml0eVRlc3QgQ0EgQ2VydCAoRUNDKTAgFw0xODA1MjYw
MTI1MzNaGA8yMDU1MDUxNzAxMjUzM1owPjEoMCYGA1UECxMfU2VjdXJpdHlUZXN0
cyBDbGllbnQgQ2VydCAoRUNDKTESMBAGA1UEAxMJbG9jYWxob3N0MFkwEwYHKoZI
zj0CAQYIKoZIzj0DAQcDQgAEEHOeJdQqFLDtbKfNW/XyNDZOH1IwU7TGjBlyNdV9
inqHUNVywuym7gDvo+jFeuzFU28gb3ShEdRp0GhdGwTDAaOBjDCBiTAMBgNVHRMB
Af8EAjAAMA4GA1UdDwEB/wQEAwIFoDATBgNVHSUEDDAKBggrBgEFBQcDATAUBgNV
HREEDTALgglsb2NhbGhvc3QwHQYDVR0OBBYEFJETCTrehOZugEx96Wz2Fookfry2
MB8GA1UdIwQYMBaAFCqO3BXyHWlkOXeP7vRtPzTZhfCMMAoGCCqGSM49BAMCA0gA
MEUCIDXnbB/6TAq/m+mt35Ext7JWCZgHH/Nf/fFxjkM2UqX0AiEAuXhlTbMlEWT3
hSlwUoVkk83UjaFO/mbe0zXN5JDoLn8=
-----END CERTIFICATE-----
