Certificate:
    Data:
        Version: 3 (0x2)
        Serial Number:
            b9:18:42:fe:df:e7:25:9c:ce:fa:d7:d0:e8:56:e3:d5:d3:20:96
    Signature Algorithm: sha256WithRSAEncryption
        Issuer: CN=SecurityTest CA Cert (RSA)
        Validity
            Not Before: May 26 01:21:39 2018 GMT
            Not After : May 17 01:21:39 2055 GMT
        Subject: OU=SecurityTests Client Cert (ECC), CN=localhost
        Subject Public Key Info:
            Public Key Algorithm: id-ecPublicKey
                Public-Key: (256 bit)
                pub: 
                    04:10:73:9e:25:d4:2a:14:b0:ed:6c:a7:cd:5b:f5:
                    f2:34:36:4e:1f:52:30:53:b4:c6:8c:19:72:35:d5:
                    7d:8a:7a:87:50:d5:72:c2:ec:a6:ee:00:ef:a3:e8:
                    c5:7a:ec:c5:53:6f:20:6f:74:a1:11:d4:69:d0:68:
                    5d:1b:04:c3:01
                ASN1 OID: prime256v1
                NIST CURVE: P-256
        X509v3 extensions:
            X509v3 Basic Constraints: critical
                CA:FALSE
            X509v3 Key Usage: critical
                Digital Signature
            X509v3 Extended Key Usage: 
                TLS Web Client Authentication
            X509v3 Subject Key Identifier: 
                91:13:09:3A:DE:84:E6:6E:80:4C:7D:E9:6C:F6:16:8A:24:7E:BC:B6
            X509v3 Authority Key Identifier: 
                keyid:5D:A7:1B:3B:57:D2:0E:08:1E:AA:47:CF:03:34:68:BE:53:00:D9:64

    Signature Algorithm: sha256WithRSAEncryption
         49:e6:6c:0a:20:0f:cc:a2:7d:08:13:ae:f5:11:c5:9d:65:b0:
         f1:b8:21:b3:88:de:98:b8:b7:44:9f:81:0c:30:e4:5e:56:33:
         f8:6c:20:ab:45:62:8e:ad:49:e7:48:3a:1a:9f:8c:c3:b5:9c:
         3b:c6:ff:50:eb:3d:b1:7f:e9:9e:42:5c:27:ba:05:1e:7d:91:
         b1:1b:df:13:6b:77:0e:79:a5:46:22:65:62:3d:69:0f:67:f6:
         5e:b1:1d:a3:e7:c2:d0:22:75:01:f5:c8:49:31:a2:c5:c6:4b:
         00:fd:24:d2:5e:6d:ce:e0:38:3e:ed:4b:02:d8:df:0e:f7:0b:
         ab:c1:a9:4c:91:62:89:b3:48:39:a0:58:0c:e5:10:cb:4c:64:
         3b:87:46:cc:34:50:1e:64:3c:8d:91:5d:49:41:0b:4c:8f:00:
         57:e3:d7:ff:fc:b7:19:0a:5e:94:f7:9d:e2:38:9c:6d:e2:50:
         cf:fd:78:4f:a0:52:34:67:fb:b8:0a:07:a4:36:31:66:d8:72:
         90:d0:b1:67:a1:b9:6e:15:b5:b2:69:8d:7b:5d:f9:dd:66:52:
         7f:e2:bc:30:0d:37:29:8e:7d:49:d6:f4:f9:e9:c5:f9:b8:90:
         a2:61:63:71:a2:85:e2:db:69:d1:35:f2:2b:4c:cc:79:c0:87:
         00:d7:31:81
-----BEGIN CERTIFICATE-----
MIICnTCCAYWgAwIBAgIUALkYQv7f5yWczvrX0OhW49XTIJYwDQYJKoZIhvcNAQEL
BQAwJTEjMCEGA1UEAxMaU2VjdXJpdHlUZXN0IENBIENlcnQgKFJTQSkwIBcNMTgw
NTI2MDEyMTM5WhgPMjA1NTA1MTcwMTIxMzlaMD4xKDAmBgNVBAsTH1NlY3VyaXR5
VGVzdHMgQ2xpZW50IENlcnQgKEVDQykxEjAQBgNVBAMTCWxvY2FsaG9zdDBZMBMG
ByqGSM49AgEGCCqGSM49AwEHA0IABBBzniXUKhSw7WynzVv18jQ2Th9SMFO0xowZ
cjXVfYp6h1DVcsLspu4A76PoxXrsxVNvIG90oRHUadBoXRsEwwGjdTBzMAwGA1Ud
EwEB/wQCMAAwDgYDVR0PAQH/BAQDAgeAMBMGA1UdJQQMMAoGCCsGAQUFBwMCMB0G
A1UdDgQWBBSREwk63oTmboBMfels9haKJH68tjAfBgNVHSMEGDAWgBRdpxs7V9IO
CB6qR88DNGi+UwDZZDANBgkqhkiG9w0BAQsFAAOCAQEASeZsCiAPzKJ9CBOu9RHF
nWWw8bghs4jemLi3RJ+BDDDkXlYz+Gwgq0Vijq1J50g6Gp+Mw7WcO8b/UOs9sX/p
nkJcJ7oFHn2RsRvfE2t3DnmlRiJlYj1pD2f2XrEdo+fC0CJ1AfXISTGixcZLAP0k
0l5tzuA4Pu1LAtjfDvcLq8GpTJFiibNIOaBYDOUQy0xkO4dGzDRQHmQ8jZFdSUEL
TI8AV+PX//y3GQpelPed4jicbeJQz/14T6BSNGf7uAoHpDYxZthykNCxZ6G5bhW1
smmNe1353WZSf+K8MA03KY59Sdb0+enF+biQomFjcaKF4ttp0TXyK0zMecCHANcx
gQ==
-----END CERTIFICATE-----
