Certificate:
    Data:
        Version: 3 (0x2)
        Serial Number:
            b9:18:42:fe:df:e7:25:9c:ce:fa:d7:d0:e8:56:e3:d5:d3:20:93
    Signature Algorithm: sha256WithRSAEncryption
        Issuer: CN=SecurityTest CA Cert (RSA)
        Validity
            Not Before: May 25 23:48:38 2018 GMT
            Not After : May 16 23:48:38 2055 GMT
        Subject: OU=SecurityTests Server Cert (RSA), CN=localhost
        Subject Public Key Info:
            Public Key Algorithm: rsaEncryption
                Public-Key: (2048 bit)
                Modulus:
                    00:b1:d0:30:71:42:b1:df:f4:79:ea:e9:7a:ae:53:
                    c2:7f:a9:2e:5f:cc:a3:6e:96:0d:d1:42:2e:ba:da:
                    06:91:61:e6:10:63:b9:39:41:eb:06:e2:51:d2:65:
                    db:64:0d:2e:7f:a5:45:bb:0f:a8:26:17:45:66:b0:
                    7e:1c:44:4c:f6:5c:8f:fe:68:24:eb:73:c7:42:60:
                    d3:96:2a:e8:4e:3e:ac:61:36:5d:53:b2:31:ae:81:
                    12:00:20:48:89:6b:a5:50:2e:01:b9:5a:31:b6:55:
                    8e:14:2c:32:50:9e:44:a7:0e:61:26:ee:fc:22:0a:
                    e0:f5:af:68:1b:5f:ed:20:3d:61:59:38:00:8b:18:
                    39:fd:48:14:90:68:5d:3e:b8:bd:e1:25:6d:d4:dc:
                    c4:2b:cc:ec:51:2b:92:32:06:ac:58:25:a7:a6:6e:
                    12:9c:85:a2:6a:3a:2c:07:cb:f0:4a:47:85:14:1f:
                    1b:bd:c8:e6:54:b8:89:7c:1a:fa:bf:93:28:d4:65:
                    38:0d:f3:24:cf:14:f9:ff:0e:d3:e5:fd:5e:09:1a:
                    8a:e8:64:36:25:9d:ce:ae:bf:1b:74:b8:37:8b:d5:
                    00:59:14:e5:33:8f:f4:5c:33:23:2c:9f:64:1b:65:
                    9a:b2:f2:6a:cb:2a:a0:af:04:93:8f:66:f9:eb:2b:
                    4b:91
                Exponent: 65537 (0x10001)
        X509v3 extensions:
            X509v3 Basic Constraints: critical
                CA:FALSE
            X509v3 Key Usage: critical
                Digital Signature, Key Encipherment
            X509v3 Extended Key Usage: 
                TLS Web Server Authentication
            X509v3 Subject Alternative Name: 
                DNS:localhost
            X509v3 Subject Key Identifier: 
                C1:70:26:38:44:78:79:AB:FD:87:87:94:56:83:8C:C8:08:56:DB:98
            X509v3 Authority Key Identifier: 
                keyid:5D:A7:1B:3B:57:D2:0E:08:1E:AA:47:CF:03:34:68:BE:53:00:D9:64

    Signature Algorithm: sha256WithRSAEncryption
         2d:d1:12:47:d2:98:b6:1c:18:2a:58:f1:a1:e4:f9:aa:0d:9d:
         d5:bb:7d:de:e9:d2:7f:4e:68:aa:06:fd:da:5a:83:79:fd:5d:
         0a:d1:cd:f3:a3:bf:84:31:45:9a:3a:72:7a:57:5b:00:de:20:
         8b:63:30:3d:55:d1:af:2c:1e:fb:a1:ce:f6:c3:45:aa:4a:40:
         6b:38:f3:a6:43:36:b5:f5:cd:f8:0b:c2:f7:2f:02:73:a3:3b:
         cb:7f:98:15:af:d2:c9:1a:df:8e:2c:02:04:53:a7:7c:4d:6a:
         d9:0b:49:0c:9b:98:9d:1b:8c:2d:f3:9a:26:2f:e3:c6:cb:25:
         a2:4e:a7:8d:e6:71:07:b8:f2:ba:b5:bd:88:79:62:86:31:82:
         86:03:dc:af:87:ed:ba:6e:57:06:7e:96:a7:b4:e8:1f:56:d4:
         55:80:27:aa:d0:62:fd:22:ab:2e:37:0d:47:53:12:10:e5:3b:
         7c:c4:4a:0a:c0:1d:10:f0:cd:c2:fe:85:58:ac:74:fe:ec:5c:
         32:1e:18:f0:19:fc:91:21:71:67:d0:38:bb:7c:4d:5b:a5:cd:
         00:1d:4e:73:5b:e8:16:d5:29:8c:72:aa:a3:b5:5d:ee:84:b1:
         04:fb:0b:3d:4d:7c:0f:7e:63:bb:7d:17:a3:4a:ff:3e:e0:f6:
         b5:77:cc:3b
-----BEGIN CERTIFICATE-----
MIIDgDCCAmigAwIBAgIUALkYQv7f5yWczvrX0OhW49XTIJMwDQYJKoZIhvcNAQEL
BQAwJTEjMCEGA1UEAxMaU2VjdXJpdHlUZXN0IENBIENlcnQgKFJTQSkwIBcNMTgw
NTI1MjM0ODM4WhgPMjA1NTA1MTYyMzQ4MzhaMD4xKDAmBgNVBAsMH1NlY3VyaXR5
VGVzdHMgU2VydmVyIENlcnQgKFJTQSkxEjAQBgNVBAMMCWxvY2FsaG9zdDCCASIw
DQYJKoZIhvcNAQEBBQADggEPADCCAQoCggEBALHQMHFCsd/0eerpeq5Twn+pLl/M
o26WDdFCLrraBpFh5hBjuTlB6wbiUdJl22QNLn+lRbsPqCYXRWawfhxETPZcj/5o
JOtzx0Jg05Yq6E4+rGE2XVOyMa6BEgAgSIlrpVAuAblaMbZVjhQsMlCeRKcOYSbu
/CIK4PWvaBtf7SA9YVk4AIsYOf1IFJBoXT64veElbdTcxCvM7FErkjIGrFglp6Zu
EpyFomo6LAfL8EpHhRQfG73I5lS4iXwa+r+TKNRlOA3zJM8U+f8O0+X9Xgkaiuhk
NiWdzq6/G3S4N4vVAFkU5TOP9FwzIyyfZBtlmrLyassqoK8Ek49m+esrS5ECAwEA
AaOBjDCBiTAMBgNVHRMBAf8EAjAAMA4GA1UdDwEB/wQEAwIFoDATBgNVHSUEDDAK
BggrBgEFBQcDATAUBgNVHREEDTALgglsb2NhbGhvc3QwHQYDVR0OBBYEFMFwJjhE
eHmr/YeHlFaDjMgIVtuYMB8GA1UdIwQYMBaAFF2nGztX0g4IHqpHzwM0aL5TANlk
MA0GCSqGSIb3DQEBCwUAA4IBAQAt0RJH0pi2HBgqWPGh5PmqDZ3Vu33e6dJ/Tmiq
Bv3aWoN5/V0K0c3zo7+EMUWaOnJ6V1sA3iCLYzA9VdGvLB77oc72w0WqSkBrOPOm
Qza19c34C8L3LwJzozvLf5gVr9LJGt+OLAIEU6d8TWrZC0kMm5idG4wt85omL+PG
yyWiTqeN5nEHuPK6tb2IeWKGMYKGA9yvh+26blcGfpantOgfVtRVgCeq0GL9Iqsu
Nw1HUxIQ5Tt8xEoKwB0Q8M3C/oVYrHT+7FwyHhjwGfyRIXFn0Di7fE1bpc0AHU5z
W+gW1SmMcqqjtV3uhLEE+ws9TXwPfmO7fRejSv8+4Pa1d8w7
-----END CERTIFICATE-----
