Certificate:
    Data:
        Version: 3 (0x2)
        Serial Number:
            2c:10:5b:40:8c:b3:1f:3c:c8:37:ae:60:be:7e:23:eb:1a:79:94
    Signature Algorithm: ecdsa-with-SHA256
        Issuer: CN=SecurityTest CA Cert (ECC)
        Validity
            Not Before: May 26 01:25:05 2018 GMT
            Not After : May 17 01:25:05 2055 GMT
        Subject: OU=SecurityTests Server Cert (RSA), CN=localhost
        Subject Public Key Info:
            Public Key Algorithm: rsaEncryption
                Public-Key: (2048 bit)
                Modulus:
                    00:b1:d0:30:71:42:b1:df:f4:79:ea:e9:7a:ae:53:
                    c2:7f:a9:2e:5f:cc:a3:6e:96:0d:d1:42:2e:ba:da:
                    06:91:61:e6:10:63:b9:39:41:eb:06:e2:51:d2:65:
                    db:64:0d:2e:7f:a5:45:bb:0f:a8:26:17:45:66:b0:
                    7e:1c:44:4c:f6:5c:8f:fe:68:24:eb:73:c7:42:60:
                    d3:96:2a:e8:4e:3e:ac:61:36:5d:53:b2:31:ae:81:
                    12:00:20:48:89:6b:a5:50:2e:01:b9:5a:31:b6:55:
                    8e:14:2c:32:50:9e:44:a7:0e:61:26:ee:fc:22:0a:
                    e0:f5:af:68:1b:5f:ed:20:3d:61:59:38:00:8b:18:
                    39:fd:48:14:90:68:5d:3e:b8:bd:e1:25:6d:d4:dc:
                    c4:2b:cc:ec:51:2b:92:32:06:ac:58:25:a7:a6:6e:
                    12:9c:85:a2:6a:3a:2c:07:cb:f0:4a:47:85:14:1f:
                    1b:bd:c8:e6:54:b8:89:7c:1a:fa:bf:93:28:d4:65:
                    38:0d:f3:24:cf:14:f9:ff:0e:d3:e5:fd:5e:09:1a:
                    8a:e8:64:36:25:9d:ce:ae:bf:1b:74:b8:37:8b:d5:
                    00:59:14:e5:33:8f:f4:5c:33:23:2c:9f:64:1b:65:
                    9a:b2:f2:6a:cb:2a:a0:af:04:93:8f:66:f9:eb:2b:
                    4b:91
                Exponent: 65537 (0x10001)
        X509v3 extensions:
            X509v3 Basic Constraints: critical
                CA:FALSE
            X509v3 Key Usage: critical
                Digital Signature, Key Encipherment
            X509v3 Extended Key Usage: 
                TLS Web Server Authentication
            X509v3 Subject Alternative Name: 
                DNS:localhost
            X509v3 Subject Key Identifier: 
                C1:70:26:38:44:78:79:AB:FD:87:87:94:56:83:8C:C8:08:56:DB:98
            X509v3 Authority Key Identifier: 
                keyid:2A:8E:DC:15:F2:1D:69:64:39:77:8F:EE:F4:6D:3F:34:D9:85:F0:8C

    Signature Algorithm: ecdsa-with-SHA256
         30:45:02:20:1c:72:67:58:df:e3:e3:41:9b:ef:ba:dc:8f:18:
         4a:c8:84:9a:54:0c:7e:ad:ce:0b:89:9a:8b:9c:6f:3e:34:19:
         02:21:00:a3:25:87:af:fc:38:1e:0a:82:f5:bd:70:28:5c:17:
         fd:b9:03:3b:c3:7f:97:ca:ff:fe:49:70:1e:e7:55:14:c1
-----BEGIN CERTIFICATE-----
MIICvjCCAmSgAwIBAgITLBBbQIyzHzzIN65gvn4j6xp5lDAKBggqhkjOPQQDAjAl
MSMwIQYDVQQDExpTZWN1cml0eVRlc3QgQ0EgQ2VydCAoRUNDKTAgFw0xODA1MjYw
MTI1MDVaGA8yMDU1MDUxNzAxMjUwNVowPjEoMCYGA1UECwwfU2VjdXJpdHlUZXN0
cyBTZXJ2ZXIgQ2VydCAoUlNBKTESMBAGA1UEAwwJbG9jYWxob3N0MIIBIjANBgkq
hkiG9w0BAQEFAAOCAQ8AMIIBCgKCAQEAsdAwcUKx3/R56ul6rlPCf6kuX8yjbpYN
0UIuutoGkWHmEGO5OUHrBuJR0mXbZA0uf6VFuw+oJhdFZrB+HERM9lyP/mgk63PH
QmDTliroTj6sYTZdU7IxroESACBIiWulUC4BuVoxtlWOFCwyUJ5Epw5hJu78Igrg
9a9oG1/tID1hWTgAixg5/UgUkGhdPri94SVt1NzEK8zsUSuSMgasWCWnpm4SnIWi
ajosB8vwSkeFFB8bvcjmVLiJfBr6v5Mo1GU4DfMkzxT5/w7T5f1eCRqK6GQ2JZ3O
rr8bdLg3i9UAWRTlM4/0XDMjLJ9kG2WasvJqyyqgrwSTj2b56ytLkQIDAQABo4GM
MIGJMAwGA1UdEwEB/wQCMAAwDgYDVR0PAQH/BAQDAgWgMBMGA1UdJQQMMAoGCCsG
AQUFBwMBMBQGA1UdEQQNMAuCCWxvY2FsaG9zdDAdBgNVHQ4EFgQUwXAmOER4eav9
h4eUVoOMyAhW25gwHwYDVR0jBBgwFoAUKo7cFfIdaWQ5d4/u9G0/NNmF8IwwCgYI
KoZIzj0EAwIDSAAwRQIgHHJnWN/j40Gb77rcjxhKyISaVAx+rc4LiZqLnG8+NBkC
IQCjJYev/DgeCoL1vXAoXBf9uQM7w3+Xyv/+SXAe51UUwQ==
-----END CERTIFICATE-----
