Certificate:
    Data:
        Version: 3 (0x2)
        Serial Number:
            b9:18:42:fe:df:e7:25:9c:ce:fa:d7:d0:e8:56:e3:d5:d3:20:94
    Signature Algorithm: sha256WithRSAEncryption
        Issuer: CN=SecurityTest CA Cert (RSA)
        Validity
            Not Before: May 25 23:48:59 2018 GMT
            Not After : May 16 23:48:59 2055 GMT
        Subject: OU=SecurityTests Server Cert (ECC), CN=localhost
        Subject Public Key Info:
            Public Key Algorithm: id-ecPublicKey
                Public-Key: (256 bit)
                pub: 
                    04:2d:d9:4f:91:d0:70:46:ad:b7:29:02:54:a5:e0:
                    b0:a8:d1:58:b5:1f:a6:b1:bf:f9:5c:5d:30:ea:ac:
                    7d:76:dc:6b:57:84:2e:87:25:39:03:63:62:1f:1b:
                    a7:df:4e:f6:ed:8c:48:44:ed:8a:d8:52:5e:e5:42:
                    c3:5b:e6:01:2d
                ASN1 OID: prime256v1
                NIST CURVE: P-256
        X509v3 extensions:
            X509v3 Basic Constraints: critical
                CA:FALSE
            X509v3 Key Usage: critical
                Digital Signature, Key Encipherment
            X509v3 Extended Key Usage: 
                TLS Web Server Authentication
            X509v3 Subject Alternative Name: 
                DNS:localhost
            X509v3 Subject Key Identifier: 
                5A:27:76:15:E3:AA:09:29:08:95:B9:CF:D1:BF:47:40:13:2A:C6:FF
            X509v3 Authority Key Identifier: 
                keyid:5D:A7:1B:3B:57:D2:0E:08:1E:AA:47:CF:03:34:68:BE:53:00:D9:64

    Signature Algorithm: sha256WithRSAEncryption
         c3:87:06:61:77:9e:53:35:12:0f:4e:f8:8c:52:69:18:aa:b0:
         c5:27:b2:1c:7c:0c:be:04:f6:9e:2a:8e:fd:84:82:2d:ff:b7:
         64:17:3e:59:f2:d3:64:52:f1:6e:17:79:8e:ef:81:15:52:02:
         d3:6e:00:e6:da:90:50:4d:46:21:e4:3a:88:e6:87:59:5a:b6:
         da:ff:ed:0a:70:af:3c:48:50:c2:91:49:a5:80:41:89:81:ae:
         df:1c:6d:d6:0e:84:2c:f9:4f:82:8b:94:65:07:13:ed:2e:06:
         4d:2e:15:16:4c:15:bd:fb:14:35:d7:7e:81:94:68:8e:84:c0:
         30:0a:16:25:d8:f8:d9:73:e9:19:96:6c:a7:f7:ce:4a:53:0d:
         14:ee:a2:9d:45:3f:f7:a8:2f:5d:61:2f:11:ed:bd:84:36:b6:
         a3:76:1c:77:b8:ec:5e:52:be:90:4c:02:d3:fb:bd:a4:1f:49:
         d8:74:18:07:68:00:b8:01:91:88:75:3a:3f:78:69:00:4d:d9:
         09:3b:de:15:b7:5b:92:91:94:5b:f3:0f:1d:de:11:1c:84:c0:
         f1:70:50:24:ad:d0:d8:3e:46:98:67:d9:a5:6c:1f:41:90:4c:
         8a:71:60:ac:59:4e:1f:08:21:e1:16:83:b2:e6:1c:7f:1d:0b:
         fc:06:ac:05
-----BEGIN CERTIFICATE-----
MIICtTCCAZ2gAwIBAgIUALkYQv7f5yWczvrX0OhW49XTIJQwDQYJKoZIhvcNAQEL
BQAwJTEjMCEGA1UEAxMaU2VjdXJpdHlUZXN0IENBIENlcnQgKFJTQSkwIBcNMTgw
NTI1MjM0ODU5WhgPMjA1NTA1MTYyMzQ4NTlaMD4xKDAmBgNVBAsTH1NlY3VyaXR5
VGVzdHMgU2VydmVyIENlcnQgKEVDQykxEjAQBgNVBAMTCWxvY2FsaG9zdDBZMBMG
ByqGSM49AgEGCCqGSM49AwEHA0IABC3ZT5HQcEattykCVKXgsKjRWLUfprG/+Vxd
MOqsfXbca1eELoclOQNjYh8bp99O9u2MSETtithSXuVCw1vmAS2jgYwwgYkwDAYD
VR0TAQH/BAIwADAOBgNVHQ8BAf8EBAMCBaAwEwYDVR0lBAwwCgYIKwYBBQUHAwEw
FAYDVR0RBA0wC4IJbG9jYWxob3N0MB0GA1UdDgQWBBRaJ3YV46oJKQiVuc/Rv0dA
EyrG/zAfBgNVHSMEGDAWgBRdpxs7V9IOCB6qR88DNGi+UwDZZDANBgkqhkiG9w0B
AQsFAAOCAQEAw4cGYXeeUzUSD074jFJpGKqwxSeyHHwMvgT2niqO/YSCLf+3ZBc+
WfLTZFLxbhd5ju+BFVIC024A5tqQUE1GIeQ6iOaHWVq22v/tCnCvPEhQwpFJpYBB
iYGu3xxt1g6ELPlPgouUZQcT7S4GTS4VFkwVvfsUNdd+gZRojoTAMAoWJdj42XPp
GZZsp/fOSlMNFO6inUU/96gvXWEvEe29hDa2o3Ycd7jsXlK+kEwC0/u9pB9J2HQY
B2gAuAGRiHU6P3hpAE3ZCTveFbdbkpGUW/MPHd4RHITA8XBQJK3Q2D5GmGfZpWwf
QZBMinFgrFlOHwgh4RaDsuYcfx0L/AasBQ==
-----END CERTIFICATE-----
