Certificate:
    Data:
        Version: 3 (0x2)
        Serial Number:
            2c:10:5b:40:8c:b3:1f:3c:c8:37:ae:60:be:7e:23:eb:1a:79:95
    Signature Algorithm: ecdsa-with-SHA256
        Issuer: CN=SecurityTest CA Cert (ECC)
        Validity
            Not Before: May 26 01:25:20 2018 GMT
            Not After : May 17 01:25:20 2055 GMT
        Subject: OU=SecurityTests Server Cert (ECC), CN=localhost
        Subject Public Key Info:
            Public Key Algorithm: id-ecPublicKey
                Public-Key: (256 bit)
                pub: 
                    04:2d:d9:4f:91:d0:70:46:ad:b7:29:02:54:a5:e0:
                    b0:a8:d1:58:b5:1f:a6:b1:bf:f9:5c:5d:30:ea:ac:
                    7d:76:dc:6b:57:84:2e:87:25:39:03:63:62:1f:1b:
                    a7:df:4e:f6:ed:8c:48:44:ed:8a:d8:52:5e:e5:42:
                    c3:5b:e6:01:2d
                ASN1 OID: prime256v1
                NIST CURVE: P-256
        X509v3 extensions:
            X509v3 Basic Constraints: critical
                CA:FALSE
            X509v3 Key Usage: critical
                Digital Signature, Key Encipherment
            X509v3 Extended Key Usage: 
                TLS Web Server Authentication
            X509v3 Subject Alternative Name: 
                DNS:localhost
            X509v3 Subject Key Identifier: 
                5A:27:76:15:E3:AA:09:29:08:95:B9:CF:D1:BF:47:40:13:2A:C6:FF
            X509v3 Authority Key Identifier: 
                keyid:2A:8E:DC:15:F2:1D:69:64:39:77:8F:EE:F4:6D:3F:34:D9:85:F0:8C

    Signature Algorithm: ecdsa-with-SHA256
         30:44:02:20:51:82:14:47:09:3f:6c:d6:bc:81:3e:84:26:b4:
         f4:4f:99:cf:25:93:80:43:4b:b3:7f:36:0f:bb:da:77:43:6d:
         02:20:67:85:8f:8e:d7:ca:1f:25:24:30:09:0a:60:f1:ee:f7:
         04:8a:ef:9b:11:c8:ba:cc:db:06:d2:18:b2:48:60:35
-----BEGIN CERTIFICATE-----
MIIB8jCCAZmgAwIBAgITLBBbQIyzHzzIN65gvn4j6xp5lTAKBggqhkjOPQQDAjAl
MSMwIQYDVQQDExpTZWN1cml0eVRlc3QgQ0EgQ2VydCAoRUNDKTAgFw0xODA1MjYw
MTI1MjBaGA8yMDU1MDUxNzAxMjUyMFowPjEoMCYGA1UECxMfU2VjdXJpdHlUZXN0
cyBTZXJ2ZXIgQ2VydCAoRUNDKTESMBAGA1UEAxMJbG9jYWxob3N0MFkwEwYHKoZI
zj0CAQYIKoZIzj0DAQcDQgAELdlPkdBwRq23KQJUpeCwqNFYtR+msb/5XF0w6qx9
dtxrV4QuhyU5A2NiHxun30727YxIRO2K2FJe5ULDW+YBLaOBjDCBiTAMBgNVHRMB
Af8EAjAAMA4GA1UdDwEB/wQEAwIFoDATBgNVHSUEDDAKBggrBgEFBQcDATAUBgNV
HREEDTALgglsb2NhbGhvc3QwHQYDVR0OBBYEFFondhXjqgkpCJW5z9G/R0ATKsb/
MB8GA1UdIwQYMBaAFCqO3BXyHWlkOXeP7vRtPzTZhfCMMAoGCCqGSM49BAMCA0cA
MEQCIFGCFEcJP2zWvIE+hCa09E+ZzyWTgENLs382D7vad0NtAiBnhY+O18ofJSQw
CQpg8e73BIrvmxHIuszbBtIYskhgNQ==
-----END CERTIFICATE-----
