Certificate:
    Data:
        Version: 3 (0x2)
        Serial Number:
            3e:69:a0:98:7e:a1:7b:2f:1f:ea:6a:d7:e7:25:5e:b3:49:67:3a
    Signature Algorithm: sha256WithRSAEncryption
        Issuer: CN=SecurityTest CA Cert (RSA)
        Validity
            Not Before: May 26 01:29:08 2018 GMT
            Not After : May 17 01:29:08 2055 GMT
        Subject: OU=SecurityTests Client Cert (RSA)(Untrusted), CN=localhost
        Subject Public Key Info:
            Public Key Algorithm: rsaEncryption
                Public-Key: (2048 bit)
                Modulus:
                    00:b2:82:19:20:7d:6c:3c:65:e8:ba:37:36:0e:98:
                    d6:5d:cd:09:84:ef:d3:2c:c8:a5:7c:57:09:8c:8a:
                    23:16:53:fa:a9:98:d4:ed:fe:4c:f1:35:35:95:92:
                    cc:cd:12:86:5c:f5:ba:62:34:52:01:a7:3c:53:2b:
                    0e:83:07:a8:ad:d2:6a:58:ea:8c:ae:1b:6d:80:a7:
                    70:7e:d7:48:7d:47:1f:7a:7f:45:fc:c1:63:04:d6:
                    68:19:e2:4a:b9:ce:1d:6f:82:6f:3c:61:7b:29:6c:
                    92:75:27:3f:fd:af:91:6d:91:83:ea:73:ef:06:2f:
                    c5:e3:f6:9f:41:27:02:03:35:16:2a:da:b0:01:73:
                    12:3c:8b:83:24:f3:bf:6e:70:c7:b6:69:6d:c0:23:
                    21:65:e3:f9:94:fc:98:04:ae:87:4f:4a:5c:84:5e:
                    5b:50:6c:05:a4:6e:5d:6e:80:b2:6d:9e:59:d7:0e:
                    b1:fa:b6:41:a3:b3:a6:9c:b3:fc:cc:ea:8a:37:de:
                    9f:17:f3:a2:c6:4e:f0:67:d0:0c:bf:e3:52:22:4d:
                    91:9c:48:6c:cc:20:ac:b0:7a:06:79:e7:01:a7:c7:
                    75:0d:30:ad:ec:35:69:30:f4:b2:73:3c:3d:97:c8:
                    a0:62:d7:c1:f5:b5:36:1b:54:8a:56:a9:de:ca:6a:
                    9d:19
                Exponent: 65537 (0x10001)
        X509v3 extensions:
            X509v3 Basic Constraints: critical
                CA:FALSE
            X509v3 Key Usage: critical
                Digital Signature
            X509v3 Extended Key Usage: 
                TLS Web Client Authentication
            X509v3 Subject Key Identifier: 
                C4:64:B9:16:40:A6:81:7F:A0:26:36:C4:44:3A:C6:AE:21:26:86:A2
            X509v3 Authority Key Identifier: 
                keyid:83:C8:7C:54:9E:94:80:B4:14:5E:91:A6:1B:10:5F:74:E7:43:8A:3E

    Signature Algorithm: sha256WithRSAEncryption
         4c:ca:4d:9c:e6:ec:8b:54:70:49:d1:c1:c7:70:8b:59:42:ff:
         3e:bd:63:02:c7:8d:2d:32:8a:f5:f4:aa:c5:46:47:17:60:62:
         99:ea:32:03:e7:2b:c2:0f:e0:51:6a:5c:59:73:d0:1c:5c:37:
         bf:2f:18:fb:67:45:80:8e:96:6c:82:bb:6c:09:1c:2a:df:cc:
         de:77:e3:67:4a:53:b8:a4:a5:c6:f1:15:b9:f0:4a:5e:ae:52:
         c6:03:01:66:a9:1f:36:3d:ec:ae:6a:45:9b:0a:e6:56:d1:42:
         9b:a1:3b:b1:b4:76:82:88:7e:3c:3f:23:98:22:d7:16:0a:87:
         17:68:eb:8c:8f:07:c5:5c:9d:73:b6:c5:94:87:9e:58:1d:a3:
         15:33:33:e0:19:01:f5:4c:48:99:af:f1:ed:66:5f:14:99:7d:
         ba:77:ed:22:26:5f:6d:11:13:e6:48:92:01:0d:c1:27:42:77:
         e4:82:e8:05:a9:4c:c4:f0:5c:14:71:3a:86:ce:14:1e:ce:fe:
         fa:fd:ab:df:3b:49:4c:35:7f:3c:19:1b:d9:49:21:71:be:07:
         e7:98:78:40:36:8e:02:43:86:c6:a2:65:b0:7b:11:6f:97:ba:
         c7:82:5c:a6:75:be:69:4e:67:56:88:6c:1f:dd:72:f3:91:3d:
         c5:34:57:55
-----BEGIN CERTIFICATE-----
MIIDcjCCAlqgAwIBAgITPmmgmH6hey8f6mrX5yVes0lnOjANBgkqhkiG9w0BAQsF
ADAlMSMwIQYDVQQDExpTZWN1cml0eVRlc3QgQ0EgQ2VydCAoUlNBKTAgFw0xODA1
MjYwMTI5MDhaGA8yMDU1MDUxNzAxMjkwOFowSTEzMDEGA1UECwwqU2VjdXJpdHlU
ZXN0cyBDbGllbnQgQ2VydCAoUlNBKShVbnRydXN0ZWQpMRIwEAYDVQQDDAlsb2Nh
bGhvc3QwggEiMA0GCSqGSIb3DQEBAQUAA4IBDwAwggEKAoIBAQCyghkgfWw8Zei6
NzYOmNZdzQmE79MsyKV8VwmMiiMWU/qpmNTt/kzxNTWVkszNEoZc9bpiNFIBpzxT
Kw6DB6it0mpY6oyuG22Ap3B+10h9Rx96f0X8wWME1mgZ4kq5zh1vgm88YXspbJJ1
Jz/9r5FtkYPqc+8GL8Xj9p9BJwIDNRYq2rABcxI8i4Mk879ucMe2aW3AIyFl4/mU
/JgErodPSlyEXltQbAWkbl1ugLJtnlnXDrH6tkGjs6acs/zM6oo33p8X86LGTvBn
0Ay/41IiTZGcSGzMIKywegZ55wGnx3UNMK3sNWkw9LJzPD2XyKBi18H1tTYbVIpW
qd7Kap0ZAgMBAAGjdTBzMAwGA1UdEwEB/wQCMAAwDgYDVR0PAQH/BAQDAgeAMBMG
A1UdJQQMMAoGCCsGAQUFBwMCMB0GA1UdDgQWBBTEZLkWQKaBf6AmNsREOsauISaG
ojAfBgNVHSMEGDAWgBSDyHxUnpSAtBRekaYbEF9050OKPjANBgkqhkiG9w0BAQsF
AAOCAQEATMpNnObsi1RwSdHBx3CLWUL/Pr1jAseNLTKK9fSqxUZHF2BimeoyA+cr
wg/gUWpcWXPQHFw3vy8Y+2dFgI6WbIK7bAkcKt/M3nfjZ0pTuKSlxvEVufBKXq5S
xgMBZqkfNj3srmpFmwrmVtFCm6E7sbR2goh+PD8jmCLXFgqHF2jrjI8HxVydc7bF
lIeeWB2jFTMz4BkB9UxIma/x7WZfFJl9unftIiZfbRET5kiSAQ3BJ0J35ILoBalM
xPBcFHE6hs4UHs7++v2r3ztJTDV/PBkb2Ukhcb4H55h4QDaOAkOGxqJlsHsRb5e6
x4JcpnW+aU5nVohsH91y85E9xTRXVQ==
-----END CERTIFICATE-----
