issuer :/C=DE/ST=NRW/L=Essen/O=University of Essen/OU=SWT/CN=Fredj Dridi/Email=Fredj.Dridi@uni-essen.de
subject:/CN=Fredj Dridi/Email=fredj_dridi@yahoo.com
serial :02

Certificate:
    Data:
        Version: 3 (0x2)
        Serial Number: 2 (0x2)
        Signature Algorithm: md5WithRSAEncryption
        Issuer: C=DE, ST=NRW, L=Essen, O=University of Essen, OU=SWT, CN=Fredj Dridi/Email=Fredj.Dridi@uni-essen.de
        Validity
            Not Before: Apr 28 08:24:43 2000 GMT
            Not After : Apr 28 08:24:43 2001 GMT
        Subject: CN=Fredj Dridi/Email=fredj_dridi@yahoo.com
        Subject Public Key Info:
            Public Key Algorithm: rsaEncryption
            RSA Public Key: (1024 bit)
                Modulus (1024 bit):
                    00:e4:df:a7:f3:ed:61:df:30:ad:d9:6f:63:f2:d1:
                    85:9b:72:b2:c6:e4:fd:50:11:c5:0a:29:59:02:60:
                    29:f6:2c:6a:35:08:89:49:ad:d4:44:1d:7f:14:18:
                    61:4d:e8:66:87:30:01:52:cd:7d:16:72:0e:24:38:
                    19:a5:a7:dc:cf:7a:5d:79:ea:48:c6:c4:ae:52:a6:
                    94:36:7f:f3:24:43:b0:21:5a:f2:d5:6d:66:38:4c:
                    b7:7a:0e:ce:12:01:b0:46:4b:ea:08:b4:e0:aa:b8:
                    96:dc:3e:15:e0:24:92:84:1f:77:d0:8d:73:d2:f3:
                    ac:82:b0:61:60:1a:6a:fc:b9
                Exponent: 65537 (0x10001)
        X509v3 extensions:
            X509v3 Subject Alternative Name: 
                email:fredj_dridi@yahoo.com
            X509v3 Basic Constraints: critical
                CA:FALSE
            X509v3 Authority Key Identifier: 
                keyid:D2:B8:E3:2D:A2:5A:22:78:3A:38:F1:1F:F5:7C:AD:8D:A6:C4:41:0F

            X509v3 Extended Key Usage: 
                TLS Web Client Authentication, E-mail Protection
    Signature Algorithm: md5WithRSAEncryption
        01:88:26:35:b9:c7:c9:5a:90:ff:b8:9c:37:fa:48:0e:03:82:
        b4:18:df:49:e7:5d:42:3a:48:e3:e4:84:c7:b6:ef:cc:91:4c:
        47:9d:34:f9:51:0b:63:d0:35:f9:ad:a5:a9:3d:ef:75:23:0c:
        14:77:59:79:59:58:c8:74:df:01:b8:de:f2:78:47:64:1a:7e:
        4b:09:31:5e:f5:34:e2:ad:5e:e8:81:00:f1:af:fe:48:31:0b:
        a9:b1:4d:53:51:9a:15:1f:55:ba:30:e4:0e:02:05:20:4b:de:
        9c:d9:86:f1:e4:d9:18:c4:93:03:19:06:a5:f3:cb:2a:28:a0:
        fd:de

-----BEGIN CERTIFICATE-----
MIICuzCCAiSgAwIBAgIBAjANBgkqhkiG9w0BAQQFADCBljELMAkGA1UEBhMCREUx
DDAKBgNVBAgTA05SVzEOMAwGA1UEBxMFRXNzZW4xHDAaBgNVBAoTE1VuaXZlcnNp
dHkgb2YgRXNzZW4xDDAKBgNVBAsTA1NXVDEUMBIGA1UEAxMLRnJlZGogRHJpZGkx
JzAlBgkqhkiG9w0BCQEWGEZyZWRqLkRyaWRpQHVuaS1lc3Nlbi5kZTAeFw0wMDA0
MjgwODI0NDNaFw0wMTA0MjgwODI0NDNaMDwxFDASBgNVBAMTC0ZyZWRqIERyaWRp
MSQwIgYJKoZIhvcNAQkBFhVmcmVkal9kcmlkaUB5YWhvby5jb20wgZ8wDQYJKoZI
hvcNAQEBBQADgY0AMIGJAoGBAOTfp/PtYd8wrdlvY/LRhZtyssbk/VARxQopWQJg
KfYsajUIiUmt1EQdfxQYYU3oZocwAVLNfRZyDiQ4GaWn3M96XXnqSMbErlKmlDZ/
8yRDsCFa8tVtZjhMt3oOzhIBsEZL6gi04Kq4ltw+FeAkkoQfd9CNc9LzrIKwYWAa
avy5AgMBAAGjcjBwMCAGA1UdEQQZMBeBFWZyZWRqX2RyaWRpQHlhaG9vLmNvbTAM
BgNVHRMBAf8EAjAAMB8GA1UdIwQYMBaAFNK44y2iWiJ4OjjxH/V8rY2mxEEPMB0G
A1UdJQQWMBQGCCsGAQUFBwMCBggrBgEFBQcDBDANBgkqhkiG9w0BAQQFAAOBgQAB
iCY1ucfJWpD/uJw3+kgOA4K0GN9J511COkjj5ITHtu/MkUxHnTT5UQtj0DX5raWp
Pe91IwwUd1l5WVjIdN8BuN7yeEdkGn5LCTFe9TTirV7ogQDxr/5IMQupsU1TUZoV
H1W6MOQOAgUgS96c2Ybx5NkYxJMDGQal88sqKKD93g==
-----END CERTIFICATE-----

