issuer :/C=DE/ST=NRW/L=Essen/O=University of Essen/OU=SWT/CN=Fredj Dridi/Email=Fredj.Dridi@uni-essen.de
subject:/C=DE/ST=NRW/L=Essen/O=University of Essen/OU=SWT/CN=tp600e.wi-inf.uni-essen.de/Email=dridi@tp600e.wi-inf.uni-essen.de
serial :01

Certificate:
    Data:
        Version: 3 (0x2)
        Serial Number: 1 (0x1)
        Signature Algorithm: md5WithRSAEncryption
        Issuer: C=DE, ST=NRW, L=Essen, O=University of Essen, OU=SWT, CN=Fredj Dridi/Email=Fredj.Dridi@uni-essen.de
        Validity
            Not Before: Apr 28 08:21:19 2000 GMT
            Not After : Apr 28 08:21:19 2001 GMT
        Subject: C=DE, ST=NRW, L=Essen, O=University of Essen, OU=SWT, CN=tp600e.wi-inf.uni-essen.de/Email=dridi@tp600e.wi-inf.uni-essen.de
        Subject Public Key Info:
            Public Key Algorithm: rsaEncryption
            RSA Public Key: (1024 bit)
                Modulus (1024 bit):
                    00:d5:83:e1:dd:03:84:40:2b:26:11:6b:12:91:49:
                    d0:30:ee:64:29:7a:98:59:b2:52:1f:fd:94:7b:39:
                    ed:d1:29:98:f1:bb:b4:a3:3d:81:b9:e8:64:9c:f3:
                    2e:a1:89:a2:ae:1a:70:e6:25:c1:06:5d:90:97:58:
                    db:54:b8:00:95:b0:d9:45:ae:55:5b:19:21:1f:01:
                    b5:db:cf:a1:f8:79:a6:97:d9:dd:8f:2b:3a:e3:39:
                    cf:ff:f3:ee:5e:99:a1:59:45:e9:55:4d:86:38:b1:
                    63:4b:70:2b:96:57:61:48:87:03:09:31:b9:58:89:
                    e5:cc:ea:21:10:83:85:f3:75
                Exponent: 65537 (0x10001)
        X509v3 extensions:
            X509v3 Authority Key Identifier: 
                keyid:D2:B8:E3:2D:A2:5A:22:78:3A:38:F1:1F:F5:7C:AD:8D:A6:C4:41:0F

            X509v3 Extended Key Usage: 
                TLS Web Server Authentication, TLS Web Client Authentication, Microsoft Server Gated Crypto, Netscape Server Gated Crypto
            X509v3 Basic Constraints: critical
                CA:FALSE
    Signature Algorithm: md5WithRSAEncryption
        38:b5:a1:1c:93:c4:aa:6e:3f:d6:ea:11:7f:7b:2b:11:db:7b:
        22:b3:d2:a8:b3:f3:20:64:6a:25:b4:fe:0d:ac:12:49:a0:6e:
        6d:ef:fb:99:a2:7c:bc:50:b0:eb:42:ef:0a:32:fa:a9:69:e0:
        11:10:9b:00:05:15:97:59:ac:dc:5f:f2:cd:81:28:3e:e6:96:
        86:f4:d7:99:71:52:c3:ca:0f:4a:48:d8:66:b0:da:e8:d1:45:
        84:c4:12:b2:43:ec:63:b6:25:e8:0a:5a:4c:fb:e2:ec:03:36:
        6f:cd:f9:2a:5c:52:ba:02:29:92:f5:bf:c4:96:ff:9e:ed:a3:
        cf:02

-----BEGIN CERTIFICATE-----
MIIDIjCCAougAwIBAgIBATANBgkqhkiG9w0BAQQFADCBljELMAkGA1UEBhMCREUx
DDAKBgNVBAgTA05SVzEOMAwGA1UEBxMFRXNzZW4xHDAaBgNVBAoTE1VuaXZlcnNp
dHkgb2YgRXNzZW4xDDAKBgNVBAsTA1NXVDEUMBIGA1UEAxMLRnJlZGogRHJpZGkx
JzAlBgkqhkiG9w0BCQEWGEZyZWRqLkRyaWRpQHVuaS1lc3Nlbi5kZTAeFw0wMDA0
MjgwODIxMTlaFw0wMTA0MjgwODIxMTlaMIGtMQswCQYDVQQGEwJERTEMMAoGA1UE
CBMDTlJXMQ4wDAYDVQQHEwVFc3NlbjEcMBoGA1UEChMTVW5pdmVyc2l0eSBvZiBF
c3NlbjEMMAoGA1UECxMDU1dUMSMwIQYDVQQDExp0cDYwMGUud2ktaW5mLnVuaS1l
c3Nlbi5kZTEvMC0GCSqGSIb3DQEJARYgZHJpZGlAdHA2MDBlLndpLWluZi51bmkt
ZXNzZW4uZGUwgZ8wDQYJKoZIhvcNAQEBBQADgY0AMIGJAoGBANWD4d0DhEArJhFr
EpFJ0DDuZCl6mFmyUh/9lHs57dEpmPG7tKM9gbnoZJzzLqGJoq4acOYlwQZdkJdY
21S4AJWw2UWuVVsZIR8BtdvPofh5ppfZ3Y8rOuM5z//z7l6ZoVlF6VVNhjixY0tw
K5ZXYUiHAwkxuViJ5czqIRCDhfN1AgMBAAGjZzBlMB8GA1UdIwQYMBaAFNK44y2i
WiJ4OjjxH/V8rY2mxEEPMDQGA1UdJQQtMCsGCCsGAQUFBwMBBggrBgEFBQcDAgYK
KwYBBAGCNwoDAwYJYIZIAYb4QgQBMAwGA1UdEwEB/wQCMAAwDQYJKoZIhvcNAQEE
BQADgYEAOLWhHJPEqm4/1uoRf3srEdt7IrPSqLPzIGRqJbT+DawSSaBube/7maJ8
vFCw60LvCjL6qWngERCbAAUVl1ms3F/yzYEoPuaWhvTXmXFSw8oPSkjYZrDa6NFF
hMQSskPsY7Yl6ApaTPvi7AM2b835KlxSugIpkvW/xJb/nu2jzwI=
-----END CERTIFICATE-----

