_fde_single_encoding_compare
_read_encoded_value_with_base
_base_from_object
_read_uleb128
_execute_cfa_program
_frame_heapsort
_search_object
_uw_frame_state_for
__ZN15CRequestHandler16HandlePluginCallEPP8sComData
__ZN14CSrvrMessaging17Get_Value_FromMsgEP8sComDataPm10eValueType
_extract_cie_info
___gxx_personality_v0
__ZN15CRequestHandler13HandleRequestEPP8sComData
__ZN15CRequestHandler10GetMsgTypeEP8sComData
_fde_split
__ZN15CRequestHandler15DoGetRecordListEP8sComDataPl
__ZN14CSrvrMessaging10GetThisObjEP8sComData10eValueTypePP7sObject
__ZN15CRequestHandler16SetRequestResultEP8sComDatal
_dsGetRecordList
__Unwind_Find_registered_FDE
_classify_object_over_fdes
__ZN15CRequestHandler12PackageReplyEPvPP8sComData
__ZN9CRefTable11GetTableRefEm
__ZN11CDSRefTable11GetTableRefEm
__ZN10CMessaging15Add_Value_ToMsgEm10eValueType
__ZN14CSrvrMessaging15Add_Value_ToMsgEP8sComDatam10eValueType
_size_of_encoded_value
__Znwm
__ZN10CMessaging19Add_tDataList_ToMsgEP9tDataList10eValueType
__ZN13CSrvrEndPoint16GetClientMessageEv
__ZN10CMessaging11GetEmptyObjEP8sComData10eValueTypePP7sObject
__ZN14CSrvrMessagingC1Ev
__ZN14CSrvrMessagingC4Ev
__ZN14CSrvrMessaging11GetEmptyObjEP8sComData10eValueTypePP7sObject
__ZN14CSrvrMessagingD1Ev
__ZN14CSrvrMessagingD4Ev
_dsOpenDirNode
__ZN14CSrvrMessaging21Get_tDataList_FromMsgEP8sComDataPP9tDataList10eValueType
__Unwind_RaiseException
__Unwind_Find_FDE
_add_fdes
_read_sleb128
__ZN9CListener12QueueMessageEv
__ZN15CRequestHandler11GetCallNameEl
__ZN15CRequestHandler16HandleServerCallEPP8sComData
__ZN9CRefTable15VerifyReferenceEmmPP13CServerPluginlm
__ZN9CRefTable12GetReferenceEmPP9sRefEntry
__ZN9CRefTable12GetThisTableEm
__ZN15CRequestHandler14GetRequestDataEP8sComDataPlPb
__ZN14CHandlerThread13HandleMessageEv
__ZN9CNiPlugIn13GetRecordListEP14sGetRecordList
__ZN11CDSRefTable12GetThisTableEm
__ZN13CSrvrEndPoint19GetNextCompletedMsgEv
__ZdlPv
__ZN15CRequestHandler15IsServerRequestEP8sComData
__ZN10CMessaging17Get_Value_FromMsgEPm10eValueType
__Z15VerifyTNodeListP9tDataList10tDirStatusS1_
_dsGetDataLength
__ZN15CRequestHandler13DoOpenDirNodeEP8sComDataPl
__ZN9CRefTable9RemoveRefEmmlm
__ZN14CHandlerThread10ThreadMainEv
__ZN11CDSRefTable15VerifyReferenceEmml
__ZN11CDSRefTable12GetReferenceEmPP11sFWRefEntry
__ZN9CListener10ThreadMainEv
__ZN9CListener16ListenForMessageEv
__ZN13CSrvrEndPoint16AddDataToMessageEP7sIPCMsg
__ZN9CMsgQueue12QueueMessageEPv
__Znam
__ZN10CMessaging17SendInlineMessageEm
__ZN14CSrvrMessaging17ClearMessageBlockEP8sComData
__ZN10CMessaging10GetThisObjEP8sComData10eValueTypePP7sObject
__ZN14CNetInfoPlugin14ProcessRequestEPv
__ZN9CNiPlugInC4Ev
__ZN14CSrvrMessaging19Add_tDataBuff_ToMsgEPP8sComDataP11tDataBuffer10eValueType
__ZN15CRequestHandler15IsPluginRequestEP8sComData
__ZN9CRefTable9GetNewRefEPmm9eRefTypesP13CServerPluginlm
__ZN9CRefTable13VerifyNodeRefEmPP13CServerPluginlm
__ZN13ServerControl13SleepAHandlerEmm
__ZN9CMsgQueue14DequeueMessageEPPv
__ZN13CSearchPlugin13GetRecordListEP14sGetRecordList
_get_cie_encoding
_size_of_encoded_value
_base_of_encoded_value
_read_encoded_value_with_base
__Z17parse_lsda_headerP15_Unwind_ContextPKhP16lsda_header_info
__Z21base_of_encoded_valuehP15_Unwind_Context
__Z28read_encoded_value_with_basehjPKhPj
__Unwind_RaiseException_Phase2
__ZN9CNiPlugIn13GetAllRecordsEPcP14CAttributeListP15sNIContinueDataPvS0_bP5CBuffRm
__ZN13CSearchPlugin16AddDataToOutBuffEP19sSearchContinueDataP5CBuffP18sSearchContextDataP9tDataList
__ZN11CDSRefTable9RemoveRefEmml
__ZN13CSrvrEndPoint13MakeNewMsgPtrEP7sIPCMsg
__ZN13CSrvrEndPoint13AddNewMessageEP8sComDataP7sIPCMsg
__ZN13ServerControl13StartAHandlerEm
__ZN13ServerControl12WakeAHandlerEm
__ZN15CRequestHandlerC1Ev
__ZN15CRequestHandlerC4Ev
__ZN9CRefTable12VerifyDirRefEmPP13CServerPluginlm
__ZN15CRequestHandler10LogAPICallEdPcl
__ZN13CServerPlugin13GetPluginNameEv
__ZN14CSrvrMessaging4GrowEPP8sComDatamm
__ZN15CRequestHandler12DoFreeMemoryEPv
__ZN10CMessaging4GrowEmm
__ZN9CNodeList15GetPluginHandleEPKcPP13CServerPlugin
__ZN9CRefTable23UpdateClientPIDRefCountElmbm
__ZN11CPlugInList8GetStateEPKcPm
__ZN9CNiPlugIn13HandleRequestEPv
__ZN15CRequestHandler22DebugAPIPluginResponseEPvPcl
_dsGetAttributeEntry
__ZN9CRefTable16UnlinkFromParentEm
__ZN13CSearchPlugin14ProcessRequestEPv
__ZN9CMsgQueue11GetMsgCountEv
__ZN13CSearchPlugin13HandleRequestEPv
___cxa_throw
___cxa_get_globals
_uw_init_context_1
_uw_update_context_1
__Unwind_GetLanguageSpecificData
_uw_update_context
__Z12read_uleb128PKhPj
__Z15get_ttype_entryP16lsda_header_infoj
__Z16get_adjusted_ptrPKSt9type_infoS1_PPv
__ZN11CDSRefTable9GetNewRefEPmm9eRefTypesl
__ZN11CDSRefTable9SetOffsetEmmml
__ZN11CDSRefTable9SetBufTagEmmml
__Z21ExtractAttributeEntryP11tDataBuffermmPmPP15tAttributeEntry
start
__start
__dyld_init_check
___darwin_gcc3_preregister_frame_info
__call_mod_init_funcs
__dyld_func_lookup
_main
__ZN13ServerControlC1Ev
__ZN13ServerControlC4Ev
__ZN13ServerControl13StartUpServerEv
__ZN9CNodeListC1Ev
__ZN9CNodeListC4Ev
__ZN9CRefTableC1EPFlmP9sRefEntryE
__ZN9CRefTableC4EPFlmP9sRefEntryE
__ZN13CPluginConfigC1Ev
__ZN13CPluginConfigC4Ev
__ZN13CPluginConfig10InitializeEv
__ZN11CPlugInListC1Ev
__ZN11CPlugInListC4Ev
__ZN9CMsgQueueC1Ev
__ZN9CMsgQueueC4Ev
__ZN13ServerControl13StartListenerEv
__ZN9CListenerC1Ev
__ZN9CListenerC4Ev
__ZN9CListener11StartThreadEv
__ZN9CListener14CreateEndpointEv
__ZN13CSrvrEndPointC1EPc
__ZN13CSrvrEndPointC4EPc
__ZN13CSrvrEndPoint10InitializeEv
__ZN14CPluginHandlerC1Ev
__ZN14CPluginHandlerC4Ev
__ZN14CPluginHandler11StartThreadEv
__ZN14CPluginHandler10ThreadMainEv
__ZN14CPluginHandler11LoadPluginsEv
__ZN13CServerPlugin19ProcessStaticPluginEPKcS1_
__ZN16CConfigurePluginC1EmPKc
__ZN16CConfigurePluginC4EmPKc
__ZN13CServerPluginC2EmPKc
__ZN13CServerPluginC4EmPKc
__ZN11CPlugInList9AddPlugInEPKcS1_S1_S1_mP13CServerPluginP10__CFBundlePK8__CFUUIDm
__ZN13CPluginConfig14GetPluginStateEPKc
__ZN16CConfigurePlugin8ValidateEPKcm
__ZN14CNetInfoPluginC1EmPKc
__ZN14CNetInfoPluginC4EmPKc
__ZN14CNetInfoPlugin8ValidateEPKcm
__ZN13CLDAPv3PluginC1EmPKc
__ZN13CLDAPv3PluginC4EmPKc
__ZN9CLDAPNodeC1Ev
__ZN9CLDAPNodeC4Ev
__ZNSt24__default_alloc_templateILb1ELi0EE9_S_refillEm
__ZNSt24__default_alloc_templateILb1ELi0EE14_S_chunk_allocEmRi
__ZN13CLDAPv3Plugin8ValidateEPKcm
__ZN13CSearchPluginC1EmPKc
__ZN13CSearchPluginC4EmPKc
_dsOpenDirService
_dsIsDirServiceRunning
__ZN14CHandlerThreadC1Emm
__ZN14CHandlerThreadC4Emm
__ZN14CHandlerThread11StartThreadEv
__ZN13CServerPlugin10ProcessURLEPK7__CFURL
__ZN11CPlugInList9IsPresentEPKc
__ZN13CServerPlugin20InternalRegisterNodeEmP9tDataList12eDirNodeTypeb
__ZN11CPlugInList12GetPlugInPtrEmb
__ZN9CNodeList9IsPresentEPKc12eDirNodeType
__ZN9CNodeList7AddNodeEPKcP9tDataList12eDirNodeTypeP13CServerPluginm
__ZN9CNodeList13AddNodeToTreeEPPNS_9sTreeNodeEPKcP9tDataList12eDirNodeTypeP13CServerPluginm
__ZN13ServerControl18NotifyDirNodeAddedEPKc
__ZN13CServerPluginC1EP10__CFBundlePK8__CFUUIDmmPKc
__ZN13CServerPluginC4EP10__CFBundlePK8__CFUUIDmmPKc
__ZN13ServerControl24RegisterForNetworkChangeEv
__ZN13ServerControl17SetUpPeriodicTaskEv
__ZN13ServerControl47HandleMultipleNetworkTransitionsForNIAutoSwitchEv
__ZN13CServerPlugin8ValidateEPKcm
__ZN9CNodeList13CompareStringEPKcS1_
__ZN11CPlugInList11InitPlugInsEv
__ZN9CLauncherC1EP13CServerPlugin
__ZN9CLauncherC4EP13CServerPlugin
__ZN9CLauncher11StartThreadEv
__ZN9CLauncher10ThreadMainEv
__ZN16CConfigurePlugin10InitializeEv
__ZN13CServerPlugin13_RegisterNodeEmP9tDataList12eDirNodeType
__ZN14CNetInfoPlugin10InitializeEv
__Z7do_openPcS_PPvbiS_S_
__Z19ni_parse_server_tagPcP11sockaddr_inPS_
__ZN11CNiNodeListC1Ev
__ZN11CNiNodeListC4Ev
__ZN11CNiNodeList7AddNodeEPKcP9tDataListbm
__ZNSsC1EPKcRKSaIcE
__ZNSsC4EPKcRKSaIcE
__ZNSs12_S_constructIPKcEEPcT_S3_RKSaIcESt20forward_iterator_tag
__ZNSs4_Rep9_S_createEmRKSaIcE
__ZNSs12_Alloc_hiderC4EPcRKSaIcE
__ZNSsC1ERKSs
__ZNSsC4ERKSs
__ZNKSs13get_allocatorEv
__ZNSt24__default_alloc_templateILb1ELi0EE8allocateEm
__ZNSt24__default_alloc_templateILb1ELi0EE5_LockC4Ev
__ZNSt24__default_alloc_templateILb1ELi0EE5_LockD4Ev
__ZN13CLDAPv3Plugin10InitializeEv
__ZN14CLDAPv3ConfigsC1Ev
__ZN14CLDAPv3ConfigsC4Ev
__ZN14CLDAPv3Configs4InitEP10CPlugInRefRm
__ZN14CLDAPv3Configs14CheckForConfigEPcRm
__ZN14CLDAPv3Configs18MakeLDAPConfigDataEPcS0_iiiiibS0_S0_bbbS0_P15sLDAPConfigData
__ZN14CLDAPv3Configs19CleanLDAPConfigDataEP15sLDAPConfigDatab
__ZN14CLDAPv3Configs13XMLConfigLockEv
__ZN14CLDAPv3Configs13ReadXMLConfigEv
__ZN14CLDAPv3Configs9VerifyXMLEv
__ZN14CLDAPv3Configs15XMLConfigUnlockEv
__ZN14CLDAPv3Configs17ConfigLDAPServersEv
__ZN13CSearchPlugin10InitializeEv
_dsVerifyDirRefNum
__ZN9CDSRefMap20GetMessageTableIndexEmml
__ZN10CMessaging4LockEv
__ZN10CMessaging17ClearMessageBlockEv
__ZN9CDSRefMap9GetRefNumEmml
__ZN14CSrvrMessaging14ClearDataBlockEP8sComData
__ZN10CMessaging15GetReplyMessageEv
__ZN10CMessaging6UnlockEv
__Z31CheckToCleanUpLostTCPConnectionP10tDirStatusmm
__ZN13CSearchPlugin23FindSearchConfigWithKeyEm
__ZN8CConfigsC1Ev
__ZN8CConfigsC4Ev
__ZN8CConfigs4InitEPKcRm
__ZN8CConfigs18ConfigSearchPolicyEv
__ZN8CConfigs10GetVersionEPK14__CFDictionary
__ZN8CConfigs15GetSearchPolicyEPK14__CFDictionary
__ZN8CConfigs9GetCustomEv
__ZN8CConfigs10ConfigListEv
__ZN8CConfigs12GetListArrayEPK14__CFDictionary
__ZN8CConfigs12MakeListDataEPc
__ZN8CConfigs13CleanListDataEP11sSearchList
__ZN13CSearchPlugin25AddLocalNodesAsFirstPathsEPP11sSearchList
__ZN13CSearchPlugin13GetLocalPathsEPPc
__ZN13CSearchPlugin20MakeSearchConfigDataEP11sSearchListmP8CConfigsPcS4_12eDirNodeTypem
__ZN13CSearchPlugin21CleanSearchConfigDataEP13sSearchConfig
__ZN13CSearchPlugin19CleanSearchListDataEP11sSearchList
__ZN13CSearchPlugin21AddSearchConfigToListEP13sSearchConfig
__ZN13CSearchPlugin28SetSearchPolicyIndicatorFileEmm
__ZN13CSearchPlugin31RemoveSearchPolicyIndicatorFileEv
__ZN13CSearchPlugin14WakeUpRequestsEv
__ZN13CSearchPlugin16DoNetInfoDefaultEPP11sSearchList
__ZN13CSearchPlugin15GetNetInfoPathsEbPPc
_dsDataBufferAllocate
_dsFindDirNodes
__Z15VerifyTDataBuffP11tDataBuffer10tDirStatusS1_
__ZN15CRequestHandler12FindDirNodesEP8sComDataPlPc
__ZN9CNodeList8GetNodesEPc16tDirPatternMatchP11tDataBuffer
__ZN9CNodeList16WaitForLocalNodeEv
__ZN13CServerPlugin10InitializeEv
__ZN11CPlugInList8SetStateEPKcm
__ZN9CNodeList16AddConfigureNodeEPKcP9tDataList12eDirNodeTypeP13CServerPluginm
__ZN16CConfigurePlugin14SetPluginStateEm
__ZN16CConfigurePlugin14ProcessRequestEPv
__ZN16CConfigurePlugin11WaitForInitEv
__ZN16CConfigurePlugin13HandleRequestEPv
__ZN9CLauncherD0Ev
__ZN9CLauncherD4Ev
__ZN9CNodeList12AddLocalNodeEPKcP9tDataList12eDirNodeTypeP13CServerPluginm
__ZN13CNodeRegisterC1EmP11CNiNodeListbP14CNetInfoPlugin
__ZN13CNodeRegisterC4EmP11CNiNodeListbP14CNetInfoPlugin
__ZN13CNodeRegister11StartThreadEv
__ZN14CNetInfoPlugin14WakeUpRequestsEv
__ZN14CNetInfoPlugin14SetPluginStateEm
__ZN9CNiPlugInC1Ev
__ZN9CNiPlugInD1Ev
__ZN9CNiPlugInD4Ev
__ZN13CServerPlugin14SetPluginStateEm
__ZN13CServerPlugin14ProcessRequestEPv
__ZN14CNetInfoPlugin8SafeOpenEPKclP5ni_idPPvPPc
__ZN11CNiNodeList4LockEv
__ZN11CNiNodeList6IsOpenEPKcPPvPPcP5ni_id
__ZNSs4_Rep10_M_destroyERKSaIcE
__ZN11CNiNodeList13SetDomainInfoEPKcPvPcP5ni_id
__ZN11CNiNodeList6UnLockEv
__ZN13CNodeRegister29RegisterLocalNetInfoHierarchyEb
_my_ni_pwdomain
__ni_pwdomain
__ni_connect_parent
_my_rparent
__ZN14CNetInfoPlugin9SafeCloseEPKc
__ZN11CNiNodeList10DeleteNodeEPKc
__ZN13CNodeRegister10ThreadMainEv
__ZN14CNetInfoPlugin20NodeRegisterCompleteEP13CNodeRegister
__ZN13CNodeRegisterD0Ev
__ZN13CNodeRegisterD4Ev
__ZN14CPluginHandlerD0Ev
__ZN14CPluginHandlerD4Ev
__ZN14CLDAPv3Configs10GetVersionEPK14__CFDictionary
__ZN14CLDAPv3Configs14GetConfigArrayEPK14__CFDictionary
__ZN14CLDAPv3Configs14MakeLDAPConfigEPK14__CFDictionarylb
__ZN9CNodeList17AddDHCPLDAPv3NodeEPKcP9tDataList12eDirNodeTypeP13CServerPluginm
__ZN13CLDAPv3Plugin14WakeUpRequestsEv
__ZN13CLDAPv3Plugin14SetPluginStateEm
__ZN13CLDAPv3Plugin14ProcessRequestEPv
__ZN9CNodeList22AddNodePathToTDataBuffEP9tDataListP11tDataBuffer
__ZN10CMessaging21Get_tDataBuff_FromMsgEPP11tDataBuffer10eValueType
_dsGetDirNodeName
__Z19IsNodePathStrBufferP11tDataBuffer
__Z18ExtractDirNodeNameP11tDataBuffermPP9tDataList
_dsDataListAllocate
_dsAppendStringToListAlloc
__Z29dsAllocListNodeFromStringPrivPKc
__Z17dsGetLastNodePrivP11tDataBuffer
_dsDataBufferDeAllocate
__ZN15CRequestHandler19GetUIDsForProcessIDEiPjS0_
__ZN9CNodeList12GetPluginPtrEPNS_9sTreeNodeE
__ZN9CRefTable10NewNodeRefEPmP13CServerPluginmlm
__ZN9CRefTable12GetNextTableEP9sRefTable
__ZN9CRefTable12LinkToParentEmmmlm
__ZN14CNetInfoPlugin11WaitForInitEv
__ZN9CNiPlugIn11OpenDirNodeEP12sOpenDirNode
__ZN9CNiPlugIn23BuildDomainPathFromNameEPc
__ZN9CNiPlugIn15MakeContextDataEv
_dsDataListDeAllocate
_dsDataListDeallocate
_dsGetDirNodeInfo
_dsGetPathFromList
__ZN15CRequestHandler16DoGetDirNodeInfoEP8sComDataPl
__ZN9CRefTable14NewAttrListRefEPmP13CServerPluginmlm
__ZN9CNiPlugIn14GetDirNodeInfoEP15sGetDirNodeInfo
__Z13IsFWReferencem
__ZN10CMessaging19Add_tDataBuff_ToMsgEP11tDataBuffer10eValueType
__ZN15CRequestHandler19DoGetAttributeEntryEP8sComDataPl
__ZN14CSrvrMessaging21Get_tDataBuff_FromMsgEP8sComDataPP11tDataBuffer10eValueType
__ZN9CRefTable17VerifyAttrListRefEmPP13CServerPluginlm
__ZN9CRefTable15NewAttrValueRefEPmP13CServerPluginmlm
__ZN9CNiPlugIn17GetAttributeEntryEP18sGetAttributeEntry
__ZN14CSrvrMessaging20Add_tAttrEntry_ToMsgEPP8sComDataP15tAttributeEntry
__ZN10CMessaging22Get_tAttrEntry_FromMsgEPP15tAttributeEntry10eValueType
_dsGetAttributeValue
__ZN15CRequestHandler19DoGetAttributeValueEP8sComDataPl
__ZN9CRefTable18VerifyAttrValueRefEmPP13CServerPluginlm
__ZN9CNiPlugIn17GetAttributeValueEP18sGetAttributeValue
__ZN9CNiPlugIn7CalcCRCEPKc
__ZN14CSrvrMessaging25Add_tAttrValueEntry_ToMsgEPP8sComDataP20tAttributeValueEntry
__ZN10CMessaging27Get_tAttrValueEntry_FromMsgEPP20tAttributeValueEntry10eValueType
_dsDeallocAttributeValueEntry
_dsCloseAttributeList
__ZN15CRequestHandler20DoCloseAttributeListEP8sComDataPl
__ZN9CRefTable17RemoveAttrListRefEmlm
__ZN14CHandlerThread14RefDeallocProcEmP9sRefEntry
__ZN9CNiPlugIn18CloseAttributeListEP19sCloseAttributeList
__ZN9CNiPlugIn18ContextDeallocProcEPv
__ZN9CNiPlugIn16CleanContextDataEP14sNIContextData
__ZN9CDSRefMap17RemoveAttrListRefEml
__ZN9CDSRefMap9RemoveRefEmml
__ZN9CDSRefMap15VerifyReferenceEmml
_dsCloseAttributeValueList
__ZN15CRequestHandler25DoCloseAttributeValueListEP8sComDataPl
__ZN9CRefTable18RemoveAttrValueRefEmlm
__ZN9CNiPlugIn23CloseAttributeValueListEP24sCloseAttributeValueList
_dsDeallocAttributeEntry
_dsCloseDirNode
__ZN15CRequestHandler14DoCloseDirNodeEP8sComDataPl
__ZN9CRefTable13RemoveNodeRefEmlm
__ZN9CNiPlugIn12CloseDirNodeEP13sCloseDirNode
__ZN9CDSRefMap13RemoveNodeRefEml
__ZN13CSearchPlugin24DupSearchListWithNewRefsEP11sSearchList
__ZN8CConfigs17IsDHCPLDAPEnabledEv
__ZN13CSearchPlugin23AddDefaultLDAPNodesLastEPP11sSearchList
__ZN13CSearchPlugin19GetDefaultLDAPPathsEv
__ZN9CNodeList21WaitForDHCPLDAPv3InitEv
__ZN11CPlugInList12GetPlugInPtrEPKcb
__ZN13CLDAPv3Plugin11WaitForInitEv
__ZN13CLDAPv3Plugin13HandleRequestEPv
__ZN13CLDAPv3Plugin11OpenDirNodeEP12sOpenDirNode
__ZN13CLDAPv3Plugin15MakeContextDataEv
__ZN13CLDAPv3Plugin16CleanContextDataEP16sLDAPContextData
__ZN9CRefTable16SetNodePluginPtrEmP13CServerPlugin
__ZN9CRefTable12SetPluginPtrEmmP13CServerPlugin
__ZN13CLDAPv3Plugin14GetDirNodeInfoEP15sGetDirNodeInfo
__ZN13CLDAPv3Plugin17GetAttributeEntryEP18sGetAttributeEntry
__ZN13CLDAPv3Plugin18CloseAttributeListEP19sCloseAttributeList
__ZN13CLDAPv3Plugin18ContextDeallocProcEPv
__ZN13CLDAPv3Plugin23CloseAttributeValueListEP24sCloseAttributeValueList
__ZN13CLDAPv3Plugin12CloseDirNodeEP13sCloseDirNode
__ZN9CLDAPNode9SafeCloseEPcP4ldap
__ZN9CNodeList27AddAuthenticationSearchNodeEPKcP9tDataList12eDirNodeTypeP13CServerPluginm
__ZN9CNodeList21AddContactsSearchNodeEPKcP9tDataList12eDirNodeTypeP13CServerPluginm
__ZN9CNodeList20AddNetworkSearchNodeEPKcP9tDataList12eDirNodeTypeP13CServerPluginm
__ZN13ServerControl23NodeSearchPolicyChangedEv
__ZN13ServerControl28LaunchKerberosAutoConfigToolEv
__ZN13CSearchPlugin14SetPluginStateEm
__ZN14CHandlerThread20GetOurThreadRunStateEv
__ZN14CHandlerThread14CreateEndpointEv
__ZN9CRefTable9NewDirRefEPmlm
__ZN13CSrvrEndPoint15SendClientReplyEPv
__ZN13CSearchPlugin11WaitForInitEv
__ZN13CSearchPlugin11OpenDirNodeEP12sOpenDirNode
__ZN13CSearchPlugin15MakeContextDataEv
__ZN13CSearchPlugin14GetDirNodeInfoEP15sGetDirNodeInfo
__ZN13CSearchPlugin17GetAttributeEntryEP18sGetAttributeEntry
__ZN13CSearchPlugin17GetAttributeValueEP18sGetAttributeValue
__ZN9CRefTable14RemoveChildrenEP9sListInfolm
__ZN13CSearchPlugin23CloseAttributeValueListEP24sCloseAttributeValueList
__ZN13CSearchPlugin18ContextDeallocProcEPv
__ZN13CSearchPlugin16CleanContextDataEP18sSearchContextData
__ZN13CSearchPlugin18CloseAttributeListEP19sCloseAttributeList
__ZN13CSearchPlugin12CloseDirNodeEP13sCloseDirNode
__ZN9CNiPlugIn15GetTheseRecordsEPcS0_S0_16tDirPatternMatchP14CAttributeListPvS0_bP5CBuffP15sNIContinueDataRm
__ZN9CNiPlugIn11BuildRegExpEPKc
__ZN9CNiPlugIn19ContinueDeallocProcEPv
__ZN13CSearchPlugin14GetNextNodeRefEmPmP18sSearchContextData
__ZN11CPlugInList10LoadPluginEm
__ZN9CRefTable12RemoveDirRefEmlm
__Z9_DebugLogPKcPc
___cxa_allocate_exception
__Z21get_globals_init_oncev
__Z16get_globals_initv
save_world
_examine_objects
_init_object
_read_uleb128
_read_sleb128
__ZN15CRequestHandler20FailedCallRefCleanUpEPvlmm
__Unwind_GetRegionStart
__Unwind_GetIP
__Z12read_sleb128PKhPi
__Z21size_of_encoded_valueh
__ZNKSt9type_info14__is_pointer_pEv
__ZNKSt9type_info10__do_catchEPKS_PPvj
__ZNKSt9type_infoeqERKS_
__Unwind_SetGR
__Unwind_SetIP
_uw_install_context_1
eh_rest_world_r10
rest_world_eh_r7r8
___cxa_begin_catch
__ZN13CSearchPlugin12DoAliasCheckEP9tDataListS1_P19sSearchContinueData
__ZN10CMessaging16GetServerVersionEv
__ZN9CNiPlugIn18VerifyPatternMatchE16tDirPatternMatch
__ZN9CNiPlugIn19MapRecToNetInfoTypeEPKc
___cxa_end_catch
___cxa_get_globals_fast
__Unwind_DeleteException
__Z23__gxx_exception_cleanup19_Unwind_Reason_CodeP17_Unwind_Exception
___cxa_free_exception
__ZN13CSearchPlugin19ContinueDeallocProcEPv
__Z27DoNIAutoSwitchNetworkChangeP16__CFRunLoopTimerPv
__ZN13ServerControl17NIAutoSwitchCheckEv
__ZN11CPlugInList4NextEPm
__ZN11CPlugInList13GetPlugInInfoEm
__ZN13CSearchPlugin20CheckForNIAutoSwitchEv
__ZN13CSearchPlugin28FindNIAutoSwitchToLDAPRecordEv
__ZN9CNodeList12GetNodeCountEv
__ZN9CNodeList18GetNodeChangeTokenEv
__ZN9CNodeList9DoGetNodeEPNS_9sTreeNodeEPc16tDirPatternMatchP11tDataBufferPS1_
__ZN15CRequestHandler11GetNodeListEP8sComDataPl
__ZN9CNodeList17BuildNodeListBuffEP15sGetDirNodeList
__ZN9CNodeList19DoBuildNodeListBuffEPNS_9sTreeNodeEP11tDataBufferPm
__ZN9CNiPlugIn18GetTheseAttributesEP14CAttributeListP11ni_proplistbPvPcRl
__ZN9CNiPlugIn20MapAttrToNetInfoTypeEPKc
__ZN9CNiPlugIn21MapNetInfoRecToDSTypeEPKc
_dsGetRecordEntry
__Z11IsStdBufferP11tDataBuffer
__Z18ExtractRecordEntryP11tDataBuffermPmPP12tRecordEntry
__ZN11CDSRefTable14NewAttrListRefEPmml
__ZN11CDSRefTable12GetNextTableEP11sRefFWTable
__ZN11CDSRefTable23UpdateClientPIDRefCountElbm
_dsGetRecordTypeFromEntry
_dsGetRecordNameFromEntry
__ZN11CDSRefTable9GetOffsetEmmPml
__ZN11CDSRefTable9GetBufTagEmmPml
__ZN11CDSRefTable15NewAttrValueRefEPmml
__ZN11CDSRefTable18RemoveAttrValueRefEml
__ZN11CDSRefTable16UnlinkFromParentEm
__ZN11CDSRefTable17RemoveAttrListRefEml
_dsDeallocRecordEntry
__ZN9CNiPlugIn16MapNetInfoErrorsEl
__ZN13ServerControl15GetHandlerCountEm
__ZN13ServerControl12StopAHandlerEmmP14CHandlerThread
__ZN14CHandlerThread10StopThreadEv
__ZN14CHandlerThread10LastChanceEv
__ZN14CHandlerThreadD0Ev
__ZN14CHandlerThreadD4Ev
__ZN13CSrvrEndPointD0Ev
__ZN13CSrvrEndPointD4Ev
__Z16get_globals_dtorPv
