__ZN36IOFireWireSerialBusProtocolTransport10gMetaClassE
__ZN36IOFireWireSerialBusProtocolTransport10superClassE
__ZN36IOFireWireSerialBusProtocolTransport11submitLoginEv
__ZN36IOFireWireSerialBusProtocolTransport12StatusNotifyEP18FWSBP2NotifyParams
__ZN36IOFireWireSerialBusProtocolTransport12loginResumedEv
__ZN36IOFireWireSerialBusProtocolTransport14loginSuspendedEv
__ZN36IOFireWireSerialBusProtocolTransport15ConnectToDeviceEv
__ZN36IOFireWireSerialBusProtocolTransport15LoginCompletionEP25FWSBP2LoginCompleteParams
__ZN36IOFireWireSerialBusProtocolTransport15SendSCSICommandEP8OSObjectP19SCSIServiceResponseP14SCSITaskStatus
__ZN36IOFireWireSerialBusProtocolTransport16AbortSCSICommandEP8OSObject
__ZN36IOFireWireSerialBusProtocolTransport16CompleteSCSITaskEP17IOFireWireSBP2ORB
__ZN36IOFireWireSerialBusProtocolTransport16LogoutCompletionEP26FWSBP2LogoutCompleteParams
__ZN36IOFireWireSerialBusProtocolTransport16LunResetCompleteEiP27IOFireWireSBP2ManagementORB
__ZN36IOFireWireSerialBusProtocolTransport17AllocateResourcesEv
__ZN36IOFireWireSerialBusProtocolTransport17CoalesceSenseDataEP17FWSBP2StatusBlockhP15SCSI_Sense_Data
__ZN36IOFireWireSerialBusProtocolTransport17SBP2LoginAccessorEv
__ZN36IOFireWireSerialBusProtocolTransport17SetCommandBuffersEP17IOFireWireSBP2ORBP8OSObject
__ZN36IOFireWireSerialBusProtocolTransport18CommandORBAccessorEv
__ZN36IOFireWireSerialBusProtocolTransport18StatusNotifyStaticEPvP18FWSBP2NotifyParams
__ZN36IOFireWireSerialBusProtocolTransport18submitOrbFromQueueEv
__ZN36IOFireWireSerialBusProtocolTransport19DeallocateResourcesEv
__ZN36IOFireWireSerialBusProtocolTransport20DisconnectFromDeviceEv
__ZN36IOFireWireSerialBusProtocolTransport21ConnectToDeviceStaticEP8OSObjectPvS2_S2_S2_
__ZN36IOFireWireSerialBusProtocolTransport21CriticalOrbSubmissionEP17IOFireWireSBP2ORBP8OSObject
__ZN36IOFireWireSerialBusProtocolTransport21IsDeviceCPUInDiskModeEv
__ZN36IOFireWireSerialBusProtocolTransport21LoginCompletionStaticEPvP25FWSBP2LoginCompleteParams
__ZN36IOFireWireSerialBusProtocolTransport21SetValidAutoSenseDataEPNS_17SBP2ClientOrbDataEP17FWSBP2StatusBlockP15SCSI_Sense_Data
__ZN36IOFireWireSerialBusProtocolTransport22LogoutCompletionStaticEPvP26FWSBP2LogoutCompleteParams
__ZN36IOFireWireSerialBusProtocolTransport22LunResetCompleteStaticEPviP27IOFireWireSBP2ManagementORB
__ZN36IOFireWireSerialBusProtocolTransport23FetchAgentResetCompleteEi
__ZN36IOFireWireSerialBusProtocolTransport23UnsolicitedStatusNotifyEP18FWSBP2NotifyParams
__ZN36IOFireWireSerialBusProtocolTransport26IsProtocolServiceSupportedEjPv
__ZN36IOFireWireSerialBusProtocolTransport27CriticalOrbSubmissionStaticEP8OSObjectPvS2_S2_S2_
__ZN36IOFireWireSerialBusProtocolTransport28HandleProtocolServiceFeatureEjPv
__ZN36IOFireWireSerialBusProtocolTransport29FetchAgentResetCompleteStaticEPvi
__ZN36IOFireWireSerialBusProtocolTransport29UnsolicitedStatusNotifyStaticEPvP18FWSBP2NotifyParams
__ZN36IOFireWireSerialBusProtocolTransport46_RESERVEDIOFireWireSerialBusProtocolTransport7Ev
__ZN36IOFireWireSerialBusProtocolTransport46_RESERVEDIOFireWireSerialBusProtocolTransport8Ev
__ZN36IOFireWireSerialBusProtocolTransport46_RESERVEDIOFireWireSerialBusProtocolTransport9Ev
__ZN36IOFireWireSerialBusProtocolTransport47_RESERVEDIOFireWireSerialBusProtocolTransport10Ev
__ZN36IOFireWireSerialBusProtocolTransport47_RESERVEDIOFireWireSerialBusProtocolTransport11Ev
__ZN36IOFireWireSerialBusProtocolTransport47_RESERVEDIOFireWireSerialBusProtocolTransport12Ev
__ZN36IOFireWireSerialBusProtocolTransport47_RESERVEDIOFireWireSerialBusProtocolTransport13Ev
__ZN36IOFireWireSerialBusProtocolTransport47_RESERVEDIOFireWireSerialBusProtocolTransport14Ev
__ZN36IOFireWireSerialBusProtocolTransport47_RESERVEDIOFireWireSerialBusProtocolTransport15Ev
__ZN36IOFireWireSerialBusProtocolTransport47_RESERVEDIOFireWireSerialBusProtocolTransport16Ev
__ZN36IOFireWireSerialBusProtocolTransport4freeEv
__ZN36IOFireWireSerialBusProtocolTransport4initEP12OSDictionary
__ZN36IOFireWireSerialBusProtocolTransport5loginEv
__ZN36IOFireWireSerialBusProtocolTransport5startEP9IOService
__ZN36IOFireWireSerialBusProtocolTransport7cleanUpEv
__ZN36IOFireWireSerialBusProtocolTransport7messageEjP9IOServicePv
__ZN36IOFireWireSerialBusProtocolTransport8finalizeEj
__ZN36IOFireWireSerialBusProtocolTransport9MetaClassC1Ev
__ZN36IOFireWireSerialBusProtocolTransport9MetaClassC2Ev
__ZN36IOFireWireSerialBusProtocolTransport9loginLostEv
__ZN36IOFireWireSerialBusProtocolTransport9metaClassE
__ZN36IOFireWireSerialBusProtocolTransportC1EPK11OSMetaClass
__ZN36IOFireWireSerialBusProtocolTransportC1Ev
__ZN36IOFireWireSerialBusProtocolTransportC2EPK11OSMetaClass
__ZN36IOFireWireSerialBusProtocolTransportC2Ev
__ZN36IOFireWireSerialBusProtocolTransportD0Ev
__ZN36IOFireWireSerialBusProtocolTransportD1Ev
__ZN36IOFireWireSerialBusProtocolTransportD2Ev
__ZN36IOFireWireSerialBusProtocolTransportdlEPvm
__ZN36IOFireWireSerialBusProtocolTransportnwEm
__ZNK36IOFireWireSerialBusProtocolTransport12getMetaClassEv
__ZNK36IOFireWireSerialBusProtocolTransport9MetaClass5allocEv
__ZTV36IOFireWireSerialBusProtocolTransport
__ZTVN36IOFireWireSerialBusProtocolTransport9MetaClassE
