Certificate:
    Data:
        Version: 3 (0x2)
        Serial Number: 0 (0x0)
        Signature Algorithm: sha1WithRSAEncryption
        Issuer: CN=ca
        Validity
            Not Before: Nov 30 22:44:32 2004 GMT
            Not After : Dec 30 22:44:32 2004 GMT
        Subject: 
        Subject Public Key Info:
            Public Key Algorithm: rsaEncryption
            RSA Public Key: (512 bit)
                Modulus (512 bit):
                    00:d6:a3:b4:a9:dd:5a:7a:e8:d5:94:da:c9:fe:9b:
                    02:22:b0:d9:18:0e:40:74:32:e3:65:87:fd:87:19:
                    c0:bc:54:09:10:68:3a:ed:b2:0c:ce:aa:e2:04:85:
                    54:ed:b6:fa:51:19:ee:10:56:d4:e6:84:fc:07:f8:
                    89:19:2e:be:3b
                Exponent: 65537 (0x10001)
        X509v3 extensions:
            X509v3 Certificate Policies: 
            Policy: 1.2.3
              CPS: 

    Signature Algorithm: sha1WithRSAEncryption
        7a:0a:79:3a:ce:ff:3e:d5:da:3b:ce:e8:f3:54:52:8a:e2:b9:
        32:0e:0c:3a:11:5c:06:ed:35:d0:8d:6d:66:85:46:31:47:e8:
        97:40:d4:02:26:25:f3:a7:d5:09:bb:44:df:05:54:9b:0c:e1:
        94:70:61:cc:9c:bf:66:bb:88:a1
-----BEGIN CERTIFICATE-----
MIIBIDCBy6ADAgECAgEAMA0GCSqGSIb3DQEBBQUAMA0xCzAJBgNVBAMTAmNhMB4X
DTA0MTEzMDIyNDQzMloXDTA0MTIzMDIyNDQzMlowADBcMA0GCSqGSIb3DQEBAQUA
A0sAMEgCQQDWo7Sp3Vp66NWU2sn+mwIisNkYDkB0MuNlh/2HGcC8VAkQaDrtsgzO
quIEhVTttvpRGe4QVtTmhPwH+IkZLr47AgMBAAGjIzAhMB8GA1UdIAQYMBYwFAYC
KgMwDjAMBggrBgEFBQcCARYAMA0GCSqGSIb3DQEBBQUAA0EAegp5Os7/PtXaO87o
81RSiuK5Mg4MOhFcBu010I1tZoVGMUfol0DUAiYl86fVCbtE3wVUmwzhlHBhzJy/
ZruIoQ==
-----END CERTIFICATE-----
