__Z32_IOMediaBSDClientGetThrottleMaskP7IOMedia
__ZN10MinorTable10isObsoleteEj
__ZN10MinorTable23getOpenCountForAnchorIDEj
__ZN10MinorTable23hasReferencesToAnchorIDEjb
__ZN10MinorTable6insertEP7IOMediajP16IOMediaBSDClientPc
__ZN10MinorTable6locateEP7IOMedia
__ZN10MinorTable6removeEj
__ZN10MinorTable6updateEP7IOMediajP16IOMediaBSDClientPc
__ZN10MinorTable8getMinorEj
__ZN10MinorTable8obsoleteEj
__ZN10MinorTableC1Ev
__ZN10MinorTableC2Ev
__ZN10MinorTableD1Ev
__ZN10MinorTableD2Ev
__ZN11IODeblocker10gMetaClassE
__ZN11IODeblocker10superClassE
__ZN11IODeblocker12getByteStartEv
__ZN11IODeblocker12getNextStageEv
__ZN11IODeblocker13withBlockSizeEyyP18IOMemoryDescriptorP19IOStorageAttributesP19IOStorageCompletionPv
__ZN11IODeblocker16getPreparationIDEv
__ZN11IODeblocker16getRequestBufferEv
__ZN11IODeblocker17getRequestContextEv
__ZN11IODeblocker17getThreadCallbackEv
__ZN11IODeblocker17initWithBlockSizeEyyP18IOMemoryDescriptorP19IOStorageAttributesP19IOStorageCompletionPv
__ZN11IODeblocker17setThreadCallbackEPFvPvS0_E
__ZN11IODeblocker18getPhysicalSegmentEyPyj
__ZN11IODeblocker20getRequestAttributesEv
__ZN11IODeblocker20getRequestCompletionEPy
__ZN11IODeblocker4freeEv
__ZN11IODeblocker7prepareEj
__ZN11IODeblocker8completeEj
__ZN11IODeblocker9MetaClassC1Ev
__ZN11IODeblocker9MetaClassC2Ev
__ZN11IODeblocker9metaClassE
__ZN11IODeblockerC1EPK11OSMetaClass
__ZN11IODeblockerC1Ev
__ZN11IODeblockerC2EPK11OSMetaClass
__ZN11IODeblockerC2Ev
__ZN11IODeblockerD0Ev
__ZN11IODeblockerD1Ev
__ZN11IODeblockerD2Ev
__ZN11IODeblockerdlEPvm
__ZN11IODeblockernwEm
__ZN14IOFilterScheme10gMetaClassE
__ZN14IOFilterScheme10handleOpenEP9IOServicejPv
__ZN14IOFilterScheme10superClassE
__ZN14IOFilterScheme11handleCloseEP9IOServicej
__ZN14IOFilterScheme11setPriorityEP9IOServiceP15IOStorageExtentjh
__ZN14IOFilterScheme11synchronizeEP9IOServiceyyj
__ZN14IOFilterScheme18copyPhysicalExtentEP9IOServicePyS2_
__ZN14IOFilterScheme18getProvisionStatusEP9IOServiceyyPjP24IOStorageProvisionExtenty
__ZN14IOFilterScheme19lockPhysicalExtentsEP9IOService
__ZN14IOFilterScheme21unlockPhysicalExtentsEP9IOService
__ZN14IOFilterScheme24_RESERVEDIOFilterScheme0Ev
__ZN14IOFilterScheme24_RESERVEDIOFilterScheme1Ev
__ZN14IOFilterScheme24_RESERVEDIOFilterScheme2Ev
__ZN14IOFilterScheme24_RESERVEDIOFilterScheme3Ev
__ZN14IOFilterScheme24_RESERVEDIOFilterScheme4Ev
__ZN14IOFilterScheme24_RESERVEDIOFilterScheme5Ev
__ZN14IOFilterScheme24_RESERVEDIOFilterScheme6Ev
__ZN14IOFilterScheme24_RESERVEDIOFilterScheme7Ev
__ZN14IOFilterScheme24_RESERVEDIOFilterScheme8Ev
__ZN14IOFilterScheme24_RESERVEDIOFilterScheme9Ev
__ZN14IOFilterScheme25_RESERVEDIOFilterScheme10Ev
__ZN14IOFilterScheme25_RESERVEDIOFilterScheme11Ev
__ZN14IOFilterScheme25_RESERVEDIOFilterScheme12Ev
__ZN14IOFilterScheme25_RESERVEDIOFilterScheme13Ev
__ZN14IOFilterScheme25_RESERVEDIOFilterScheme14Ev
__ZN14IOFilterScheme25_RESERVEDIOFilterScheme15Ev
__ZN14IOFilterScheme25_RESERVEDIOFilterScheme16Ev
__ZN14IOFilterScheme25_RESERVEDIOFilterScheme17Ev
__ZN14IOFilterScheme25_RESERVEDIOFilterScheme18Ev
__ZN14IOFilterScheme25_RESERVEDIOFilterScheme19Ev
__ZN14IOFilterScheme25_RESERVEDIOFilterScheme20Ev
__ZN14IOFilterScheme25_RESERVEDIOFilterScheme21Ev
__ZN14IOFilterScheme25_RESERVEDIOFilterScheme22Ev
__ZN14IOFilterScheme25_RESERVEDIOFilterScheme23Ev
__ZN14IOFilterScheme25_RESERVEDIOFilterScheme24Ev
__ZN14IOFilterScheme25_RESERVEDIOFilterScheme25Ev
__ZN14IOFilterScheme25_RESERVEDIOFilterScheme26Ev
__ZN14IOFilterScheme25_RESERVEDIOFilterScheme27Ev
__ZN14IOFilterScheme25_RESERVEDIOFilterScheme28Ev
__ZN14IOFilterScheme25_RESERVEDIOFilterScheme29Ev
__ZN14IOFilterScheme25_RESERVEDIOFilterScheme30Ev
__ZN14IOFilterScheme25_RESERVEDIOFilterScheme31Ev
__ZN14IOFilterScheme4readEP9IOServiceyP18IOMemoryDescriptorP19IOStorageAttributesP19IOStorageCompletion
__ZN14IOFilterScheme5unmapEP9IOServiceP15IOStorageExtentjj
__ZN14IOFilterScheme5writeEP9IOServiceyP18IOMemoryDescriptorP19IOStorageAttributesP19IOStorageCompletion
__ZN14IOFilterScheme9MetaClassC1Ev
__ZN14IOFilterScheme9MetaClassC2Ev
__ZN14IOFilterScheme9metaClassE
__ZN14IOFilterSchemeC1EPK11OSMetaClass
__ZN14IOFilterSchemeC1Ev
__ZN14IOFilterSchemeC2EPK11OSMetaClass
__ZN14IOFilterSchemeC2Ev
__ZN14IOFilterSchemeD0Ev
__ZN14IOFilterSchemeD1Ev
__ZN14IOFilterSchemeD2Ev
__ZN14IOFilterSchemedlEPvm
__ZN14IOFilterSchemenwEm
__ZN16IOMediaBSDClient10gMetaClassE
__ZN16IOMediaBSDClient10superClassE
__ZN16IOMediaBSDClient11createNodesEP7IOMedia
__ZN16IOMediaBSDClient13getWholeMediaEP7IOMediaPjPc
__ZN16IOMediaBSDClient26_RESERVEDIOMediaBSDClient0Ev
__ZN16IOMediaBSDClient26_RESERVEDIOMediaBSDClient1Ev
__ZN16IOMediaBSDClient26_RESERVEDIOMediaBSDClient2Ev
__ZN16IOMediaBSDClient26_RESERVEDIOMediaBSDClient3Ev
__ZN16IOMediaBSDClient26_RESERVEDIOMediaBSDClient4Ev
__ZN16IOMediaBSDClient26_RESERVEDIOMediaBSDClient5Ev
__ZN16IOMediaBSDClient26_RESERVEDIOMediaBSDClient6Ev
__ZN16IOMediaBSDClient26_RESERVEDIOMediaBSDClient7Ev
__ZN16IOMediaBSDClient26_RESERVEDIOMediaBSDClient8Ev
__ZN16IOMediaBSDClient26_RESERVEDIOMediaBSDClient9Ev
__ZN16IOMediaBSDClient27_RESERVEDIOMediaBSDClient10Ev
__ZN16IOMediaBSDClient27_RESERVEDIOMediaBSDClient11Ev
__ZN16IOMediaBSDClient27_RESERVEDIOMediaBSDClient12Ev
__ZN16IOMediaBSDClient27_RESERVEDIOMediaBSDClient13Ev
__ZN16IOMediaBSDClient27_RESERVEDIOMediaBSDClient14Ev
__ZN16IOMediaBSDClient27_RESERVEDIOMediaBSDClient15Ev
__ZN16IOMediaBSDClient4freeEv
__ZN16IOMediaBSDClient4initEP12OSDictionary
__ZN16IOMediaBSDClient5ioctlEimPciP4proc
__ZN16IOMediaBSDClient5startEP9IOService
__ZN16IOMediaBSDClient9MetaClassC1Ev
__ZN16IOMediaBSDClient9MetaClassC2Ev
__ZN16IOMediaBSDClient9metaClassE
__ZN16IOMediaBSDClient9terminateEj
__ZN16IOMediaBSDClientC1EPK11OSMetaClass
__ZN16IOMediaBSDClientC1Ev
__ZN16IOMediaBSDClientC2EPK11OSMetaClass
__ZN16IOMediaBSDClientC2Ev
__ZN16IOMediaBSDClientD0Ev
__ZN16IOMediaBSDClientD1Ev
__ZN16IOMediaBSDClientD2Ev
__ZN16IOMediaBSDClientdlEPvm
__ZN16IOMediaBSDClientnwEm
__ZN17IOPartitionScheme10gMetaClassE
__ZN17IOPartitionScheme10handleOpenEP9IOServicejPv
__ZN17IOPartitionScheme10superClassE
__ZN17IOPartitionScheme11handleCloseEP9IOServicej
__ZN17IOPartitionScheme11setPriorityEP9IOServiceP15IOStorageExtentjh
__ZN17IOPartitionScheme11synchronizeEP9IOServiceyyj
__ZN17IOPartitionScheme18copyPhysicalExtentEP9IOServicePyS2_
__ZN17IOPartitionScheme18getProvisionStatusEP9IOServiceyyPjP24IOStorageProvisionExtenty
__ZN17IOPartitionScheme19lockPhysicalExtentsEP9IOService
__ZN17IOPartitionScheme21juxtaposeMediaObjectsEP5OSSetS1_
__ZN17IOPartitionScheme21unlockPhysicalExtentsEP9IOService
__ZN17IOPartitionScheme27_RESERVEDIOPartitionScheme0Ev
__ZN17IOPartitionScheme27_RESERVEDIOPartitionScheme1Ev
__ZN17IOPartitionScheme27_RESERVEDIOPartitionScheme2Ev
__ZN17IOPartitionScheme27_RESERVEDIOPartitionScheme3Ev
__ZN17IOPartitionScheme27_RESERVEDIOPartitionScheme4Ev
__ZN17IOPartitionScheme27_RESERVEDIOPartitionScheme5Ev
__ZN17IOPartitionScheme27_RESERVEDIOPartitionScheme6Ev
__ZN17IOPartitionScheme27_RESERVEDIOPartitionScheme7Ev
__ZN17IOPartitionScheme27_RESERVEDIOPartitionScheme8Ev
__ZN17IOPartitionScheme27_RESERVEDIOPartitionScheme9Ev
__ZN17IOPartitionScheme28_RESERVEDIOPartitionScheme10Ev
__ZN17IOPartitionScheme28_RESERVEDIOPartitionScheme11Ev
__ZN17IOPartitionScheme28_RESERVEDIOPartitionScheme12Ev
__ZN17IOPartitionScheme28_RESERVEDIOPartitionScheme13Ev
__ZN17IOPartitionScheme28_RESERVEDIOPartitionScheme14Ev
__ZN17IOPartitionScheme28_RESERVEDIOPartitionScheme15Ev
__ZN17IOPartitionScheme28_RESERVEDIOPartitionScheme16Ev
__ZN17IOPartitionScheme28_RESERVEDIOPartitionScheme17Ev
__ZN17IOPartitionScheme28_RESERVEDIOPartitionScheme18Ev
__ZN17IOPartitionScheme28_RESERVEDIOPartitionScheme19Ev
__ZN17IOPartitionScheme28_RESERVEDIOPartitionScheme20Ev
__ZN17IOPartitionScheme28_RESERVEDIOPartitionScheme21Ev
__ZN17IOPartitionScheme28_RESERVEDIOPartitionScheme22Ev
__ZN17IOPartitionScheme28_RESERVEDIOPartitionScheme23Ev
__ZN17IOPartitionScheme28_RESERVEDIOPartitionScheme24Ev
__ZN17IOPartitionScheme28_RESERVEDIOPartitionScheme25Ev
__ZN17IOPartitionScheme28_RESERVEDIOPartitionScheme26Ev
__ZN17IOPartitionScheme28_RESERVEDIOPartitionScheme27Ev
__ZN17IOPartitionScheme28_RESERVEDIOPartitionScheme28Ev
__ZN17IOPartitionScheme28_RESERVEDIOPartitionScheme29Ev
__ZN17IOPartitionScheme28_RESERVEDIOPartitionScheme30Ev
__ZN17IOPartitionScheme28_RESERVEDIOPartitionScheme31Ev
__ZN17IOPartitionScheme29attachMediaObjectToDeviceTreeEP7IOMedia
__ZN17IOPartitionScheme31detachMediaObjectFromDeviceTreeEP7IOMedia
__ZN17IOPartitionScheme4freeEv
__ZN17IOPartitionScheme4initEP12OSDictionary
__ZN17IOPartitionScheme4readEP9IOServiceyP18IOMemoryDescriptorP19IOStorageAttributesP19IOStorageCompletion
__ZN17IOPartitionScheme5unmapEP9IOServiceP15IOStorageExtentjj
__ZN17IOPartitionScheme5writeEP9IOServiceyP18IOMemoryDescriptorP19IOStorageAttributesP19IOStorageCompletion
__ZN17IOPartitionScheme9MetaClassC1Ev
__ZN17IOPartitionScheme9MetaClassC2Ev
__ZN17IOPartitionScheme9metaClassE
__ZN17IOPartitionSchemeC1EPK11OSMetaClass
__ZN17IOPartitionSchemeC1Ev
__ZN17IOPartitionSchemeC2EPK11OSMetaClass
__ZN17IOPartitionSchemeC2Ev
__ZN17IOPartitionSchemeD0Ev
__ZN17IOPartitionSchemeD1Ev
__ZN17IOPartitionSchemeD2Ev
__ZN17IOPartitionSchemedlEPvm
__ZN17IOPartitionSchemenwEm
__ZN18IOAppleLabelScheme10gMetaClassE
__ZN18IOAppleLabelScheme10superClassE
__ZN18IOAppleLabelScheme16isContentCorruptEP12OSDictionary
__ZN18IOAppleLabelScheme16isContentInvalidEP12OSDictionary
__ZN18IOAppleLabelScheme22instantiateMediaObjectEP12OSDictionary
__ZN18IOAppleLabelScheme28_RESERVEDIOAppleLabelScheme0Ev
__ZN18IOAppleLabelScheme28_RESERVEDIOAppleLabelScheme1Ev
__ZN18IOAppleLabelScheme28_RESERVEDIOAppleLabelScheme2Ev
__ZN18IOAppleLabelScheme28_RESERVEDIOAppleLabelScheme3Ev
__ZN18IOAppleLabelScheme28_RESERVEDIOAppleLabelScheme4Ev
__ZN18IOAppleLabelScheme28_RESERVEDIOAppleLabelScheme5Ev
__ZN18IOAppleLabelScheme28_RESERVEDIOAppleLabelScheme6Ev
__ZN18IOAppleLabelScheme28_RESERVEDIOAppleLabelScheme7Ev
__ZN18IOAppleLabelScheme28_RESERVEDIOAppleLabelScheme8Ev
__ZN18IOAppleLabelScheme28_RESERVEDIOAppleLabelScheme9Ev
__ZN18IOAppleLabelScheme29_RESERVEDIOAppleLabelScheme10Ev
__ZN18IOAppleLabelScheme29_RESERVEDIOAppleLabelScheme11Ev
__ZN18IOAppleLabelScheme29_RESERVEDIOAppleLabelScheme12Ev
__ZN18IOAppleLabelScheme29_RESERVEDIOAppleLabelScheme13Ev
__ZN18IOAppleLabelScheme29_RESERVEDIOAppleLabelScheme14Ev
__ZN18IOAppleLabelScheme29_RESERVEDIOAppleLabelScheme15Ev
__ZN18IOAppleLabelScheme29attachMediaObjectToDeviceTreeEP7IOMedia
__ZN18IOAppleLabelScheme29instantiateDesiredMediaObjectEP12OSDictionary
__ZN18IOAppleLabelScheme31detachMediaObjectFromDeviceTreeEP7IOMedia
__ZN18IOAppleLabelScheme4freeEv
__ZN18IOAppleLabelScheme4initEP12OSDictionary
__ZN18IOAppleLabelScheme4scanEPi
__ZN18IOAppleLabelScheme4stopEP9IOService
__ZN18IOAppleLabelScheme5probeEP9IOServicePi
__ZN18IOAppleLabelScheme5startEP9IOService
__ZN18IOAppleLabelScheme9MetaClassC1Ev
__ZN18IOAppleLabelScheme9MetaClassC2Ev
__ZN18IOAppleLabelScheme9metaClassE
__ZN18IOAppleLabelSchemeC1EPK11OSMetaClass
__ZN18IOAppleLabelSchemeC1Ev
__ZN18IOAppleLabelSchemeC2EPK11OSMetaClass
__ZN18IOAppleLabelSchemeC2Ev
__ZN18IOAppleLabelSchemeD0Ev
__ZN18IOAppleLabelSchemeD1Ev
__ZN18IOAppleLabelSchemeD2Ev
__ZN18IOAppleLabelSchemedlEPvm
__ZN18IOAppleLabelSchemenwEm
__ZN20IOBlockStorageDevice10gMetaClassE
__ZN20IOBlockStorageDevice10superClassE
__ZN20IOBlockStorageDevice11requestIdleEv
__ZN20IOBlockStorageDevice13doSetPriorityEP26IOBlockStorageDeviceExtentjh
__ZN20IOBlockStorageDevice13doSynchronizeEyyj
__ZN20IOBlockStorageDevice13setPropertiesEP8OSObject
__ZN20IOBlockStorageDevice17doLockUnlockMediaEb
__ZN20IOBlockStorageDevice17reportLockabilityEPb
__ZN20IOBlockStorageDevice18doSynchronizeCacheEv
__ZN20IOBlockStorageDevice18getWriteCacheStateEPb
__ZN20IOBlockStorageDevice18setWriteCacheStateEb
__ZN20IOBlockStorageDevice20doGetProvisionStatusEyyPjP35IOBlockStorageProvisionDeviceExtenty
__ZN20IOBlockStorageDevice22reportPollRequirementsEPbS0_
__ZN20IOBlockStorageDevice30_RESERVEDIOBlockStorageDevice4Ev
__ZN20IOBlockStorageDevice30_RESERVEDIOBlockStorageDevice5Ev
__ZN20IOBlockStorageDevice30_RESERVEDIOBlockStorageDevice6Ev
__ZN20IOBlockStorageDevice30_RESERVEDIOBlockStorageDevice7Ev
__ZN20IOBlockStorageDevice30_RESERVEDIOBlockStorageDevice8Ev
__ZN20IOBlockStorageDevice30_RESERVEDIOBlockStorageDevice9Ev
__ZN20IOBlockStorageDevice31_RESERVEDIOBlockStorageDevice10Ev
__ZN20IOBlockStorageDevice31_RESERVEDIOBlockStorageDevice11Ev
__ZN20IOBlockStorageDevice31_RESERVEDIOBlockStorageDevice12Ev
__ZN20IOBlockStorageDevice31_RESERVEDIOBlockStorageDevice13Ev
__ZN20IOBlockStorageDevice31_RESERVEDIOBlockStorageDevice14Ev
__ZN20IOBlockStorageDevice31_RESERVEDIOBlockStorageDevice15Ev
__ZN20IOBlockStorageDevice31_RESERVEDIOBlockStorageDevice16Ev
__ZN20IOBlockStorageDevice31_RESERVEDIOBlockStorageDevice17Ev
__ZN20IOBlockStorageDevice31_RESERVEDIOBlockStorageDevice18Ev
__ZN20IOBlockStorageDevice31_RESERVEDIOBlockStorageDevice19Ev
__ZN20IOBlockStorageDevice31_RESERVEDIOBlockStorageDevice20Ev
__ZN20IOBlockStorageDevice31_RESERVEDIOBlockStorageDevice21Ev
__ZN20IOBlockStorageDevice31_RESERVEDIOBlockStorageDevice22Ev
__ZN20IOBlockStorageDevice31_RESERVEDIOBlockStorageDevice23Ev
__ZN20IOBlockStorageDevice31_RESERVEDIOBlockStorageDevice24Ev
__ZN20IOBlockStorageDevice31_RESERVEDIOBlockStorageDevice25Ev
__ZN20IOBlockStorageDevice31_RESERVEDIOBlockStorageDevice26Ev
__ZN20IOBlockStorageDevice31_RESERVEDIOBlockStorageDevice27Ev
__ZN20IOBlockStorageDevice31_RESERVEDIOBlockStorageDevice28Ev
__ZN20IOBlockStorageDevice31_RESERVEDIOBlockStorageDevice29Ev
__ZN20IOBlockStorageDevice31_RESERVEDIOBlockStorageDevice30Ev
__ZN20IOBlockStorageDevice31_RESERVEDIOBlockStorageDevice31Ev
__ZN20IOBlockStorageDevice4initEP12OSDictionary
__ZN20IOBlockStorageDevice7doUnmapEP26IOBlockStorageDeviceExtentjj
__ZN20IOBlockStorageDevice9MetaClassC1Ev
__ZN20IOBlockStorageDevice9MetaClassC2Ev
__ZN20IOBlockStorageDevice9doDiscardEyy
__ZN20IOBlockStorageDevice9metaClassE
__ZN20IOBlockStorageDeviceC2EPK11OSMetaClass
__ZN20IOBlockStorageDeviceD0Ev
__ZN20IOBlockStorageDeviceD1Ev
__ZN20IOBlockStorageDeviceD2Ev
__ZN20IOBlockStorageDevicedlEPvm
__ZN20IOBlockStorageDevicenwEm
__ZN20IOBlockStorageDriver10ejectMediaEv
__ZN20IOBlockStorageDriver10gMetaClassE
__ZN20IOBlockStorageDriver10handleOpenEP9IOServicejPv
__ZN20IOBlockStorageDriver10superClassE
__ZN20IOBlockStorageDriver11formatMediaEy
__ZN20IOBlockStorageDriver11handleCloseEP9IOServicej
__ZN20IOBlockStorageDriver11handleStartEP9IOService
__ZN20IOBlockStorageDriver11handleYieldEP9IOServicejPv
__ZN20IOBlockStorageDriver11rejectMediaEv
__ZN20IOBlockStorageDriver11requestIdleEv
__ZN20IOBlockStorageDriver11setPriorityEP9IOServiceP15IOStorageExtentjh
__ZN20IOBlockStorageDriver11synchronizeEP9IOServiceyyj
__ZN20IOBlockStorageDriver12didTerminateEP9IOServicejPb
__ZN20IOBlockStorageDriver13checkForMediaEv
__ZN20IOBlockStorageDriver13deleteContextEPNS_7ContextE
__ZN20IOBlockStorageDriver14acceptNewMediaEv
__ZN20IOBlockStorageDriver14breakUpRequestEyP18IOMemoryDescriptorP19IOStorageAttributesP19IOStorageCompletionPNS_7ContextE
__ZN20IOBlockStorageDriver14deblockRequestEyP18IOMemoryDescriptorP19IOStorageAttributesP19IOStorageCompletionPNS_7ContextE
__ZN20IOBlockStorageDriver14executeRequestEyP18IOMemoryDescriptorP19IOStorageAttributesP19IOStorageCompletionPNS_7ContextE
__ZN20IOBlockStorageDriver14initMediaStateEv
__ZN20IOBlockStorageDriver14prepareRequestEyP18IOMemoryDescriptorP19IOStorageAttributesP19IOStorageCompletion
__ZN20IOBlockStorageDriver14schedulePollerEv
__ZN20IOBlockStorageDriver15allocateContextEv
__ZN20IOBlockStorageDriver15incrementErrorsEb
__ZN20IOBlockStorageDriver16handlePowerEventEPvS0_jP9IOServiceS0_m
__ZN20IOBlockStorageDriver16incrementRetriesEb
__ZN20IOBlockStorageDriver16unschedulePollerEv
__ZN20IOBlockStorageDriver16validateNewMediaEv
__ZN20IOBlockStorageDriver17decommissionMediaEb
__ZN20IOBlockStorageDriver17getDeviceTypeNameEv
__ZN20IOBlockStorageDriver18constrainByteCountEyb
__ZN20IOBlockStorageDriver18copyPhysicalExtentEP9IOServicePyS2_
__ZN20IOBlockStorageDriver18getProvisionStatusEP9IOServiceyyPjP24IOStorageProvisionExtenty
__ZN20IOBlockStorageDriver19lockPhysicalExtentsEP9IOService
__ZN20IOBlockStorageDriver20mediaStateHasChangedEj
__ZN20IOBlockStorageDriver21addToBytesTransferredEyyyb
__ZN20IOBlockStorageDriver21breakUpRequestExecuteEPvS0_
__ZN20IOBlockStorageDriver21deblockRequestExecuteEPvS0_
__ZN20IOBlockStorageDriver21recordMediaParametersEv
__ZN20IOBlockStorageDriver21unlockPhysicalExtentsEP9IOService
__ZN20IOBlockStorageDriver22instantiateMediaObjectEyyjPc
__ZN20IOBlockStorageDriver24breakUpRequestCompletionEPvS0_iy
__ZN20IOBlockStorageDriver24deblockRequestCompletionEPvS0_iy
__ZN20IOBlockStorageDriver24prepareRequestCompletionEPvS0_iy
__ZN20IOBlockStorageDriver29instantiateDesiredMediaObjectEv
__ZN20IOBlockStorageDriver30_RESERVEDIOBlockStorageDriver0Ev
__ZN20IOBlockStorageDriver30_RESERVEDIOBlockStorageDriver1Ev
__ZN20IOBlockStorageDriver30_RESERVEDIOBlockStorageDriver2Ev
__ZN20IOBlockStorageDriver30_RESERVEDIOBlockStorageDriver3Ev
__ZN20IOBlockStorageDriver30_RESERVEDIOBlockStorageDriver4Ev
__ZN20IOBlockStorageDriver30_RESERVEDIOBlockStorageDriver5Ev
__ZN20IOBlockStorageDriver30_RESERVEDIOBlockStorageDriver6Ev
__ZN20IOBlockStorageDriver30_RESERVEDIOBlockStorageDriver7Ev
__ZN20IOBlockStorageDriver30_RESERVEDIOBlockStorageDriver8Ev
__ZN20IOBlockStorageDriver30_RESERVEDIOBlockStorageDriver9Ev
__ZN20IOBlockStorageDriver31_RESERVEDIOBlockStorageDriver10Ev
__ZN20IOBlockStorageDriver31_RESERVEDIOBlockStorageDriver11Ev
__ZN20IOBlockStorageDriver31_RESERVEDIOBlockStorageDriver12Ev
__ZN20IOBlockStorageDriver31_RESERVEDIOBlockStorageDriver13Ev
__ZN20IOBlockStorageDriver31_RESERVEDIOBlockStorageDriver14Ev
__ZN20IOBlockStorageDriver31_RESERVEDIOBlockStorageDriver15Ev
__ZN20IOBlockStorageDriver31_RESERVEDIOBlockStorageDriver16Ev
__ZN20IOBlockStorageDriver31_RESERVEDIOBlockStorageDriver17Ev
__ZN20IOBlockStorageDriver31_RESERVEDIOBlockStorageDriver18Ev
__ZN20IOBlockStorageDriver31_RESERVEDIOBlockStorageDriver19Ev
__ZN20IOBlockStorageDriver31_RESERVEDIOBlockStorageDriver20Ev
__ZN20IOBlockStorageDriver31_RESERVEDIOBlockStorageDriver21Ev
__ZN20IOBlockStorageDriver31_RESERVEDIOBlockStorageDriver22Ev
__ZN20IOBlockStorageDriver31_RESERVEDIOBlockStorageDriver23Ev
__ZN20IOBlockStorageDriver31_RESERVEDIOBlockStorageDriver24Ev
__ZN20IOBlockStorageDriver31_RESERVEDIOBlockStorageDriver25Ev
__ZN20IOBlockStorageDriver31_RESERVEDIOBlockStorageDriver26Ev
__ZN20IOBlockStorageDriver31_RESERVEDIOBlockStorageDriver27Ev
__ZN20IOBlockStorageDriver31_RESERVEDIOBlockStorageDriver28Ev
__ZN20IOBlockStorageDriver31_RESERVEDIOBlockStorageDriver29Ev
__ZN20IOBlockStorageDriver31_RESERVEDIOBlockStorageDriver30Ev
__ZN20IOBlockStorageDriver31_RESERVEDIOBlockStorageDriver31Ev
__ZN20IOBlockStorageDriver4freeEv
__ZN20IOBlockStorageDriver4initEP12OSDictionary
__ZN20IOBlockStorageDriver4readEP9IOServiceyP18IOMemoryDescriptorP19IOStorageAttributesP19IOStorageCompletion
__ZN20IOBlockStorageDriver4stopEP9IOService
__ZN20IOBlockStorageDriver5startEP9IOService
__ZN20IOBlockStorageDriver5unmapEP9IOServiceP15IOStorageExtentjj
__ZN20IOBlockStorageDriver5writeEP9IOServiceyP18IOMemoryDescriptorP19IOStorageAttributesP19IOStorageCompletion
__ZN20IOBlockStorageDriver5yieldEP9IOServicejPv
__ZN20IOBlockStorageDriver7messageEjP9IOServicePv
__ZN20IOBlockStorageDriver9MetaClassC1Ev
__ZN20IOBlockStorageDriver9MetaClassC2Ev
__ZN20IOBlockStorageDriver9lockMediaEb
__ZN20IOBlockStorageDriver9metaClassE
__ZN20IOBlockStorageDriver9pollMediaEv
__ZN20IOBlockStorageDriverC1EPK11OSMetaClass
__ZN20IOBlockStorageDriverC1Ev
__ZN20IOBlockStorageDriverC2EPK11OSMetaClass
__ZN20IOBlockStorageDriverC2Ev
__ZN20IOBlockStorageDriverD0Ev
__ZN20IOBlockStorageDriverD1Ev
__ZN20IOBlockStorageDriverD2Ev
__ZN20IOBlockStorageDriverdlEPvm
__ZN20IOBlockStorageDrivernwEm
__ZN21IOGUIDPartitionScheme10gMetaClassE
__ZN21IOGUIDPartitionScheme10superClassE
__ZN21IOGUIDPartitionScheme11handleCloseEP9IOServicej
__ZN21IOGUIDPartitionScheme12requestProbeEj
__ZN21IOGUIDPartitionScheme15isPartitionUsedEP7gpt_ent
__ZN21IOGUIDPartitionScheme18isPartitionCorruptEP7gpt_entj
__ZN21IOGUIDPartitionScheme18isPartitionInvalidEP7gpt_entj
__ZN21IOGUIDPartitionScheme22instantiateMediaObjectEP7gpt_entj
__ZN21IOGUIDPartitionScheme29instantiateDesiredMediaObjectEP7gpt_entj
__ZN21IOGUIDPartitionScheme31_RESERVEDIOGUIDPartitionScheme0Ev
__ZN21IOGUIDPartitionScheme31_RESERVEDIOGUIDPartitionScheme1Ev
__ZN21IOGUIDPartitionScheme31_RESERVEDIOGUIDPartitionScheme2Ev
__ZN21IOGUIDPartitionScheme31_RESERVEDIOGUIDPartitionScheme3Ev
__ZN21IOGUIDPartitionScheme31_RESERVEDIOGUIDPartitionScheme4Ev
__ZN21IOGUIDPartitionScheme31_RESERVEDIOGUIDPartitionScheme5Ev
__ZN21IOGUIDPartitionScheme31_RESERVEDIOGUIDPartitionScheme6Ev
__ZN21IOGUIDPartitionScheme31_RESERVEDIOGUIDPartitionScheme7Ev
__ZN21IOGUIDPartitionScheme31_RESERVEDIOGUIDPartitionScheme8Ev
__ZN21IOGUIDPartitionScheme31_RESERVEDIOGUIDPartitionScheme9Ev
__ZN21IOGUIDPartitionScheme32_RESERVEDIOGUIDPartitionScheme10Ev
__ZN21IOGUIDPartitionScheme32_RESERVEDIOGUIDPartitionScheme11Ev
__ZN21IOGUIDPartitionScheme32_RESERVEDIOGUIDPartitionScheme12Ev
__ZN21IOGUIDPartitionScheme32_RESERVEDIOGUIDPartitionScheme13Ev
__ZN21IOGUIDPartitionScheme32_RESERVEDIOGUIDPartitionScheme14Ev
__ZN21IOGUIDPartitionScheme32_RESERVEDIOGUIDPartitionScheme15Ev
__ZN21IOGUIDPartitionScheme4freeEv
__ZN21IOGUIDPartitionScheme4initEP12OSDictionary
__ZN21IOGUIDPartitionScheme4scanEPi
__ZN21IOGUIDPartitionScheme4stopEP9IOService
__ZN21IOGUIDPartitionScheme5probeEP9IOServicePi
__ZN21IOGUIDPartitionScheme5startEP9IOService
__ZN21IOGUIDPartitionScheme7messageEjP9IOServicePv
__ZN21IOGUIDPartitionScheme9MetaClassC1Ev
__ZN21IOGUIDPartitionScheme9MetaClassC2Ev
__ZN21IOGUIDPartitionScheme9metaClassE
__ZN21IOGUIDPartitionSchemeC1EPK11OSMetaClass
__ZN21IOGUIDPartitionSchemeC1Ev
__ZN21IOGUIDPartitionSchemeC2EPK11OSMetaClass
__ZN21IOGUIDPartitionSchemeC2Ev
__ZN21IOGUIDPartitionSchemeD0Ev
__ZN21IOGUIDPartitionSchemeD1Ev
__ZN21IOGUIDPartitionSchemeD2Ev
__ZN21IOGUIDPartitionSchemedlEPvm
__ZN21IOGUIDPartitionSchemenwEm
__ZN22IOApplePartitionScheme10gMetaClassE
__ZN22IOApplePartitionScheme10superClassE
__ZN22IOApplePartitionScheme12requestProbeEj
__ZN22IOApplePartitionScheme18isPartitionCorruptEP4dpmejj
__ZN22IOApplePartitionScheme18isPartitionInvalidEP4dpmejj
__ZN22IOApplePartitionScheme22instantiateMediaObjectEP4dpmejj
__ZN22IOApplePartitionScheme29instantiateDesiredMediaObjectEP4dpmejj
__ZN22IOApplePartitionScheme32_RESERVEDIOApplePartitionScheme0Ev
__ZN22IOApplePartitionScheme32_RESERVEDIOApplePartitionScheme1Ev
__ZN22IOApplePartitionScheme32_RESERVEDIOApplePartitionScheme2Ev
__ZN22IOApplePartitionScheme32_RESERVEDIOApplePartitionScheme3Ev
__ZN22IOApplePartitionScheme32_RESERVEDIOApplePartitionScheme4Ev
__ZN22IOApplePartitionScheme32_RESERVEDIOApplePartitionScheme5Ev
__ZN22IOApplePartitionScheme32_RESERVEDIOApplePartitionScheme6Ev
__ZN22IOApplePartitionScheme32_RESERVEDIOApplePartitionScheme7Ev
__ZN22IOApplePartitionScheme32_RESERVEDIOApplePartitionScheme8Ev
__ZN22IOApplePartitionScheme32_RESERVEDIOApplePartitionScheme9Ev
__ZN22IOApplePartitionScheme33_RESERVEDIOApplePartitionScheme10Ev
__ZN22IOApplePartitionScheme33_RESERVEDIOApplePartitionScheme11Ev
__ZN22IOApplePartitionScheme33_RESERVEDIOApplePartitionScheme12Ev
__ZN22IOApplePartitionScheme33_RESERVEDIOApplePartitionScheme13Ev
__ZN22IOApplePartitionScheme33_RESERVEDIOApplePartitionScheme14Ev
__ZN22IOApplePartitionScheme33_RESERVEDIOApplePartitionScheme15Ev
__ZN22IOApplePartitionScheme4freeEv
__ZN22IOApplePartitionScheme4initEP12OSDictionary
__ZN22IOApplePartitionScheme4scanEPi
__ZN22IOApplePartitionScheme4stopEP9IOService
__ZN22IOApplePartitionScheme5probeEP9IOServicePi
__ZN22IOApplePartitionScheme5startEP9IOService
__ZN22IOApplePartitionScheme9MetaClassC1Ev
__ZN22IOApplePartitionScheme9MetaClassC2Ev
__ZN22IOApplePartitionScheme9metaClassE
__ZN22IOApplePartitionSchemeC1EPK11OSMetaClass
__ZN22IOApplePartitionSchemeC1Ev
__ZN22IOApplePartitionSchemeC2EPK11OSMetaClass
__ZN22IOApplePartitionSchemeC2Ev
__ZN22IOApplePartitionSchemeD0Ev
__ZN22IOApplePartitionSchemeD1Ev
__ZN22IOApplePartitionSchemeD2Ev
__ZN22IOApplePartitionSchemedlEPvm
__ZN22IOApplePartitionSchemenwEm
__ZN22IOFDiskPartitionScheme10gMetaClassE
__ZN22IOFDiskPartitionScheme10superClassE
__ZN22IOFDiskPartitionScheme12requestProbeEj
__ZN22IOFDiskPartitionScheme15isPartitionUsedEP10fdisk_part
__ZN22IOFDiskPartitionScheme18isPartitionCorruptEP10fdisk_partjj
__ZN22IOFDiskPartitionScheme18isPartitionInvalidEP10fdisk_partjj
__ZN22IOFDiskPartitionScheme19isPartitionExtendedEP10fdisk_part
__ZN22IOFDiskPartitionScheme22instantiateMediaObjectEP10fdisk_partjj
__ZN22IOFDiskPartitionScheme29instantiateDesiredMediaObjectEP10fdisk_partjj
__ZN22IOFDiskPartitionScheme32_RESERVEDIOFDiskPartitionScheme0Ev
__ZN22IOFDiskPartitionScheme32_RESERVEDIOFDiskPartitionScheme1Ev
__ZN22IOFDiskPartitionScheme32_RESERVEDIOFDiskPartitionScheme2Ev
__ZN22IOFDiskPartitionScheme32_RESERVEDIOFDiskPartitionScheme3Ev
__ZN22IOFDiskPartitionScheme32_RESERVEDIOFDiskPartitionScheme4Ev
__ZN22IOFDiskPartitionScheme32_RESERVEDIOFDiskPartitionScheme5Ev
__ZN22IOFDiskPartitionScheme32_RESERVEDIOFDiskPartitionScheme6Ev
__ZN22IOFDiskPartitionScheme32_RESERVEDIOFDiskPartitionScheme7Ev
__ZN22IOFDiskPartitionScheme32_RESERVEDIOFDiskPartitionScheme8Ev
__ZN22IOFDiskPartitionScheme32_RESERVEDIOFDiskPartitionScheme9Ev
__ZN22IOFDiskPartitionScheme33_RESERVEDIOFDiskPartitionScheme10Ev
__ZN22IOFDiskPartitionScheme33_RESERVEDIOFDiskPartitionScheme11Ev
__ZN22IOFDiskPartitionScheme33_RESERVEDIOFDiskPartitionScheme12Ev
__ZN22IOFDiskPartitionScheme33_RESERVEDIOFDiskPartitionScheme13Ev
__ZN22IOFDiskPartitionScheme33_RESERVEDIOFDiskPartitionScheme14Ev
__ZN22IOFDiskPartitionScheme33_RESERVEDIOFDiskPartitionScheme15Ev
__ZN22IOFDiskPartitionScheme4freeEv
__ZN22IOFDiskPartitionScheme4initEP12OSDictionary
__ZN22IOFDiskPartitionScheme4scanEPi
__ZN22IOFDiskPartitionScheme4stopEP9IOService
__ZN22IOFDiskPartitionScheme5probeEP9IOServicePi
__ZN22IOFDiskPartitionScheme5startEP9IOService
__ZN22IOFDiskPartitionScheme9MetaClassC1Ev
__ZN22IOFDiskPartitionScheme9MetaClassC2Ev
__ZN22IOFDiskPartitionScheme9metaClassE
__ZN22IOFDiskPartitionSchemeC1EPK11OSMetaClass
__ZN22IOFDiskPartitionSchemeC1Ev
__ZN22IOFDiskPartitionSchemeC2EPK11OSMetaClass
__ZN22IOFDiskPartitionSchemeC2Ev
__ZN22IOFDiskPartitionSchemeD0Ev
__ZN22IOFDiskPartitionSchemeD1Ev
__ZN22IOFDiskPartitionSchemeD2Ev
__ZN22IOFDiskPartitionSchemedlEPvm
__ZN22IOFDiskPartitionSchemenwEm
__ZN7IOMedia10gMetaClassE
__ZN7IOMedia10handleOpenEP9IOServicejPv
__ZN7IOMedia10superClassE
__ZN7IOMedia11handleCloseEP9IOServicej
__ZN7IOMedia11setPriorityEP9IOServiceP15IOStorageExtentjh
__ZN7IOMedia11synchronizeEP9IOServiceyyj
__ZN7IOMedia13attachToChildEP15IORegistryEntryPK15IORegistryPlane
__ZN7IOMedia13scheduleProbeEP9IOService
__ZN7IOMedia15detachFromChildEP15IORegistryEntryPK15IORegistryPlane
__ZN7IOMedia17_RESERVEDIOMedia0Ev
__ZN7IOMedia17_RESERVEDIOMedia1Ev
__ZN7IOMedia17_RESERVEDIOMedia2Ev
__ZN7IOMedia17_RESERVEDIOMedia3Ev
__ZN7IOMedia17_RESERVEDIOMedia4Ev
__ZN7IOMedia17_RESERVEDIOMedia5Ev
__ZN7IOMedia17_RESERVEDIOMedia6Ev
__ZN7IOMedia17_RESERVEDIOMedia7Ev
__ZN7IOMedia17_RESERVEDIOMedia8Ev
__ZN7IOMedia17_RESERVEDIOMedia9Ev
__ZN7IOMedia18_RESERVEDIOMedia10Ev
__ZN7IOMedia18_RESERVEDIOMedia11Ev
__ZN7IOMedia18_RESERVEDIOMedia12Ev
__ZN7IOMedia18_RESERVEDIOMedia13Ev
__ZN7IOMedia18_RESERVEDIOMedia14Ev
__ZN7IOMedia18_RESERVEDIOMedia15Ev
__ZN7IOMedia18copyPhysicalExtentEP9IOServicePyS2_
__ZN7IOMedia18getProvisionStatusEP9IOServiceyyPjP24IOStorageProvisionExtenty
__ZN7IOMedia18matchPropertyTableEP12OSDictionaryPi
__ZN7IOMedia19lockPhysicalExtentsEP9IOService
__ZN7IOMedia21unlockPhysicalExtentsEP9IOService
__ZN7IOMedia23scheduleRegisterServiceEv
__ZN7IOMedia4freeEv
__ZN7IOMedia4initEyyyjbbPKcP12OSDictionary
__ZN7IOMedia4readEP9IOServiceyP18IOMemoryDescriptorP19IOStorageAttributesP19IOStorageCompletion
__ZN7IOMedia5closeEP9IOServicej
__ZN7IOMedia5unmapEP9IOServiceP15IOStorageExtentjj
__ZN7IOMedia5writeEP9IOServiceyP18IOMemoryDescriptorP19IOStorageAttributesP19IOStorageCompletion
__ZN7IOMedia9MetaClassC1Ev
__ZN7IOMedia9MetaClassC2Ev
__ZN7IOMedia9metaClassE
__ZN7IOMediaC1EPK11OSMetaClass
__ZN7IOMediaC1Ev
__ZN7IOMediaC2EPK11OSMetaClass
__ZN7IOMediaC2Ev
__ZN7IOMediaD0Ev
__ZN7IOMediaD1Ev
__ZN7IOMediaD2Ev
__ZN7IOMediadlEPvm
__ZN7IOMedianwEm
__ZN9IOBreaker10gMetaClassE
__ZN9IOBreaker10superClassE
__ZN9IOBreaker12getBreakSizeEyyyyyyyP18IOMemoryDescriptory
__ZN9IOBreaker12getByteStartEv
__ZN9IOBreaker12getNextStageEv
__ZN9IOBreaker13withBreakSizeEyyyyyyyyyP18IOMemoryDescriptorP19IOStorageAttributesP19IOStorageCompletionPv
__ZN9IOBreaker16getRequestBufferEv
__ZN9IOBreaker17getRequestContextEv
__ZN9IOBreaker17getThreadCallbackEv
__ZN9IOBreaker17initWithBreakSizeEyyyyyyyyyP18IOMemoryDescriptorP19IOStorageAttributesP19IOStorageCompletionPv
__ZN9IOBreaker17setThreadCallbackEPFvPvS0_E
__ZN9IOBreaker20getRequestAttributesEv
__ZN9IOBreaker20getRequestCompletionEPy
__ZN9IOBreaker4freeEv
__ZN9IOBreaker9MetaClassC1Ev
__ZN9IOBreaker9MetaClassC2Ev
__ZN9IOBreaker9metaClassE
__ZN9IOBreakerC1EPK11OSMetaClass
__ZN9IOBreakerC1Ev
__ZN9IOBreakerC2EPK11OSMetaClass
__ZN9IOBreakerC2Ev
__ZN9IOBreakerD0Ev
__ZN9IOBreakerD1Ev
__ZN9IOBreakerD2Ev
__ZN9IOBreakerdlEPvm
__ZN9IOBreakernwEm
__ZN9IOStorage10gMetaClassE
__ZN9IOStorage10superClassE
__ZN9IOStorage11setPriorityEP9IOServiceP15IOStorageExtentjh
__ZN9IOStorage11synchronizeEP9IOServiceyyj
__ZN9IOStorage16synchronizeCacheEP9IOService
__ZN9IOStorage18copyPhysicalExtentEP9IOServicePyS2_
__ZN9IOStorage18getProvisionStatusEP9IOServiceyyPjP24IOStorageProvisionExtenty
__ZN9IOStorage19_RESERVEDIOStorage7Ev
__ZN9IOStorage19_RESERVEDIOStorage8Ev
__ZN9IOStorage19_RESERVEDIOStorage9Ev
__ZN9IOStorage19lockPhysicalExtentsEP9IOService
__ZN9IOStorage20_RESERVEDIOStorage10Ev
__ZN9IOStorage20_RESERVEDIOStorage11Ev
__ZN9IOStorage20_RESERVEDIOStorage12Ev
__ZN9IOStorage20_RESERVEDIOStorage13Ev
__ZN9IOStorage20_RESERVEDIOStorage14Ev
__ZN9IOStorage20_RESERVEDIOStorage15Ev
__ZN9IOStorage21unlockPhysicalExtentsEP9IOService
__ZN9IOStorage4openEP9IOServicejj
__ZN9IOStorage4readEP9IOServiceyP18IOMemoryDescriptorP19IOStorageAttributesPy
__ZN9IOStorage5unmapEP9IOServiceP15IOStorageExtentjj
__ZN9IOStorage5writeEP9IOServiceyP18IOMemoryDescriptorP19IOStorageAttributesPy
__ZN9IOStorage6attachEP9IOService
__ZN9IOStorage7discardEP9IOServiceyy
__ZN9IOStorage8completeEP19IOStorageCompletioniy
__ZN9IOStorage9MetaClassC1Ev
__ZN9IOStorage9MetaClassC2Ev
__ZN9IOStorage9metaClassE
__ZN9IOStorageC2EPK11OSMetaClass
__ZN9IOStorageD0Ev
__ZN9IOStorageD1Ev
__ZN9IOStorageD2Ev
__ZN9IOStoragedlEPvm
__ZN9IOStoragenwEm
__ZNK11IODeblocker12getMetaClassEv
__ZNK11IODeblocker9MetaClass5allocEv
__ZNK14IOFilterScheme11getProviderEv
__ZNK14IOFilterScheme12getMetaClassEv
__ZNK14IOFilterScheme12handleIsOpenEPK9IOService
__ZNK14IOFilterScheme9MetaClass5allocEv
__ZNK16IOMediaBSDClient11getProviderEv
__ZNK16IOMediaBSDClient12getMetaClassEv
__ZNK16IOMediaBSDClient9MetaClass5allocEv
__ZNK17IOPartitionScheme11getProviderEv
__ZNK17IOPartitionScheme12getMetaClassEv
__ZNK17IOPartitionScheme12handleIsOpenEPK9IOService
__ZNK17IOPartitionScheme9MetaClass5allocEv
__ZNK18IOAppleLabelScheme12getMetaClassEv
__ZNK18IOAppleLabelScheme9MetaClass5allocEv
__ZNK20IOBlockStorageDevice11getPropertyEPK8OSSymbol
__ZNK20IOBlockStorageDevice12getMetaClassEv
__ZNK20IOBlockStorageDevice9MetaClass5allocEv
__ZNK20IOBlockStorageDriver11getProviderEv
__ZNK20IOBlockStorageDriver12getMetaClassEv
__ZNK20IOBlockStorageDriver12getStatisticENS_10StatisticsE
__ZNK20IOBlockStorageDriver12handleIsOpenEPK9IOService
__ZNK20IOBlockStorageDriver13getMediaStateEv
__ZNK20IOBlockStorageDriver13getStatisticsEPyj
__ZNK20IOBlockStorageDriver15isMediaWritableEv
__ZNK20IOBlockStorageDriver16isMediaEjectableEv
__ZNK20IOBlockStorageDriver16isMediaRemovableEv
__ZNK20IOBlockStorageDriver17getMediaBlockSizeEv
__ZNK20IOBlockStorageDriver19getFormatCapacitiesEPyj
__ZNK20IOBlockStorageDriver19isMediaPollRequiredEv
__ZNK20IOBlockStorageDriver20isMediaPollExpensiveEv
__ZNK20IOBlockStorageDriver9MetaClass5allocEv
__ZNK21IOGUIDPartitionScheme12getMetaClassEv
__ZNK21IOGUIDPartitionScheme9MetaClass5allocEv
__ZNK22IOApplePartitionScheme12getMetaClassEv
__ZNK22IOApplePartitionScheme9MetaClass5allocEv
__ZNK22IOFDiskPartitionScheme12getMetaClassEv
__ZNK22IOFDiskPartitionScheme9MetaClass5allocEv
__ZNK7IOMedia10getContentEv
__ZNK7IOMedia10isWritableEv
__ZNK7IOMedia11getProviderEv
__ZNK7IOMedia11isEjectableEv
__ZNK7IOMedia11isFormattedEv
__ZNK7IOMedia12getMetaClassEv
__ZNK7IOMedia12handleIsOpenEPK9IOService
__ZNK7IOMedia13getAttributesEv
__ZNK7IOMedia14getContentHintEv
__ZNK7IOMedia21getPreferredBlockSizeEv
__ZNK7IOMedia7getBaseEv
__ZNK7IOMedia7getSizeEv
__ZNK7IOMedia7isWholeEv
__ZNK7IOMedia9MetaClass5allocEv
__ZNK9IOBreaker12getMetaClassEv
__ZNK9IOBreaker9MetaClass5allocEv
__ZNK9IOStorage12getMetaClassEv
__ZNK9IOStorage9MetaClass5allocEv
__ZTV11IODeblocker
__ZTV14IOFilterScheme
__ZTV16IOMediaBSDClient
__ZTV17IOPartitionScheme
__ZTV18IOAppleLabelScheme
__ZTV20IOBlockStorageDevice
__ZTV20IOBlockStorageDriver
__ZTV21IOGUIDPartitionScheme
__ZTV22IOApplePartitionScheme
__ZTV22IOFDiskPartitionScheme
__ZTV7IOMedia
__ZTV9IOBreaker
__ZTV9IOStorage
__ZTVN11IODeblocker9MetaClassE
__ZTVN14IOFilterScheme9MetaClassE
__ZTVN16IOMediaBSDClient9MetaClassE
__ZTVN17IOPartitionScheme9MetaClassE
__ZTVN18IOAppleLabelScheme9MetaClassE
__ZTVN20IOBlockStorageDevice9MetaClassE
__ZTVN20IOBlockStorageDriver9MetaClassE
__ZTVN21IOGUIDPartitionScheme9MetaClassE
__ZTVN22IOApplePartitionScheme9MetaClassE
__ZTVN22IOFDiskPartitionScheme9MetaClassE
__ZTVN7IOMedia9MetaClassE
__ZTVN9IOBreaker9MetaClassE
__ZTVN9IOStorage9MetaClassE
