_self_client_handleSession
__ZN8Security12MachPlusPlus10MachServer4busyEv
__ZN8Security5Mutex4lockEv
__ZN8Security12MachPlusPlus10MachServer17ensureReadyThreadEv
__ZN8Security5Mutex6unlockEv
__ZThn144_N6Server6handleEP17mach_msg_header_tS1_
__ZN6Server6handleEP17mach_msg_header_tS1_
__Z11ucsp_serverP17mach_msg_header_tS0_
__Z11self_serverP17mach_msg_header_tS0_
__ZL15_XhandleSessionP17mach_msg_header_tS0_
__Z25self_server_handleSessionjjjy
__ZN8Security6StLockINS_12MachPlusPlus10MachServerEXadL_ZNS2_4busyEvEEXadL_ZNS2_4idleEvEEED2Ev
__ZThn144_N6Server9eventDoneEv
__ZN6Server9eventDoneEv
__ZN8Security12MachPlusPlus10MachServer12processTimerEv
__ZN8Security4Time3nowEv
__ZN8Security12MachPlusPlus10MachServer26releaseDeferredAllocationsEv
__ZN8Security11ModuleNexusINS_11ThreadNexusINS_12MachPlusPlus10MachServer9PerThreadEEEEclEv
__ZN8Security11ThreadNexusINS_12MachPlusPlus10MachServer9PerThreadEEclEv
__ZNSt8_Rb_treeIN8Security12MachPlusPlus10MachServer10AllocationES3_St9_IdentityIS3_ESt4lessIS3_ESaIS3_EE5eraseESt23_Rb_tree_co
__ZNSt8_Rb_treeIN8Security12MachPlusPlus10MachServer10AllocationES3_St9_IdentityIS3_ESt4lessIS3_ESaIS3_EE8_M_eraseEPSt13_Rb_tre
_cdsa_notify_server
__Xmach_notify_dead_name
_cdsa_mach_notify_dead_name
__ZThn144_N6Server14notifyDeadNameEN8Security12MachPlusPlus4PortE
__ZN6Server14notifyDeadNameEN8Security12MachPlusPlus4PortE
__ZNSt8_Rb_treeIN8Security12MachPlusPlus4PortESt4pairIKS2_NS0_10RefPointerI10ConnectionEEESt10_Select1stIS8_ESt4lessIS2_ESaIS8_
__ZNK8Security8RefCount3refEv
__ZN8Security10RefPointerI10ConnectionE7releaseEv
__ZNK8Security8RefCount5unrefEv
__ZN10Connection5abortEb
__ZN8Security12MachPlusPlus5Error5checkEi
__ZN10ConnectionD0Ev
__ZNSt8_Rb_treeIjSt4pairIKjN8Security10RefPointerIN8Listener12NotificationEEEESt10_Select1stIS7_ESt4lessIjESaIS7_EED2Ev
__ZNSt8_Rb_treeIjSt4pairIKjN8Security10RefPointerIN8Listener12NotificationEEEESt10_Select1stIS7_ESt4lessIjESaIS7_EE8_M_eraseEPS
__ZN8NodeCoreD2Ev
__ZNSt8_Rb_treeIN8Security10RefPointerI8NodeCoreEES3_St9_IdentityIS3_ESt4lessIS3_ESaIS3_EED2Ev
__ZNSt8_Rb_treeIN8Security10RefPointerI8NodeCoreEES3_St9_IdentityIS3_ESt4lessIS3_ESaIS3_EE8_M_eraseEPSt13_Rb_tree_nodeIS3_E
__ZN8Security10RefPointerI8NodeCoreE7releaseEv
__ZN8Security5MutexD2Ev
__ZL19_XverifyPrivileged2P17mach_msg_header_tS0_
__Z29ucsp_server_verifyPrivileged2jj13audit_token_tPiPj
__ZL7_XsetupP17mach_msg_header_tS0_
__Z17ucsp_server_setupjj13audit_token_tPijN8Security14SecurityServer15ClientSetupInfoEPKc
__ZN6Server6activeEv
__ZN6Server15setupConnectionENS_12ConnectLevelEN8Security12MachPlusPlus4PortES3_RK13audit_token_tPKNS1_14SecurityServer15Client
__ZN8Security14CommonCriteria10AuditTokenC1ERK13audit_token_t
__ZN8Security14CommonCriteria10AuditTokenC2ERK13audit_token_t
__ZN8Security14CommonCriteria10TerminalIdC2Ev
__ZNSt3mapIN8Security12MachPlusPlus4PortENS0_10RefPointerI7ProcessEESt4lessIS2_ESaISt4pairIKS2_S5_EEEixERS9_
__ZNSt8_Rb_treeIN8Security12MachPlusPlus4PortESt4pairIKS2_NS0_10RefPointerI7ProcessEEESt10_Select1stIS8_ESt4lessIS2_ESaIS8_EE9_
__ZNSt8_Rb_treeIN8Security12MachPlusPlus4PortESt4pairIKS2_NS0_10RefPointerI7ProcessEEESt10_Select1stIS8_ESt4lessIS2_ESaIS8_EE14
__ZN9__gnu_cxx13new_allocatorISt4pairIKN8Security12MachPlusPlus4PortENS2_10RefPointerI7ProcessEEEE9constructEPS9_RKS9_
__ZN8Security10RefPointerI7ProcessE7releaseEv
__ZN7ProcessC1EN8Security12MachPlusPlus8TaskPortEPKNS0_14SecurityServer15ClientSetupInfoERKNS0_14CommonCriteria10AuditTokenE
__ZN7ProcessC2EN8Security12MachPlusPlus8TaskPortEPKNS0_14SecurityServer15ClientSetupInfoERKNS0_14CommonCriteria10AuditTokenE
__ZN10PerProcessC2Ev
__ZN8Security13MappingHandleIjE4makeEv
__ZN8Security11ModuleNexusINS_13MappingHandleIjE5StateEEclEv
__ZN9__gnu_cxx9hashtableISt4pairIKjPN8Security13MappingHandleIjEEEjNS_4hashIjEESt10_Select1stIS7_ESt8equal_toIjESaIS6_EE4findER
__ZN9__gnu_cxx9hashtableISt4pairIKjPN8Security13MappingHandleIjEEEjNS_4hashIjEESt10_Select1stIS7_ESt8equal_toIjESaIS6_EE14find_
__ZN9__gnu_cxx9hashtableISt4pairIKjPN8Security13MappingHandleIjEEEjNS_4hashIjEESt10_Select1stIS7_ESt8equal_toIjESaIS6_EE6resize
__ZN8NodeCoreC2Ev
__ZN8Security5MutexC2ENS0_4TypeE
__ZN8Security11ModuleNexusI15MutexAttributesEclEv
__ZN15CodeSigningHostC2Ev
__ZN8Security5MutexC1ENS0_4TypeE
__ZN20ClientIdentificationC2Ev
__ZN14CodeSignatures8IdentityC2Ev
__ZN8Security5MutexC1Ev
__ZN8Security5MutexC2Ev
__ZN7Session4findEib
__ZNSt8_Rb_treeIiSt4pairIKiN8Security10RefPointerI7SessionEEESt10_Select1stIS6_ESt4lessIiESaIS6_EE4findERS1_
__ZN8Security14CommonCriteria9AuditInfo3getEi
__ZN8Security9UnixError5checkEi
__ZN7SessionC2ERKN8Security14CommonCriteria9AuditInfoER6Server
__ZN13Authorization10CredentialC1Ev
__ZN13Authorization10CredentialC2Ev
__ZN13Authorization14CredentialImplC2Ev
__ZN8NodeCore6parentERS_
__ZN8Security10RefPointerI8NodeCoreE10setPointerEPS1_
__ZNSt3mapIiN8Security10RefPointerI7SessionEESt4lessIiESaISt4pairIKiS3_EEEixERS7_
__ZNSt8_Rb_treeIiSt4pairIKiN8Security10RefPointerI7SessionEEESt10_Select1stIS6_ESt4lessIiESaIS6_EE16_M_insert_uniqueESt17_Rb_tr
__ZNSt8_Rb_treeIiSt4pairIKiN8Security10RefPointerI7SessionEEESt10_Select1stIS6_ESt4lessIiESaIS6_EE9_M_insertEPSt18_Rb_tree_node
__ZNSt8_Rb_treeIiSt4pairIKiN8Security10RefPointerI7SessionEEESt10_Select1stIS6_ESt4lessIiESaIS6_EE14_M_create_nodeERKS6_
__ZN9__gnu_cxx13new_allocatorISt4pairIKiN8Security10RefPointerI7SessionEEEE9constructEPS7_RKS7_
__ZN8Security10RefPointerI7SessionE7releaseEv
__ZN8Security10RefPointerI7SessionE10setPointerEPS1_
__ZN8Security6Syslog6noticeEPKcz
__ZNSt8_Rb_treeIiSt4pairIKiN8Security10RefPointerI7SessionEEESt10_Select1stIS6_ESt4lessIiESaIS6_EE16_M_insert_uniqueERKS6_
__ZNK8Security12MachPlusPlus8TaskPort3pidEv
__ZN7Process5setupEPKN8Security14SecurityServer15ClientSetupInfoE
__ZN20ClientIdentification5setupEi
__ZNSt8_Rb_treeIjSt4pairIKjN20ClientIdentification10GuestStateEESt10_Select1stIS4_ESt4lessIjESaIS4_EE5eraseESt17_Rb_tree_iterat
__ZNSt8_Rb_treeIjSt4pairIKjN20ClientIdentification10GuestStateEESt10_Select1stIS4_ESt4lessIjESaIS4_EE8_M_eraseEPSt13_Rb_tree_no
__ZN8Security12UnixPlusPlus5Child4findI11ServerChildEEPT_i
__ZN8Security12UnixPlusPlus5Child11findGenericEi
__ZN8Security11ModuleNexusINS_12UnixPlusPlus5Child8ChildrenEEclEv
__ZNSt8_Rb_treeIiSt4pairIKiPN8Security12UnixPlusPlus5ChildEESt10_Select1stIS6_ESt4lessIiESaIS6_EE4findERS1_
__ZN8Security10RefPointerI7ProcessE10setPointerEPS1_
__ZNK8Security12MachPlusPlus10MachServer12notifyIfDeadENS0_4PortEb
__ZN8Security12MachPlusPlus4Port13requestNotifyEjij
__ZNSt3mapIiP7ProcessSt4lessIiESaISt4pairIKiS1_EEEixERS5_
__ZNSt8_Rb_treeIiSt4pairIKiP7ProcessESt10_Select1stIS4_ESt4lessIiESaIS4_EE16_M_insert_uniqueESt17_Rb_tree_iteratorIS4_ERKS4_
__ZNSt8_Rb_treeIiSt4pairIKiP7ProcessESt10_Select1stIS4_ESt4lessIiESaIS4_EE9_M_insertEPSt18_Rb_tree_node_baseSC_RKS4_
__ZN10ConnectionC1ER7ProcessN8Security12MachPlusPlus4PortE
__ZN10ConnectionC2ER7ProcessN8Security12MachPlusPlus4PortE
__ZNKSt8_Rb_treeIN8Security12MachPlusPlus4PortESt4pairIKS2_NS0_10RefPointerI10ConnectionEEESt10_Select1stIS8_ESt4lessIS2_ESaIS8
__ZNSt3mapIN8Security12MachPlusPlus4PortENS0_10RefPointerI10ConnectionEESt4lessIS2_ESaISt4pairIKS2_S5_EEEixERS9_
__ZN9__gnu_cxx13new_allocatorISt4pairIKN8Security12MachPlusPlus4PortENS2_10RefPointerI10ConnectionEEEE9constructEPS9_RKS9_
__ZN8Security10RefPointerI10ConnectionE10setPointerEPS1_
__ZN6Server10connectionEjR13audit_token_t
__ZNK7PortMapI10ConnectionE3getEji
__ZN7Process12checkSessionERK13audit_token_t
__ZN8Security11ThreadNexusINS_10RefPointerI10ConnectionEEEclEv
__ZN10Connection9beginWorkER13audit_token_t
__ZN13Authorization11AuthItemSetC1EPK20AuthorizationItemSet
__ZN13Authorization11AuthItemSetC2EPK20AuthorizationItemSet
__ZNK7Process7sessionEv
__ZNSt8_Rb_treeIN13Authorization10CredentialES1_St9_IdentityIS1_ESt4lessIS1_ESaIS1_EEC2ERKS7_
__ZN6Server7processEv
__ZN6Server10connectionEb
__ZN10Connection9checkWorkEv
__ZN13Authorization11AuthItemSetC1Ev
__ZNK20ClientIdentification12currentGuestEv
__ZNK20ClientIdentification7currentEv
__ZNSt8_Rb_treeIjSt4pairIKjN20ClientIdentification10GuestStateEESt10_Select1stIS4_ESt4lessIjESaIS4_EE4findERS1_
__ZN8Security12MachPlusPlus10MachServer16longTermActivityEv
__ZN8Security5CFRefIP9__SecCodeEaSERKS3_
__ZNSt3mapIjN20ClientIdentification10GuestStateESt4lessIjESaISt4pairIKjS1_EEEixERS5_
__ZNSt8_Rb_treeIjSt4pairIKjN20ClientIdentification10GuestStateEESt10_Select1stIS4_ESt4lessIjESaIS4_EE16_M_insert_uniqueESt17_Rb
__ZNSt8_Rb_treeIjSt4pairIKjN20ClientIdentification10GuestStateEESt10_Select1stIS4_ESt4lessIjESaIS4_EE16_M_insert_uniqueERKS4_
__ZNSt8_Rb_treeIjSt4pairIKjN20ClientIdentification10GuestStateEESt10_Select1stIS4_ESt4lessIjESaIS4_EE9_M_insertEPSt18_Rb_tree_n
__ZNSt8_Rb_treeIjSt4pairIKjN20ClientIdentification10GuestStateEESt10_Select1stIS4_ESt4lessIjESaIS4_EE14_M_create_nodeERKS4_
__ZN8NodeCore8referentERS_
__ZN8Security18DevRandomGenerator6randomEPvm
__ZN8Security11ModuleNexusINS_18DevRandomGenerator8ReadonlyEEclEv
__ZN8Security12UnixPlusPlus8FileDesc4readEPvm
__ZNSt8_Rb_treeIN13Authorization10CredentialES1_St9_IdentityIS1_ESt4lessIS1_ESaIS1_EEaSERKS7_
__ZNSt8_Rb_treeIN13Authorization10CredentialES1_St9_IdentityIS1_ESt4lessIS1_ESaIS1_EE8_M_eraseEPSt13_Rb_tree_nodeIS1_E
__ZN13Authorization6Engine9authorizeERKNS_11AuthItemSetES3_jPKSt3setINS_10CredentialESt4lessIS5_ESaIS5_EEPS9_RS1_R18Authorizati
__ZN13Authorization11AuthItemSetC1ERKS0_
__ZN13Authorization11AuthItemSetC2ERKS0_
__ZNSt8_Rb_treeIN13Authorization11AuthItemRefES1_St9_IdentityIS1_ESt4lessIS1_ESaIS1_EEC2ERKS7_
__ZN8Security14CommonCriteria9Securityd25RightAuthenticationLoggerC1ERKNS0_10AuditTokenEs
__ZN8Security14CommonCriteria9Securityd25RightAuthenticationLoggerC2ERKNS0_10AuditTokenEs
__ZN8Security14CommonCriteria9Securityd11AuditLoggerC2ERKNS0_10AuditTokenEs
__ZN8Security14CommonCriteria9Securityd11RightLoggerC2Ev
__ZNSt8_Rb_treeIN13Authorization10CredentialES1_St9_IdentityIS1_ESt4lessIS1_ESaIS1_EE4swapERS7_
__ZNSt6vectorIN13Authorization11AuthItemRefESaIS1_EED2Ev
__ZN8Security14CommonCriteria9Securityd25RightAuthenticationLoggerD2Ev
__ZN8Security14CommonCriteria9Securityd11AuditLoggerD2Ev
__ZN8Security14CommonCriteria9Securityd11AuditLogger5closeEb
__ZN13Authorization11AuthItemSetD1Ev
__ZN13Authorization11AuthItemSetD2Ev
__ZNSt8_Rb_treeIN13Authorization11AuthItemRefES1_St9_IdentityIS1_ESt4lessIS1_ESaIS1_EED2Ev
__ZNSt8_Rb_treeIN13Authorization11AuthItemRefES1_St9_IdentityIS1_ESt4lessIS1_ESaIS1_EE8_M_eraseEPSt13_Rb_tree_nodeIS1_E
__ZNSt8_Rb_treeIN13Authorization10CredentialES1_St9_IdentityIS1_ESt4lessIS1_ESaIS1_EED2Ev
__ZNSt8_Rb_treeIP7ProcessS1_St9_IdentityIS1_ESt4lessIS1_ESaIS1_EE16_M_insert_uniqueERKS1_
__ZNSt8_Rb_treeIP7ProcessS1_St9_IdentityIS1_ESt4lessIS1_ESaIS1_EE9_M_insertEPSt18_Rb_tree_node_baseS9_RKS1_
__ZN6Server15requestCompleteERi
__ZN10Connection7endWorkERi
_copyout_AuthorizationItemSet
_copyout
_sec_xdrmem_create
_sec_xdr_sizeof_out
_sec_xdr_arena_init_size_alloc
_xdr_AuthorizationItemSetPtr
_sec_xdr_reference
_sec_xdr_arena_size_allocator
_sec_mem_alloc
_xdr_AuthorizationItemSet
_sec_xdr_array
_sec_xdrmem_getlong_aligned
_xdr_AuthorizationItem
_sec_xdr_charp
_sec_xdr_bytes
_sec_xdrmem_getbytes
_sec_xdr_arena_init
__ZN13Authorization11AuthItemRefC2ERK17AuthorizationItem
__ZN13Authorization8AuthItemC2ERK17AuthorizationItem
__ZNSt8_Rb_treeIN13Authorization11AuthItemRefES1_St9_IdentityIS1_ESt4lessIS1_ESaIS1_EE16_M_insert_uniqueERKS1_
__ZNSt8_Rb_treeIN13Authorization11AuthItemRefES1_St9_IdentityIS1_ESt4lessIS1_ESaIS1_EE9_M_insertEPSt18_Rb_tree_node_baseS9_RKS1
__ZNSt8_Rb_treeIN13Authorization11AuthItemRefES1_St9_IdentityIS1_ESt4lessIS1_ESaIS1_EE14_M_create_nodeERKS1_
__ZN9__gnu_cxx13new_allocatorIN13Authorization11AuthItemRefEE9constructEPS2_RKS2_
__ZN8Security10RefPointerIN13Authorization8AuthItemEE7releaseEv
__ZNSt8_Rb_treeIN13Authorization11AuthItemRefES1_St9_IdentityIS1_ESt4lessIS1_ESaIS1_EE7_M_copyEPKSt13_Rb_tree_nodeIS1_EPS9_
__ZNSt6vectorIN13Authorization11AuthItemRefESaIS1_EE6insertEN9__gnu_cxx17__normal_iteratorIPS1_S3_EERKS1_
__ZNSt6vectorIN13Authorization11AuthItemRefESaIS1_EE13_M_insert_auxEN9__gnu_cxx17__normal_iteratorIPS1_S3_EERKS1_
__ZNSt12_Vector_baseIN13Authorization11AuthItemRefESaIS1_EE11_M_allocateEm
__ZSt24__uninitialized_copy_auxIPN13Authorization11AuthItemRefES2_ET0_T_S4_S3_St12__false_type
__ZN8Security8cfStringEPK7__CFURLb
__ZNSt6vectorISsSaISsEEC2ERKS1_
__ZNSt12_Vector_baseISsSaISsEEC2EmRKS0_
__ZNSt12_Vector_baseISsSaISsEE11_M_allocateEm
__ZSt24__uninitialized_copy_auxIN9__gnu_cxx17__normal_iteratorIPKSsSt6vectorISsSaISsEEEEPSsET0_T_SA_S9_St12__false_type
__ZN13Authorization12AuthValueRefC1EjPv
__ZN13Authorization12AuthValueRefC2EjPv
__ZN13Authorization9AuthValueC2EjPv
__ZNSt6vectorIN13Authorization12AuthValueRefESaIS1_EE9push_backERKS1_
__ZNSt6vectorIN13Authorization12AuthValueRefESaIS1_EE13_M_insert_auxEN9__gnu_cxx17__normal_iteratorIPS1_S3_EERKS1_
__ZNSt12_Vector_baseIN13Authorization12AuthValueRefESaIS1_EE11_M_allocateEm
__ZSt24__uninitialized_copy_auxIPN13Authorization12AuthValueRefES2_ET0_T_S4_S3_St12__false_type
__ZN9__gnu_cxx13new_allocatorIN13Authorization12AuthValueRefEE9constructEPS2_RKS2_
__ZN13Authorization11AuthItemRefC1EPKc
__ZN13Authorization11AuthItemRefC2EPKc
__ZN13Authorization8AuthItemC1EPKc
__ZNSt8_Rb_treeIN13Authorization11AuthItemRefES1_St9_IdentityIS1_ESt4lessIS1_ESaIS1_EE5eraseERKS1_
__ZNSt8_Rb_treeIN13Authorization11AuthItemRefES1_St9_IdentityIS1_ESt4lessIS1_ESaIS1_EE11upper_boundERKS1_
__ZNK13Authorization8AuthItemltERKS0_
__ZNSt8_Rb_treeIN13Authorization11AuthItemRefES1_St9_IdentityIS1_ESt4lessIS1_ESaIS1_EE11lower_boundERKS1_
__ZNSt8_Rb_treeIN13Authorization11AuthItemRefES1_St9_IdentityIS1_ESt4lessIS1_ESaIS1_EE5eraseESt17_Rb_tree_iteratorIS1_ES9_
__ZN13Authorization8AuthItemD1Ev
__ZN13Authorization8AuthItemD2Ev
__ZN13Authorization11AuthItemRefC1EPKc18AuthorizationValuej
__ZN13Authorization11AuthItemRefC2EPKc18AuthorizationValuej
__ZN13Authorization8AuthItemC2EPKc18AuthorizationValuej
__Z8codePathPK9__SecCode
__ZNSt8_Rb_treeIN13Authorization11AuthItemRefES1_St9_IdentityIS1_ESt4lessIS1_ESaIS1_EE16_M_insert_uniqueISt23_Rb_tree_const_ite
__ZNSt8_Rb_treeIN13Authorization11AuthItemRefES1_St9_IdentityIS1_ESt4lessIS1_ESaIS1_EE16_M_insert_uniqueESt17_Rb_tree_iteratorI
__ZNSt8_Rb_treeISsSt4pairIKSsSsESt10_Select1stIS2_ESt4lessISsESaIS2_EEC2ERKS8_
__ZNSt8_Rb_treeISsSt4pairIKSsSsESt10_Select1stIS2_ESt4lessISsESaIS2_EEaSERKS8_
__ZNSt8_Rb_treeISsSt4pairIKSsSsESt10_Select1stIS2_ESt4lessISsESaIS2_EE8_M_eraseEPSt13_Rb_tree_nodeIS2_E
__ZNSt8_Rb_treeISsSt4pairIKSsSsESt10_Select1stIS2_ESt4lessISsESaIS2_EED2Ev
__ZNSt8_Rb_treeIN13Authorization11AuthItemRefES1_St9_IdentityIS1_ESt4lessIS1_ESaIS1_EE15_M_destroy_nodeEPSt13_Rb_tree_nodeIS1_E
__ZN8Security14CommonCriteria9Securityd14AuthMechLoggerC1ERKNS0_10AuditTokenEs
__ZN8Security14CommonCriteria9Securityd14AuthMechLoggerC2ERKNS0_10AuditTokenEs
__ZN8Security14CommonCriteria9Securityd11RightLogger8setRightERKSs
__ZN13Authorization11AuthItemSetaSERKS0_
__ZNSt8_Rb_treeIN13Authorization11AuthItemRefES1_St9_IdentityIS1_ESt4lessIS1_ESaIS1_EEaSERKS7_
__ZN8Security14CommonCriteria9Securityd14AuthMechLogger19setCurrentMechanismEPKc
__ZN18SecurityAgentQueryC2ER7Session
__ZNK8Security15ThreadStoreSlotaSEPv
__ZN8Security11ModuleNexusINS_5MutexEEclEv
__ZN8Security11ModuleNexusISt3setIPvSt4lessIS2_ESaIS2_EEEclEv
__ZNSt8_Rb_treeIPvS0_St9_IdentityIS0_ESt4lessIS0_ESaIS0_EE16_M_insert_uniqueERKS0_
__ZNSt8_Rb_treeIPvS0_St9_IdentityIS0_ESt4lessIS0_ESaIS0_EE9_M_insertEPSt18_Rb_tree_node_baseS8_RKS0_
__ZN7Session8authhostEb
__ZN16AuthHostInstanceC1ER7Session
__ZN16AuthHostInstanceC2ER7Session
__ZN11ServerChildC2Ev
__ZN8Security12UnixPlusPlus5ChildC2Ev
__ZN8Security9ConditionC1ERNS_5MutexE
__ZN8Security9ConditionC2ERNS_5MutexE
__ZN8NodeCore12addReferenceERS_
__ZNSt8_Rb_treeIN8Security10RefPointerI8NodeCoreEES3_St9_IdentityIS3_ESt4lessIS3_ESaIS3_EE16_M_insert_uniqueERKS3_
__ZNSt8_Rb_treeIN8Security10RefPointerI8NodeCoreEES3_St9_IdentityIS3_ESt4lessIS3_ESaIS3_EE9_M_insertEPSt18_Rb_tree_node_baseSB_
__ZNSt8_Rb_treeIN8Security10RefPointerI8NodeCoreEES3_St9_IdentityIS3_ESt4lessIS3_ESaIS3_EE14_M_create_nodeERKS3_
__ZN9__gnu_cxx13new_allocatorIN8Security10RefPointerI8NodeCoreEEE9constructEPS4_RKS4_
__Z22initialize_agent_credsv
__ZN18SecurityAgentQuery6createEPKcS1_j
__ZNK16AuthHostInstance7sessionEv
__ZN16AuthHostInstance6lookupEj
__ZNK7Session11updateAuditEv
_sa_request_client_contact
_sa_request_client_create
__ZN8Security12MachPlusPlus7MessageC1Em
__ZN8Security12MachPlusPlus7Message9setBufferEm
__ZN8Security12MachPlusPlus7Message7receiveEjijj
_secagentreply_server
__ZL11_XdidCreateP17mach_msg_header_tS0_
__ZN8Security12MachPlusPlus7MessageD1Ev
__ZN8Security12MachPlusPlus7MessageD2Ev
__ZNSt6vectorIN13Authorization12AuthValueRefESaIS1_EEaSERKS3_
__ZNSt6vectorIN13Authorization12AuthValueRefESaIS1_EE20_M_allocate_and_copyIN9__gnu_cxx17__normal_iteratorIPKS1_S3_EEEEPS1_mT_S
__ZSt24__uninitialized_copy_auxIN9__gnu_cxx17__normal_iteratorIPKN13Authorization12AuthValueRefESt6vectorIS3_SaIS3_EEEEPS3_ET0_
__ZN8Security9Allocator8standardEj
__ZN8Security11ModuleNexusI17DefaultAllocatorsEclEv
__ZNK13Authorization11AuthItemSet4copyERP20AuthorizationItemSetRmRN8Security9AllocatorE
__ZN8Security11DataWalkers6CopierI20AuthorizationItemSetEC2EPKS2_RNS_9AllocatorE
__ZN8Security11DataWalkers4walkINS0_10SizeWalkerEEEP20AuthorizationItemSetRT_RS4_
__ZN8Security11DataWalkers4walkINS0_10SizeWalkerEEEPcRT_RS3_
__ZN16DefaultAllocator6mallocEm
__ZN8Security11DataWalkers4copyI20AuthorizationItemSetEEPT_PKS3_Pv
__ZN8Security11DataWalkers4walkINS0_10CopyWalkerEEEP20AuthorizationItemSetRT_RS4_
__ZN8Security11DataWalkers4walkINS0_10CopyWalkerEEEvRT_R17AuthorizationItem
__ZN8Security11DataWalkers4walkINS0_10CopyWalkerEEEPcRT_RS3_
__ZN16DefaultAllocator4freeEPv
__ZNK13Authorization15AuthValueVector4copyEPP24AuthorizationValueVectorPm
__ZN8Security11DataWalkers6CopierI24AuthorizationValueVectorEC2EPKS2_RNS_9AllocatorE
__ZN8Security11DataWalkers4walkINS0_10SizeWalkerEEEP24AuthorizationValueVectorRT_RS4_
__ZN8Security11DataWalkers4copyI24AuthorizationValueVectorEEPT_PKS3_Pv
__ZN8Security11DataWalkers4walkINS0_10CopyWalkerEEEP24AuthorizationValueVectorRT_RS4_
_sa_request_client_invoke
__ZL11_XsetResultP17mach_msg_header_tS0_
__ZN13Authorization11AuthItemSetaSERK20AuthorizationItemSet
__ZN8Security14CommonCriteria9Securityd11AuditLogger10logSuccessEv
__ZN8Security14CommonCriteria9Securityd11AuditLogger4openEv
__ZN8Security14CommonCriteria9Securityd14AuthMechLogger11writeCommonEv
__ZN8Security14CommonCriteria9Securityd11AuditLogger12writeSubjectEv
__ZN8Security14CommonCriteria9Securityd11AuditLogger10writeTokenEP8au_tokenPKc
__ZN8NodeCore4killERS_
__ZN8NodeCore4killEv
__ZN8NodeCore15clearReferencesEv
__ZNSt8_Rb_treeIN8Security10RefPointerI8NodeCoreEES3_St9_IdentityIS3_ESt4lessIS3_ESaIS3_EE5eraseESt23_Rb_tree_const_iteratorIS3
__ZN8NodeCore15removeReferenceERS_
__ZNSt8_Rb_treeIN8Security10RefPointerI8NodeCoreEES3_St9_IdentityIS3_ESt4lessIS3_ESaIS3_EE5eraseERKS3_
__ZNSt8_Rb_treeIN8Security10RefPointerI8NodeCoreEES3_St9_IdentityIS3_ESt4lessIS3_ESaIS3_EE5eraseESt17_Rb_tree_iteratorIS3_ESB_
__ZNSt8_Rb_treeIN8Security10RefPointerI8NodeCoreEES3_St9_IdentityIS3_ESt4lessIS3_ESaIS3_EE15_M_destroy_nodeEPSt13_Rb_tree_nodeI
__ZN8Security6Thread3runEv
__ZN8Security6Thread6runnerEPv
__ZN8Security12MachPlusPlus10MachServer10LoadThread6actionEv
__ZN8Security12MachPlusPlus10MachServer9addThreadEPNS_6ThreadE
__ZNSt8_Rb_treeIPN8Security6ThreadES2_St9_IdentityIS2_ESt4lessIS2_ESaIS2_EE16_M_insert_uniqueERKS2_
__ZNSt8_Rb_treeIPN8Security6ThreadES2_St9_IdentityIS2_ESt4lessIS2_ESaIS2_EE9_M_insertEPSt18_Rb_tree_node_baseSA_RKS2_
__ZN8Security12MachPlusPlus10MachServer15runServerThreadEb
__ZL10_XdecodeDbP17mach_msg_header_tS0_
__Z20ucsp_server_decodeDbjj13audit_token_tPiPjPvjS2_jS2_j
__ZN7CopyOutC2EPvmPFiP9__rpc_xdrzEbP9cssm_data
__Z25xdr_DLDbFlatIdentifierRefP9__rpc_xdrPPN8Security11DataWalkers18DLDbFlatIdentifierE
__Z22xdr_DLDbFlatIdentifierP9__rpc_xdrPN8Security11DataWalkers18DLDbFlatIdentifierE
_sec_xdr_pointer
_xdr_CSSM_SUBSERVICE_UID
_xdr_CSSM_VERSION
__ZN8Security14DLDbIdentifierC2ERK19cssm_subservice_uidPKcPK16cssm_net_address
__ZN8Security14DLDbIdentifier4ImplC2ERK19cssm_subservice_uidPKcPK16cssm_net_address
__ZN8Security6DbNameC1EPKcPK16cssm_net_address
__ZN8Security6DbNameC2EPKcPK16cssm_net_address
__ZN8Security6DbName16CanonicalizeNameEv
__Z8makeBlobIN8Security14SecurityServer6DbBlobEEPKT_RKNS0_8CssmDataEi
__ZN16KeychainDatabaseC1ERKN8Security14DLDbIdentifierEPKNS0_14SecurityServer6DbBlobER7ProcessPKNS0_17AccessCredentialsE
__ZN17SecurityServerAclC2Ev
__ZN8Security9ObjectAclC2ERNS_9AllocatorE
__ZN13LocalDatabaseC2ER7Process
__ZN8DatabaseC2ER7Process
__ZN16KeychainDatabase12validateBlobEPKN8Security14SecurityServer6DbBlobE
__ZNK8Security14SecurityServer10CommonBlob8validateEi
__ZN8Security11DataWalkers4copyINS_17AccessCredentialsEEEPT_PKS3_RNS_9AllocatorE
__ZN8Security9Allocator6mallocINS_14SecurityServer6DbBlobEEEPT_m
__ZNK8Database7processEv
__ZN8NodeCore9findFirstI16KeychainDbCommonRK12DbIdentifierEEN8Security10RefPointerIT_EEMS7_KFT0_vES9_
__ZNK16KeychainDbCommon10identifierEv
__ZNK12DbIdentifiereqERKS_
__ZNK8Security14DLDbIdentifiereqERKS0_
__ZNK8Security14DLDbIdentifier4ImpleqERKS1_
__ZNK8Security17CssmSubserviceUideqERK19cssm_subservice_uid
__ZN8Security10RefPointerI16KeychainDbCommonE7releaseEv
__ZN8Security10RefPointerINS_14DLDbIdentifier4ImplEE7releaseEv
__ZN8Security6DbNameD1Ev
__ZN8Security6DbNameD2Ev
__ZN7CopyOutD1Ev
__ZN7CopyOutD2Ev
__ZL16_XauthenticateDbP17mach_msg_header_tS0_
__Z26ucsp_server_authenticateDbjj13audit_token_tPijjPvj
_xdr_CSSM_ACCESS_CREDENTIALS_PTR
_xdr_CSSM_ACCESS_CREDENTIALS
_xdr_CSSM_BASE_CERTS
_sec_xdr_clip_long
_xdr_CSSM_CERTGROUP
_xdr_CSSM_SAMPLE
_xdr_CSSM_LIST
_xdr_CSSM_LIST_ELEMENT
__ZN6Server8databaseEj
__ZN6Server4findI8DatabaseEEN8Security10RefPointerIT_EEji
__ZN8Security13MappingHandleIjE7findRefI8DatabaseEENS_10RefPointerIT_EEji
__ZN8Security13MappingHandleIjE5State6locateEji
__ZN16KeychainDatabase12authenticateEjPKN8Security17AccessCredentialsE
__ZN8Security11DataWalkers14enumerateArrayINS0_10SizeWalkerENS_11SampleGroupENS_10CssmSampleEEEvRT_RT0_MS7_FRPT1_vE
__ZN8Security11SampleGroup7samplesEv
__ZN8Security11DataWalkers4walkINS0_10SizeWalkerEEEvRT_RNS_10CssmSampleE
__ZN8Security11DataWalkers4walkINS0_10SizeWalkerEEEPNS_11ListElementERT_RS4_
__ZN8Security11DataWalkers4copyINS_17AccessCredentialsEEEPT_PKS3_RNS_9AllocatorEm
__ZN8Security11DataWalkers4copyINS_17AccessCredentialsEEEPT_PKS3_Pv
__ZN8Security11DataWalkers4walkINS0_10CopyWalkerEEEPNS_17AccessCredentialsERT_RS4_
__ZN8Security11DataWalkers14enumerateArrayINS0_10CopyWalkerENS_11SampleGroupENS_10CssmSampleEEEvRT_RT0_MS7_FRPT1_vE
__ZN8Security11DataWalkers4walkINS0_10CopyWalkerEEEvRT_RNS_10CssmSampleE
__ZN8Security11DataWalkers9enumerateINS0_10CopyWalkerEEEvRT_RNS_8CssmListE
__ZN8Security11DataWalkers4walkINS0_10CopyWalkerEEEPNS_11ListElementERT_RS4_
__ZN8Security11ListElement4lastEv
__ZN8Security10RefPointerI8DatabaseE7releaseEv
__ZL11_XreleaseDbP17mach_msg_header_tS0_
__Z21ucsp_server_releaseDbjj13audit_token_tPij
__ZN16KeychainDatabaseD0Ev
__ZN8Security10RefPointerI16KeychainDatabaseE7releaseEv
__ZN8DatabaseD2Ev
__ZN9AclSourceD2Ev
__ZN10PerProcessD2Ev
__ZN8Security13MappingHandleIjED2Ev
__ZN9__gnu_cxx9hashtableISt4pairIKjPN8Security13MappingHandleIjEEEjNS_4hashIjEESt10_Select1stIS7_ESt8equal_toIjESaIS6_EE5eraseE
__ZN17SecurityServerAclD2Ev
__ZN8Security5MutexD1Ev
__ZN8Security9ObjectAclD2Ev
__ZN8Security10RefPointerINS_10AclSubjectEE7releaseEv
__ZNSt8_Rb_treeISsSt4pairIKSsN8Security9ObjectAcl8AclEntryEESt10_Select1stIS5_ESt4lessISsESaIS5_EED2Ev
__ZNSt8_Rb_treeISsSt4pairIKSsN8Security9ObjectAcl8AclEntryEESt10_Select1stIS5_ESt4lessISsESaIS5_EE8_M_eraseEPSt13_Rb_tree_nodeI
__ZL13_XsetupThreadP17mach_msg_header_tS0_
__Z23ucsp_server_setupThreadjj13audit_token_tPij
__ZNSt8_Rb_treeIN8Security12MachPlusPlus4PortESt4pairIKS2_NS0_10RefPointerI7ProcessEEESt10_Select1stIS8_ESt4lessIS2_ESaIS8_EE4f
__ZNSt8_Rb_treeIiSt4pairIKiP7ProcessESt10_Select1stIS4_ESt4lessIiESaIS4_EE5eraseERS1_
__ZNSt8_Rb_treeIiSt4pairIKiP7ProcessESt10_Select1stIS4_ESt4lessIiESaIS4_EE5eraseESt17_Rb_tree_iteratorIS4_ESC_
__ZNSt8_Rb_treeIN8Security12MachPlusPlus4PortESt4pairIKS2_NS0_10RefPointerI7ProcessEEESt10_Select1stIS8_ESt4lessIS2_ESaIS8_EE15
__ZN7Process4killEv
__ZN8Security10RefPointerI13LocalDatabaseE10setPointerEPS1_
__ZN8Security10RefPointerI13LocalDatabaseE7releaseEv
__ZN8Security12MachPlusPlus10MachServer4idleEv
__ZN7ProcessD0Ev
__ZN20ClientIdentificationD2Ev
__ZNSt8_Rb_treeIjSt4pairIKjN20ClientIdentification10GuestStateEESt10_Select1stIS4_ESt4lessIjESaIS4_EED2Ev
__ZN14CodeSignatures8IdentityD2Ev
__ZN15CodeSigningHostD2Ev
__ZN15CodeSigningHost5resetEv
__ZNSt8_Rb_treeIjSt4pairIKjN8Security10RefPointerIN15CodeSigningHost5GuestEEEESt10_Select1stIS7_ESt4lessIjESaIS7_EED2Ev
__ZNSt8_Rb_treeIjSt4pairIKjN8Security10RefPointerIN15CodeSigningHost5GuestEEEESt10_Select1stIS7_ESt4lessIjESaIS7_EE8_M_eraseEPS
__ZN8Security12MachPlusPlus10MachServer7HandlerD2Ev
__ZN8Security14CommonCriteria9Securityd14AuthMechLoggerD2Ev
__ZN13Authorization11AuthItemSet4findEPKc
__ZN7Session13setAttributesEj
__ZN8Security14CommonCriteria9AuditInfo3setEv
__ZNK13Authorization8AuthItem11stringValueEv
__ZN13Authorization10CredentialC1EjRKSsS2_S2_b
__ZN13Authorization10CredentialC2EjRKSsS2_S2_b
__ZN13Authorization14CredentialImplC2EjRKSsS2_S2_b
__ZNSt8_Rb_treeIN13Authorization10CredentialES1_St9_IdentityIS1_ESt4lessIS1_ESaIS1_EE16_M_insert_uniqueERKS1_
__ZNSt8_Rb_treeIN13Authorization10CredentialES1_St9_IdentityIS1_ESt4lessIS1_ESaIS1_EE9_M_insertEPSt18_Rb_tree_node_baseS9_RKS1_
__ZNSt8_Rb_treeIN13Authorization10CredentialES1_St9_IdentityIS1_ESt4lessIS1_ESaIS1_EE14_M_create_nodeERKS1_
__ZN9__gnu_cxx13new_allocatorIN13Authorization10CredentialEE9constructEPS2_RKS2_
__ZN13Authorization10CredentialD1Ev
__ZN8Security10RefPointerIN13Authorization14CredentialImplEE7releaseEv
__ZNSt8_Rb_treeIN13Authorization10CredentialES1_St9_IdentityIS1_ESt4lessIS1_ESaIS1_EE16_M_insert_uniqueISt23_Rb_tree_const_iter
__ZNSt8_Rb_treeIN13Authorization10CredentialES1_St9_IdentityIS1_ESt4lessIS1_ESaIS1_EE16_M_insert_uniqueESt17_Rb_tree_iteratorIS
__ZNSt8_Rb_treeIN13Authorization10CredentialES1_St9_IdentityIS1_ESt4lessIS1_ESaIS1_EE15_M_destroy_nodeEPSt13_Rb_tree_nodeIS1_E
__ZNSt6vectorIN13Authorization12AuthValueRefESaIS1_EED2Ev
__ZN8Security10RefPointerIN13Authorization9AuthValueEE7releaseEv
__ZN18SecurityAgentQueryD2Ev
_sa_request_client_destroy
__ZN8Security10RefPointerI16AuthHostInstanceE7releaseEv
__ZN16AuthHostInstanceD0Ev
__ZN11ServerChildD2Ev
__ZN8Security9ConditionD1Ev
__ZN8Security9ConditionD2Ev
__ZN8Security12UnixPlusPlus5ChildD2Ev
__ZN13Authorization9AuthValueD1Ev
__ZN13Authorization9AuthValueD2Ev
__ZNSt6vectorISsSaISsEED2Ev
__ZN8Security14CommonCriteria9Securityd11RightLogger8setRightEPKc
__ZN8Security14CommonCriteria9Securityd25RightAuthenticationLogger22logAuthorizationResultEPKcS4_i
__ZN8Security14CommonCriteria9Securityd25RightAuthenticationLogger11writeCommonEv
__ZN8Security6Syslog4infoEPKcz
__ZN7Session16mergeCredentialsERSt3setIN13Authorization10CredentialESt4lessIS2_ESaIS2_EE
__ZNSt8_Rb_treeIN13Authorization10CredentialES1_St9_IdentityIS1_ESt4lessIS1_ESaIS1_EE7_M_copyEPKSt13_Rb_tree_nodeIS1_EPS9_
__ZNK13Authorization14CredentialImpl8isSharedEv
__ZNK13Authorization14CredentialImpl7isValidEv
__ZNSt8_Rb_treeIN13Authorization10CredentialES1_St9_IdentityIS1_ESt4lessIS1_ESaIS1_EE4findERKS1_
__ZNSt8_Rb_treeIN13Authorization10CredentialES1_St9_IdentityIS1_ESt4lessIS1_ESaIS1_EE5eraseERKS1_
__ZNSt8_Rb_treeIN13Authorization10CredentialES1_St9_IdentityIS1_ESt4lessIS1_ESaIS1_EE11upper_boundERKS1_
__ZNSt8_Rb_treeIN13Authorization10CredentialES1_St9_IdentityIS1_ESt4lessIS1_ESaIS1_EE11lower_boundERKS1_
__ZNSt8_Rb_treeIN13Authorization10CredentialES1_St9_IdentityIS1_ESt4lessIS1_ESaIS1_EE5eraseESt17_Rb_tree_iteratorIS1_ES9_
__ZNK13Authorization11AuthItemSet4copyEv
_copyin_AuthorizationItemSet
_copyin
_sec_xdr_sizeof_in
_sec_x_putlong
_sec_x_putbytes
_sec_xdrmem_putlong_aligned
_sec_xdrmem_putbytes
__ZN6Server15releaseWhenDoneEPv
__ZN8Security12MachPlusPlus10MachServer15releaseWhenDoneERNS_9AllocatorEPv
__ZNSt8_Rb_treeIN8Security12MachPlusPlus10MachServer10AllocationES3_St9_IdentityIS3_ESt4lessIS3_ESaIS3_EE16_M_insert_uniqueERKS
__ZNSt8_Rb_treeIN8Security12MachPlusPlus10MachServer10AllocationES3_St9_IdentityIS3_ESt4lessIS3_ESaIS3_EE9_M_insertEPSt18_Rb_tr
__ZN16KeychainDbCommonC2ER7SessionRK12DbIdentifier
__ZN13LocalDbCommonC2ER7Session
__ZN8DbCommonC2ER7Session
__ZN18DatabaseCryptoCoreC2Ev
__ZN8NodeCore9findFirstI16KeychainDbGlobalRK12DbIdentifierEEN8Security10RefPointerIT_EEMS7_KFT0_vES9_
__ZN8Security10RefPointerI16KeychainDbGlobalE7releaseEv
__ZN16KeychainDbGlobalC2ERK12DbIdentifier
__ZNK8DbCommon7sessionEv
__ZL24_XunlockDbWithPassphraseP17mach_msg_header_tS0_
__Z34ucsp_server_unlockDbWithPassphrasejj13audit_token_tPijPvj
__ZN6Server8keychainEj
__ZN6Server4findI16KeychainDatabaseEEN8Security10RefPointerIT_EEji
__ZN8Security13MappingHandleIjE7findRefI16KeychainDatabaseEENS_10RefPointerIT_EEji
__ZN16KeychainDatabase8unlockDbERKN8Security8CssmDataE
__ZN16KeychainDatabase12makeUnlockedERKN8Security8CssmDataE
__ZN16KeychainDatabase8isLockedEv
__ZN18DatabaseCryptoCore5setupEPKN8Security14SecurityServer6DbBlobERKNS0_8CssmDataE
__ZNK18DatabaseCryptoCore17deriveDbMasterKeyERKN8Security8CssmDataE
__ZN8Security10CssmClient9DeriveKeyC1ERKNS0_3CSPEjjj
__ZN8Security10CssmClient5CryptC2ERKNS0_3CSPEj
__ZN8Security10CssmClient7ContextC2ERKNS0_3CSPEj
__ZN8Security10CssmClient10ObjectImplC2ERKNS0_6ObjectE
__ZN8Security10CssmClient9DeriveKeyclEPNS_8CssmDataERKNS0_7KeySpecE
__ZN8Security10CssmClient3Key10makeNewKeyERKNS0_3CSPE
__ZN8Security10CssmClient3KeyC2ERKNS0_3CSPE
__ZN8Security10CssmClient7KeyImplC1ERKNS0_3CSPE
__ZN8Security10RefPointerINS_10CssmClient10ObjectImplEE10setPointerEPS2_
__ZN8Security10RefPointerINS_10CssmClient10ObjectImplEE7releaseEv
__ZNK8Security10CssmClient6Object4implINS0_7KeyImplEEERT_v
__ZNK8Security10CssmClient9RccBearer12compositeRccEv
__ZN8Security10CssmClient9DeriveKey8activateEv
__ZNK8Security10CssmClient6Object4implINS0_7CSPImplEEERT_v
__ZN8Security10CssmClient14AttachmentImpl8activateEv
__ZN8Security28CssmAllocatorMemoryFunctions11relayMallocEmPv
__ZN8Security28CssmAllocatorMemoryFunctions9relayFreeEPvS1_
__ZN8Security10CssmClient10ObjectImpl5checkEi
__ZN8Security10CssmClient7KeyImpl8activateEv
__ZN8Security10CssmClient5CryptD2Ev
__ZN8Security10CssmClient7ContextD2Ev
__ZN8Security10CssmClient7Context10deactivateEv
__ZN8Security10CssmClient10ObjectImplD2Ev
__ZN16KeychainDatabase6decodeEv
__ZN16KeychainDbCommon8unlockDbEPN8Security14SecurityServer6DbBlobEPPv
__ZN18DatabaseCryptoCore10decodeCoreEPKN8Security14SecurityServer6DbBlobEPPv
__ZN8Security10CssmClient7DecryptC1ERKNS0_3CSPEj
__ZN8Security10CssmClient7Context3setEjj
__ZN8Security10CssmClient5Crypt3keyERKNS0_3KeyE
__ZN8Security10CssmClient7Context3setINS_7CssmKeyEEEvjRKT_
__ZN8Security10CssmClient7Context3setINS_8CssmDataEEEvjRKT_
__ZN8Security10CssmClient7Decrypt7decryptEPKNS_8CssmDataEjPS2_jRS2_
__ZN8Security10CssmClient7Context8unstagedEv
__ZN8Security10CssmClient5Crypt8activateEv
__ZN18DatabaseCryptoCore10makeRawKeyEPvmjj
__ZN8Security10CssmClient9UnwrapKeyC1ERKNS0_3CSPEj
__ZN8Security10CssmClient9UnwrapKeyclERKNS_7CssmKeyERKNS0_7KeySpecERS2_PNS_8CssmDataEPS3_
__ZN8Security10CssmClient3KeyC2ERKNS0_3CSPERK8cssm_keyb
__ZN8Security10CssmClient7KeyImplC1ERKNS0_3CSPERK8cssm_keyb
__ZN8Security7CssmKeyC2ERK8cssm_key
__ZN8Security10CssmClient9VerifyMacC1ERKNS0_3CSPEj
__ZN8Security10CssmClient7Context3setINS0_3KeyEEEvjRKT_
__ZN8Security10CssmClient9VerifyMac6verifyEPKNS_8CssmDataEjRS3_
__ZN8Security10CssmClient10MacContext8activateEv
__ZN8Security10CssmClient10MacContextD2Ev
__ZN16KeychainDbCommon8activityEv
__ZN8Security12MachPlusPlus10MachServer8setTimerEPNS1_5TimerENS_4Time8AbsoluteE
__ZN8Security13ScheduleQueueINS_4Time8AbsoluteEE8scheduleEPNS3_5EventES2_
__ZN8DbCommon6notifyEjRKN8Security14DLDbIdentifierE
__ZN8Security19NameValueDictionaryC1Ev
__ZN8Security19NameValueDictionary41MakeNameValueDictionaryFromDLDbIdentifierERKNS_14DLDbIdentifierERS0_
__ZN8Security13NameValuePair9CloneDataERKNS_8CssmDataE
__ZNSt6vectorIPN8Security13NameValuePairESaIS2_EE9push_backERKS2_
__ZNSt6vectorIPN8Security13NameValuePairESaIS2_EE13_M_insert_auxEN9__gnu_cxx17__normal_iteratorIPS2_S4_EERKS2_
__ZNSt12_Vector_baseIPN8Security13NameValuePairESaIS2_EE11_M_allocateEm
__ZN8Security19NameValueDictionary6ExportERNS_8CssmDataE
__ZNK8Security13NameValuePair6ExportERNS_8CssmDataE
__ZN8Listener6notifyEjjRKN8Security8CssmDataE
__ZN8Listener12NotificationC2EjjjRKN8Security8CssmDataE
__ZN8Security12CssmAutoDataC2INS_8CssmDataEEERNS_9AllocatorERKT_
__ZN8Security13CssmOwnedData4copyIvEEvPKT_m
__ZN8Security12CssmAutoData5resetEv
__ZN8Security11CssmAutoPtrIvED1Ev
__ZN8Listener16sendNotificationEPNS_12NotificationE
__ZN20SharedMemoryListener8notifyMeEPN8Listener12NotificationE
__ZNK8Security13CssmOwnedData3getEv
__ZN18SharedMemoryServer12WriteMessageEjjPKvj
_CalculateCRC
__ZN18SharedMemoryServer9WriteDataEPKvj
__ZN8Security10RefPointerIN8Listener12NotificationEE7releaseEv
__ZN8Listener12NotificationD0Ev
__ZN8Security12CssmAutoDataD2Ev
__ZN8Security15CssmManagedDataD2Ev
__ZN8Security19NameValueDictionaryD1Ev
__ZN8Security19NameValueDictionaryD2Ev
__ZN16KeychainDatabase3aclEv
__ZN8Security9ObjectAcl10importBlobEPKvS2_
__ZN8Security9ObjectAcl13importSubjectERNS_23LowLevelMemoryUtilities6ReaderES3_
__ZN8Security9ObjectAcl8makerForEi
__ZN8Security11ModuleNexusISt3mapIiPNS_10AclSubject5MakerESt4lessIiESaISt4pairIKiS4_EEEEclEv
__ZNSt3mapIiPN8Security10AclSubject5MakerESt4lessIiESaISt4pairIKiS3_EEEixERS7_
__ZNK8Security13AnyAclSubject5Maker4makeEhRNS_23LowLevelMemoryUtilities6ReaderES4_
__ZN8Security10AclSubjectC2Ejh
__ZN8Security10RefPointerINS_10AclSubjectEE10setPointerEPS1_
__ZNSt8_Rb_treeISsSt4pairIKSsN8Security9ObjectAcl8AclEntryEESt10_Select1stIS5_ESt4lessISsESaIS5_EE5eraseESt17_Rb_tree_iteratorI
__ZN8Security9ObjectAcl8AclEntryC2Ev
__ZN8Security9ObjectAcl8AclEntry10importBlobERNS_23LowLevelMemoryUtilities6ReaderES4_
__ZNSt8_Rb_treeIiiSt9_IdentityIiESt4lessIiESaIiEE5eraseESt23_Rb_tree_const_iteratorIiES7_
__ZNSt8_Rb_treeIiiSt9_IdentityIiESt4lessIiESaIiEE8_M_eraseEPSt13_Rb_tree_nodeIiE
__ZN8Security9ObjectAcl3addERKSsRKNS0_8AclEntryE
__ZN8Security9ObjectAcl8AclEntryC2ERKS1_
__ZNSt8_Rb_treeIiiSt9_IdentityIiESt4lessIiESaIiEEC2ERKS5_
__ZN8Security9ObjectAcl3addERKSsNS0_8AclEntryEl
__ZNSt4pairISsN8Security9ObjectAcl8AclEntryEEC2ERKSsRKS2_
__ZNSt4pairIKSsN8Security9ObjectAcl8AclEntryEEC2ISsS3_EERKS_IT_T0_E
__ZNSt8_Rb_treeISsSt4pairIKSsN8Security9ObjectAcl8AclEntryEESt10_Select1stIS5_ESt4lessISsESaIS5_EE15_M_insert_equalERKS5_
__ZNSt8_Rb_treeISsSt4pairIKSsN8Security9ObjectAcl8AclEntryEESt10_Select1stIS5_ESt4lessISsESaIS5_EE9_M_insertEPSt18_Rb_tree_node
__ZNSt8_Rb_treeISsSt4pairIKSsN8Security9ObjectAcl8AclEntryEESt10_Select1stIS5_ESt4lessISsESaIS5_EE14_M_create_nodeERKS5_
__ZN9__gnu_cxx13new_allocatorISt4pairIKSsN8Security9ObjectAcl8AclEntryEEE9constructEPS6_RKS6_
__ZNSt4pairIKSsN8Security9ObjectAcl8AclEntryEEC2ERKS4_
__ZNSt4pairIKSsN8Security9ObjectAcl8AclEntryEED2Ev
__ZN8Security9ObjectAcl8AclEntryD2Ev
__ZNSt4pairISsN8Security9ObjectAcl8AclEntryEED2Ev
__ZN8Security13AnyAclSubjectD0Ev
__ZN8Security10AclSubjectD2Ev
__ZNSt8_Rb_treeISsSt4pairIKSsN8Security9ObjectAcl8AclEntryEESt10_Select1stIS5_ESt4lessISsESaIS5_EE15_M_destroy_nodeEPSt13_Rb_tr
__ZN8Security13ScheduleQueueINS_4Time8AbsoluteEE5Event10unscheduleEv
__ZN8Security12MachPlusPlus10MachServer5Timer6selectEv
__ZThn88_N20SharedMemoryListener6actionEv
__ZN20SharedMemoryListener6actionEv
__ZN8Security12MachPlusPlus10MachServer5Timer8unselectEv
__ZL21_XsetSessionUserPrefsP17mach_msg_header_tS0_
__ZN6Server7sessionEv
__ZN8Security5CFRefIPK8__CFDataEaSES3_
__ZN18SecurityAgentQuery9terminateEv
_sa_request_client_terminate
__ZNK13Authorization10CredentialltERKS0_
__ZNK13Authorization14CredentialImplltERKS0_
__ZN13Authorization14CredentialImpl5mergeERKS0_
__ZN13Authorization14CredentialImplD1Ev
__ZN13Authorization14CredentialImplD2Ev
__ZL11_XdecodeKeyP17mach_msg_header_tS0_
__Z21ucsp_server_decodeKeyjj13audit_token_tPiPjPPvS1_jS2_j
__Z8makeBlobIN8Security14SecurityServer7KeyBlobEEPKT_RKNS0_8CssmDataEi
__ZN11KeychainKeyC1ER8DatabasePKN8Security14SecurityServer7KeyBlobE
__ZN11KeychainKeyC2ER8DatabasePKN8Security14SecurityServer7KeyBlobE
__ZN8LocalKeyC2ER8Databasej
__ZN3KeyC2ER8Database
__ZN8Database10SubsidiaryC2ERS_
__ZNK8Security10CssmClient10ObjectImpl9allocatorEv
__ZN8Security9Allocator6mallocINS_14SecurityServer7KeyBlobEEEPT_m
__ZN8LocalKey9returnKeyERjRN8Security7CssmKey6HeaderE
__ZN11KeychainKey9getHeaderERN8Security7CssmKey6HeaderE
__ZN8Security4n2hiERNS_7CssmKey6HeaderE
_xdr_CSSM_KEYHEADER
__ZN8Security10RefPointerI3KeyE7releaseEv
__ZL9_XdecryptP17mach_msg_header_tS0_
__Z19ucsp_server_decryptjj13audit_token_tPiPvjjS1_jPS1_Pj
_xdr_CSSM_CONTEXT_PTR
_xdr_CSSM_CONTEXT
_xdr_CSSM_CONTEXT_ATTRIBUTE
_xdr_CSSM_KEY
_xdr_CSSM_DATA
__ZN6Server3keyEj
__ZN8Security13MappingHandleIjE7findRefI3KeyEENS_10RefPointerIT_EEji
__ZN13LocalDatabase7decryptERKN8Security7ContextER3KeyRKNS0_8CssmDataERS6_
__ZN8LocalKey7cssmKeyEv
__ZN8LocalKey8keyValueEv
__ZN11KeychainKey6getKeyEv
__ZN11KeychainKey6decodeEv
__ZN16KeychainDatabase9decodeKeyEPN8Security14SecurityServer7KeyBlobERNS0_7CssmKeyERPvS7_
__ZN8Security14SecurityServer7KeyBlob11isClearTextEv
__ZN16KeychainDatabase8unlockDbEv
__ZN16KeychainDatabase12makeUnlockedEPKN8Security17AccessCredentialsE
__ZN8Security10CssmClient7KeyImplD0Ev
__ZN8Security10CssmClient7KeyImpl10deactivateEv
__ZN8Security10CssmClient9AclBearerD2Ev
__ZNK18DatabaseCryptoCore13decodeKeyCoreEPN8Security14SecurityServer7KeyBlobERNS0_7CssmKeyERPvS7_
__ZN8Security4h2niERNS_7CssmKey6HeaderE
__ZN8Security10CssmClient9UnwrapKeyclERKNS_7CssmKeyERKNS0_7KeySpecERS2_PNS_8CssmDataE
__ZN11KeychainKey3aclEv
__ZNK8Security19ThresholdAclSubject5Maker4makeEhRNS_23LowLevelMemoryUtilities6ReaderES4_
__ZNSt6vectorIN8Security10RefPointerINS0_10AclSubjectEEESaIS3_EEC2EmRKS3_RKS4_
__ZNSt12_Vector_baseIN8Security10RefPointerINS0_10AclSubjectEEESaIS3_EEC2EmRKS4_
__ZNSt12_Vector_baseIN8Security10RefPointerINS0_10AclSubjectEEESaIS3_EE11_M_allocateEm
__ZSt26__uninitialized_fill_n_auxIPN8Security10RefPointerINS0_10AclSubjectEEEmS3_EvT_T0_RKT1_St12__false_type
__ZNK24KeychainPromptAclSubject5Maker4makeEhRN8Security23LowLevelMemoryUtilities6ReaderES4_
__ZN24KeychainPromptAclSubjectC2ESsRK33cssm_acl_keychain_prompt_selector
__ZN8Security19ThresholdAclSubjectC2EjjRKSt6vectorINS_10RefPointerINS_10AclSubjectEEESaIS4_EE
__ZNSt6vectorIN8Security10RefPointerINS0_10AclSubjectEEESaIS3_EEC2ERKS5_
__ZSt24__uninitialized_copy_auxIN9__gnu_cxx17__normal_iteratorIPKN8Security10RefPointerINS2_10AclSubjectEEESt6vectorIS5_SaIS5_E
__ZNSt6vectorIN8Security10RefPointerINS0_10AclSubjectEEESaIS3_EED2Ev
__ZNK8Security23CodeSignatureAclSubject5Maker4makeEhRNS_23LowLevelMemoryUtilities6ReaderES4_
__ZNK8Security23CodeSignatureAclSubject5Maker4makeEPKhRKNS_8CssmDataE
__ZN8Security23CodeSignatureAclSubjectC2EPKhRKSs
__ZN8Security11OSXVerifierC2EPKhRKSs
__ZN8Security11OSXVerifier3addEPKNS_8BlobCoreE
__ZNSt8_Rb_treeIiiSt9_IdentityIiESt4lessIiESaIiEE16_M_insert_uniqueERKi
__ZNSt8_Rb_treeIiiSt9_IdentityIiESt4lessIiESaIiEE9_M_insertEPSt18_Rb_tree_node_baseS7_RKi
__ZNSt8_Rb_treeIiiSt9_IdentityIiESt4lessIiESaIiEE7_M_copyEPKSt13_Rb_tree_nodeIiEPS7_
__ZNK8Security7Context7replaceINS_7CssmKeyEEEvjRKT_
__ZN8Security7Context4findEjPK22cssm_context_attributej
__ZN9AclSource8validateEiRKN8Security7ContextE
__ZThn160_N11KeychainKey15relatedDatabaseEv
__ZThn160_N11KeychainKey3aclEv
__ZN17SecurityServerAcl8validateEiRKN8Security7ContextEP8Database
__ZThn232_N11KeychainKey8validateEiPKN8Security17AccessCredentialsEP8Database
__ZN11KeychainKey8validateEiPKN8Security17AccessCredentialsEP8Database
__ZN17SecurityServerAcl8validateEiPKN8Security17AccessCredentialsEP8Database
__ZN25SecurityServerEnvironmentC1ER17SecurityServerAclP8Database
__ZN8Security9ObjectAcl8validateEiPKNS_17AccessCredentialsEPNS_24AclValidationEnvironmentE
__ZN8Security9ObjectAcl9validatesEiPKNS_17AccessCredentialsEPNS_24AclValidationEnvironmentE
__ZN8Security9ObjectAcl9validatesERNS_20AclValidationContextE
__ZThn232_N11KeychainKey14instantiateAclEv
__ZN11KeychainKey14instantiateAclEv
__ZNK8Security20AclValidationContext9s_credTagEv
__ZNK8Security20AclValidationContext7credTagEv
__ZNK8Security9ObjectAcl8getRangeERKSsRSt4pairISt23_Rb_tree_const_iteratorIS3_IS1_NS0_8AclEntryEEES7_E
__ZNKSt8_Rb_treeIiiSt9_IdentityIiESt4lessIiESaIiEE4findERKi
__ZN8Security20AclValidationContext4initEPNS_9ObjectAclEPNS_10AclSubjectE
__ZN8Security20AclValidationContext8entryTagERKSs
__ZNK8Security16SimpleAclSubject8validateERKNS_20AclValidationContextE
__ZNK21BaseValidationContext5countEv
__ZNK21BaseValidationContext6sampleEj
__ZNK8Security9TypedList8isProperEv
__ZNK8Security11ListElement4wordEv
__ZNK8Security19ThresholdAclSubject8validateERKNS_20AclValidationContextERKNS_9TypedListE
__ZNK8Security23CodeSignatureAclSubject8validateERKNS_20AclValidationContextE
__ZTv0_n48_N25SecurityServerEnvironment19verifyCodeSignatureERKN8Security11OSXVerifierERKNS0_20AclValidationContextE
__ZN14CodeSignatures6verifyER7ProcessRKN8Security11OSXVerifierERKNS2_20AclValidationContextE
__ZN8Security20AclValidationContextD2Ev
__ZNK21BaseValidationContext7matchedEPKN8Security9TypedListE
__ZN25SecurityServerEnvironmentD1Ev
__ZN8Security24AclValidationEnvironmentD2Ev
__ZNK16KeychainDatabase6commonEv
__ZN8Security10CssmClient7Context8overrideERKNS_7ContextE
__ZL12_XreleaseKeyP17mach_msg_header_tS0_
__Z22ucsp_server_releaseKeyjj13audit_token_tPij
__ZN8Database10releaseKeyER3Key
__ZN11KeychainKeyD0Ev
__ZN8Security19ThresholdAclSubjectD0Ev
__ZN24KeychainPromptAclSubjectD0Ev
__ZN8Security23CodeSignatureAclSubjectD0Ev
__ZN8Security11OSXVerifierD2Ev
__ZN8Security11OSXVerifier6AuxMapD2Ev
__ZNSt8_Rb_treeIjSt4pairIKjPN8Security8BlobCoreEESt10_Select1stIS5_ESt4lessIjESaIS5_EE8_M_eraseEPSt13_Rb_tree_nodeIS5_E
__ZN8LocalKeyD2Ev
__ZN3KeyD2Ev
__ZL18_XpostNotificationP17mach_msg_header_tS0_
__Z28ucsp_server_postNotificationjj13audit_token_tPijjPvjj
__ZN8Listener6notifyEjjjRKN8Security8CssmDataE
__ZN8Listener12JitterBuffer10inSequenceEPNS_12NotificationE
__ZN8Listener12JitterBuffer15popNotificationEv
__ZNSt8_Rb_treeIjSt4pairIKjN8Security10RefPointerIN8Listener12NotificationEEEESt10_Select1stIS7_ESt4lessIjESaIS7_EE4findERS1_
__ZL10_XisLockedP17mach_msg_header_tS0_
__Z20ucsp_server_isLockedjj13audit_token_tPijPj
__ZN14CodeSignatures28matchSignedClientToLegacyACLER7ProcessP9__SecCodeRKN8Security11OSXVerifierERKNS4_20AclValidationContextE
__ZN17SecurityServerAcl21looksLikeLegacyDotMacERKN8Security20AclValidationContextE
__ZN8Security8cfStringEPK10__CFStringb
__ZL4trimSsc
__ZL11_XunwrapKeyP17mach_msg_header_tS0_
__Z21ucsp_server_unwrapKeyjj13audit_token_tPijPvjjS1_jS1_jjS1_jjjPS1_PjS3_S2_S3_
_xdr_CSSM_KEY_PTR
__ZN6Server16optionalDatabaseEjb
__ZN7Process10localStoreEv
__ZN12TempDatabaseC1ER7Process
__ZN12TempDatabaseC2ER7Process
__Z6pickDbP8DatabaseS0_
__ZNK12TempDatabase9transientEv
__ZN13LocalDatabase9unwrapKeyERKN8Security7ContextEPKNS0_17AccessCredentialsEPKNS0_17AclEntryPrototypeEP3KeySB_jjNS0_7CssmKeyER
__ZN8Security10CssmClient7Context4credEPK23cssm_access_credentials
__ZN8Security10CssmClient7Context3setINS_17AccessCredentialsEEEvjRKT_
__ZN8LocalKey7KeySpecC1Ejj
__ZN12TempDatabase7makeKeyERKN8Security7CssmKeyEjPKNS0_17AclEntryPrototypeE
__ZN7TempKeyC2ER8DatabaseRKN8Security7CssmKeyEjPKNS2_17AclEntryPrototypeE
__ZN8LocalKeyC2ER8DatabaseRKN8Security7CssmKeyEj
__ZN8LocalKey5setupERKN8Security7CssmKeyEj
__ZN8LocalKey8setOwnerEPKN8Security17AclEntryPrototypeE
__ZThn160_N7TempKey3aclEv
__ZN8Security9ObjectAcl14cssmSetInitialERKNS_10RefPointerINS_10AclSubjectEEE
__ZN8Security9ObjectAcl5EntryC2ERKNS_10RefPointerINS_10AclSubjectEEE
__ZN8Security9ObjectAcl8AclEntryC2ERKNS_10RefPointerINS_10AclSubjectEEE
__ZN8Security10RefPointerI3KeyE10setPointerEPS1_
__ZL17_XverifySignatureP17mach_msg_header_tS0_
__Z27ucsp_server_verifySignaturejj13audit_token_tPiPvjjjS1_jS1_j
__ZN13LocalDatabase15verifySignatureERKN8Security7ContextER3KeyjRKNS0_8CssmDataES8_
__ZN8Security10CssmClient6VerifyC1ERKNS0_3CSPEjj
__ZN8Security10CssmClient6Verify6verifyEPKNS_8CssmDataEjRS3_
__ZN8Security10CssmClient14SigningContext8activateEv
__ZN8Security10CssmClient14SigningContextD2Ev
__ZThn16_N7TempKeyD0Ev
__ZN7TempKeyD0Ev
__ZThn16_N16KeychainDatabaseD0Ev
__ZThn16_N12TempDatabaseD0Ev
__ZNSt8_Rb_treeIjSt4pairIKjN20ClientIdentification10GuestStateEESt10_Select1stIS4_ESt4lessIjESaIS4_EE15_M_destroy_nodeEPSt13_Rb
__ZL13_XhostingPortP17mach_msg_header_tS0_
__Z23ucsp_server_hostingPortjj13audit_token_tPiiPj
__ZNK6Server7findPidEi
__ZNKSt8_Rb_treeIiSt4pairIKiP7ProcessESt10_Select1stIS4_ESt4lessIiESaIS4_EE4findERS1_
__ZNSt6vectorIN13Authorization11AuthItemRefESaIS1_EE9push_backERKS1_
__ZNK13Authorization14CredentialImpl12creationTimeEv
__ZNSt8_Rb_treeISsSt4pairIKSsSsESt10_Select1stIS2_ESt4lessISsESaIS2_EE7_M_copyEPKSt13_Rb_tree_nodeIS2_EPSA_
__ZNSt8_Rb_treeISsSt4pairIKSsSsESt10_Select1stIS2_ESt4lessISsESaIS2_EE14_M_create_nodeERKS2_
__ZN9__gnu_cxx13new_allocatorISt4pairIKSsSsEE9constructEPS3_RKS3_
__ZNSt4pairIKSsSsEC2ERKS1_
__ZNSt8_Rb_treeISsSt4pairIKSsSsESt10_Select1stIS2_ESt4lessISsESaIS2_EE15_M_destroy_nodeEPSt13_Rb_tree_nodeIS2_E
__ZNSt4pairIKSsSsED2Ev
__ZNK7Session13originatorUidEv
__ZN8Security10RefPointerIN13Authorization14CredentialImplEE10setPointerEPS2_
__ZN8Security14CommonCriteria9Securityd25RightAuthenticationLogger10logSuccessEjjPKc
__ZNSt8_Rb_treeIP7ProcessS1_St9_IdentityIS1_ESt4lessIS1_ESaIS1_EE5eraseERKS1_
__ZNSt8_Rb_treeIP7ProcessS1_St9_IdentityIS1_ESt4lessIS1_ESaIS1_EE5eraseESt17_Rb_tree_iteratorIS1_ES9_
__ZNSt8_Rb_treeIP7ProcessS1_St9_IdentityIS1_ESt4lessIS1_ESaIS1_EE8_M_eraseEPSt13_Rb_tree_nodeIS1_E
__ZN13Authorization14CredentialImpl10invalidateEv
__ZN7Session7destroyEi
__ZL13handleSignalsi
_self_client_handleSignal
__ZL14_XhandleSignalP17mach_msg_header_tS0_
__Z24self_server_handleSignaljji
__ZN6Server13beginShutdownEv
__ZN7Session19invalidateAuthHostsEv
__ZN7Session26invalidateSessionAuthHostsEv
__ZN8Security6Syslog7warningEPKcz
__ZN8Security12UnixPlusPlus5Child4killEi
