__ZN11IOAGPDevice10gMetaClassE
__ZN11IOAGPDevice10superClassE
__ZN11IOAGPDevice11getAGPSpaceEPyS0_
__ZN11IOAGPDevice12getAGPStatusEj
__ZN11IOAGPDevice14createAGPSpaceEjPyS0_
__ZN11IOAGPDevice15commitAGPMemoryEP18IOMemoryDescriptoryj
__ZN11IOAGPDevice15destroyAGPSpaceEv
__ZN11IOAGPDevice16releaseAGPMemoryEP18IOMemoryDescriptoryj
__ZN11IOAGPDevice20getAGPRangeAllocatorEv
__ZN11IOAGPDevice21_RESERVEDIOAGPDevice0Ev
__ZN11IOAGPDevice21_RESERVEDIOAGPDevice1Ev
__ZN11IOAGPDevice21_RESERVEDIOAGPDevice2Ev
__ZN11IOAGPDevice21_RESERVEDIOAGPDevice3Ev
__ZN11IOAGPDevice21_RESERVEDIOAGPDevice4Ev
__ZN11IOAGPDevice21_RESERVEDIOAGPDevice5Ev
__ZN11IOAGPDevice21_RESERVEDIOAGPDevice6Ev
__ZN11IOAGPDevice21_RESERVEDIOAGPDevice7Ev
__ZN11IOAGPDevice21_RESERVEDIOAGPDevice8Ev
__ZN11IOAGPDevice21_RESERVEDIOAGPDevice9Ev
__ZN11IOAGPDevice22_RESERVEDIOAGPDevice10Ev
__ZN11IOAGPDevice22_RESERVEDIOAGPDevice11Ev
__ZN11IOAGPDevice22_RESERVEDIOAGPDevice12Ev
__ZN11IOAGPDevice22_RESERVEDIOAGPDevice13Ev
__ZN11IOAGPDevice22_RESERVEDIOAGPDevice14Ev
__ZN11IOAGPDevice22_RESERVEDIOAGPDevice15Ev
__ZN11IOAGPDevice22_RESERVEDIOAGPDevice16Ev
__ZN11IOAGPDevice8resetAGPEj
__ZN11IOAGPDevice9MetaClassC1Ev
__ZN11IOAGPDevice9MetaClassC2Ev
__ZN11IOAGPDevice9metaClassE
__ZN11IOAGPDeviceC1EPK11OSMetaClass
__ZN11IOAGPDeviceC1Ev
__ZN11IOAGPDeviceC2EPK11OSMetaClass
__ZN11IOAGPDeviceC2Ev
__ZN11IOAGPDeviceD0Ev
__ZN11IOAGPDeviceD1Ev
__ZN11IOAGPDeviceD2Ev
__ZN11IOAGPDevicedlEPvm
__ZN11IOAGPDevicenwEm
__ZN11IOPCIBridge10gMetaClassE
__ZN11IOPCIBridge10initializeEv
__ZN11IOPCIBridge10lastBusNumEv
__ZN11IOPCIBridge10publishNubEP11IOPCIDevicej
__ZN11IOPCIBridge10superClassE
__ZN11IOPCIBridge11firstBusNumEv
__ZN11IOPCIBridge11getAGPSpaceEP11IOAGPDevicePyS2_
__ZN11IOPCIBridge11pciMatchNubEP11IOPCIDeviceP12OSDictionaryPi
__ZN11IOPCIBridge11tunnelsWaitEP11IOPCIDevice
__ZN11IOPCIBridge12findMatchingEP10OSIterator17IOPCIAddressSpace
__ZN11IOPCIBridge12getAGPStatusEP11IOAGPDevicej
__ZN11IOPCIBridge12removeDeviceEP11IOPCIDevicej
__ZN11IOPCIBridge13deferredProbeEP11IOPCIDevice
__ZN11IOPCIBridge13initializeNubEP11IOPCIDeviceP12OSDictionary
__ZN11IOPCIBridge13newUserClientEP4taskPvjP12OSDictionaryPP12IOUserClient
__ZN11IOPCIBridge13protectDeviceEP11IOPCIDevicejj
__ZN11IOPCIBridge13restoreQEnterEP11IOPCIDevice
__ZN11IOPCIBridge13setPowerStateEmP9IOService
__ZN11IOPCIBridge13setPropertiesEP8OSObject
__ZN11IOPCIBridge14constructRangeEP17IOPCIAddressSpaceyyP7OSArray
__ZN11IOPCIBridge14createAGPSpaceEP11IOAGPDevicejPyS2_
__ZN11IOPCIBridge14resetAGPDeviceEP11IOAGPDevicej
__ZN11IOPCIBridge14restoreQRemoveEP11IOPCIDevice
__ZN11IOPCIBridge15checkPropertiesEP11IOPCIDevice
__ZN11IOPCIBridge15commitAGPMemoryEP11IOAGPDeviceP18IOMemoryDescriptoryj
__ZN11IOPCIBridge15destroyAGPSpaceEP11IOAGPDevice
__ZN11IOPCIBridge15getNubResourcesEP9IOService
__ZN11IOPCIBridge15saveDeviceStateEP11IOPCIDevicej
__ZN11IOPCIBridge16addBridgeIORangeEyy
__ZN11IOPCIBridge16getNubAddressingEP11IOPCIDevice
__ZN11IOPCIBridge16releaseAGPMemoryEP11IOAGPDeviceP18IOMemoryDescriptoryj
__ZN11IOPCIBridge16updateWakeReasonEP11IOPCIDevice
__ZN11IOPCIBridge17createEventSourceEP11IOPCIDeviceP8OSObjectPFvS3_P16IOPCIEventSourcePK10IOPCIEventEj
__ZN11IOPCIBridge17createEventSourceEP8OSObjectPFvS1_P16IOPCIEventSourcePK10IOPCIEventEj
__ZN11IOPCIBridge17findPCICapabilityE17IOPCIAddressSpacehPh
__ZN11IOPCIBridge17setDeviceASPMBitsEP11IOPCIDevicej
__ZN11IOPCIBridge17setDeviceL1PMBitsEP11IOPCIDevicej
__ZN11IOPCIBridge17systemPowerChangeEPvS0_jP9IOServiceS0_m
__ZN11IOPCIBridge18compareAddressCellEjPjS0_
__ZN11IOPCIBridge18finishMachineStateEj
__ZN11IOPCIBridge18getDTNubAddressingEP11IOPCIDevice
__ZN11IOPCIBridge18kernelRequestProbeEP11IOPCIDevicej
__ZN11IOPCIBridge18restoreDeviceStateEP11IOPCIDevicej
__ZN11IOPCIBridge18restoreTunnelStateEP11IOPCIDevicejPb
__ZN11IOPCIBridge18setDeviceASPMStateEP11IOPCIDeviceP9IOServicej
__ZN11IOPCIBridge19_restoreDeviceStateEP11IOPCIDevicej
__ZN11IOPCIBridge19constructPropertiesE17IOPCIAddressSpace
__ZN11IOPCIBridge19restoreMachineStateEjP11IOPCIDevice
__ZN11IOPCIBridge19setDeviceCLKREQBitsEP11IOPCIDevicej
__ZN11IOPCIBridge19setDevicePowerStateEP11IOPCIDevicejmm
__ZN11IOPCIBridge19setDevicePowerStateEP11IOPCIDevicem
__ZN11IOPCIBridge19spaceFromPropertiesEP12OSDictionaryP17IOPCIAddressSpace
__ZN11IOPCIBridge19spaceFromPropertiesEP15IORegistryEntryP17IOPCIAddressSpace
__ZN11IOPCIBridge20addBridgeMemoryRangeEyyb
__ZN11IOPCIBridge20callPlatformFunctionEPK8OSSymbolbPvS3_S3_S3_
__ZN11IOPCIBridge20getAGPRangeAllocatorEP11IOAGPDevice
__ZN11IOPCIBridge20resolveMSIInterruptsEP9IOServiceP11IOPCIDevice
__ZN11IOPCIBridge21_RESERVEDIOPCIBridge6Ev
__ZN11IOPCIBridge21_RESERVEDIOPCIBridge7Ev
__ZN11IOPCIBridge21_RESERVEDIOPCIBridge8Ev
__ZN11IOPCIBridge21_RESERVEDIOPCIBridge9Ev
__ZN11IOPCIBridge22_RESERVEDIOPCIBridge10Ev
__ZN11IOPCIBridge22_RESERVEDIOPCIBridge11Ev
__ZN11IOPCIBridge22_RESERVEDIOPCIBridge12Ev
__ZN11IOPCIBridge22_RESERVEDIOPCIBridge13Ev
__ZN11IOPCIBridge22_RESERVEDIOPCIBridge14Ev
__ZN11IOPCIBridge22_RESERVEDIOPCIBridge15Ev
__ZN11IOPCIBridge22_RESERVEDIOPCIBridge16Ev
__ZN11IOPCIBridge22_RESERVEDIOPCIBridge17Ev
__ZN11IOPCIBridge22_RESERVEDIOPCIBridge18Ev
__ZN11IOPCIBridge22_RESERVEDIOPCIBridge19Ev
__ZN11IOPCIBridge22_RESERVEDIOPCIBridge20Ev
__ZN11IOPCIBridge22_RESERVEDIOPCIBridge21Ev
__ZN11IOPCIBridge22_RESERVEDIOPCIBridge22Ev
__ZN11IOPCIBridge22_RESERVEDIOPCIBridge23Ev
__ZN11IOPCIBridge22_RESERVEDIOPCIBridge24Ev
__ZN11IOPCIBridge22_RESERVEDIOPCIBridge25Ev
__ZN11IOPCIBridge22_RESERVEDIOPCIBridge26Ev
__ZN11IOPCIBridge22_RESERVEDIOPCIBridge27Ev
__ZN11IOPCIBridge22_RESERVEDIOPCIBridge28Ev
__ZN11IOPCIBridge22_RESERVEDIOPCIBridge29Ev
__ZN11IOPCIBridge22_RESERVEDIOPCIBridge30Ev
__ZN11IOPCIBridge22_RESERVEDIOPCIBridge31Ev
__ZN11IOPCIBridge23resolveLegacyInterruptsEP9IOServiceP11IOPCIDevice
__ZN11IOPCIBridge24_restoreDeviceDependentsEP11IOPCIDevicejS1_
__ZN11IOPCIBridge24powerStateForDomainStateEm
__ZN11IOPCIBridge25extendedFindPCICapabilityE17IOPCIAddressSpacejPy
__ZN11IOPCIBridge25matchNubWithPropertyTableEP9IOServiceP12OSDictionaryPi
__ZN11IOPCIBridge27maxCapabilityForDomainStateEm
__ZN11IOPCIBridge31initialPowerStateForDomainStateEm
__ZN11IOPCIBridge32addBridgePrefetchableMemoryRangeEyy
__ZN11IOPCIBridge32addBridgePrefetchableMemoryRangeEyyb
__ZN11IOPCIBridge4freeEv
__ZN11IOPCIBridge4stopEP9IOService
__ZN11IOPCIBridge5startEP9IOService
__ZN11IOPCIBridge7isDTNubEP11IOPCIDevice
__ZN11IOPCIBridge8configOpEP9IOServicemPvS2_
__ZN11IOPCIBridge8probeBusEP9IOServiceh
__ZN11IOPCIBridge8relocateEP11IOPCIDevicej
__ZN11IOPCIBridge9MetaClassC1Ev
__ZN11IOPCIBridge9MetaClassC2Ev
__ZN11IOPCIBridge9checkLinkEj
__ZN11IOPCIBridge9configureEP9IOService
__ZN11IOPCIBridge9createNubEP12OSDictionary
__ZN11IOPCIBridge9enableLTREP11IOPCIDeviceb
__ZN11IOPCIBridge9matchKeysEP11IOPCIDevicePKcjh
__ZN11IOPCIBridge9metaClassE
__ZN11IOPCIBridgeC2EPK11OSMetaClass
__ZN11IOPCIBridgeD0Ev
__ZN11IOPCIBridgeD1Ev
__ZN11IOPCIBridgeD2Ev
__ZN11IOPCIBridgedlEPvm
__ZN11IOPCIBridgenwEm
__ZN11IOPCIDevice10gMetaClassE
__ZN11IOPCIDevice10handleOpenEP9IOServicejPv
__ZN11IOPCIDevice10superClassE
__ZN11IOPCIDevice11configRead8E17IOPCIAddressSpaceh
__ZN11IOPCIDevice11configRead8Eh
__ZN11IOPCIDevice11detachAboveEPK15IORegistryPlane
__ZN11IOPCIDevice11handleCloseEP9IOServicej
__ZN11IOPCIDevice11setIOEnableEbb
__ZN11IOPCIDevice12configAccessEb
__ZN11IOPCIDevice12configRead16E17IOPCIAddressSpaceh
__ZN11IOPCIDevice12configRead16Eh
__ZN11IOPCIDevice12configRead32E17IOPCIAddressSpaceh
__ZN11IOPCIDevice12configRead32Eh
__ZN11IOPCIDevice12configWrite8E17IOPCIAddressSpacehh
__ZN11IOPCIDevice12configWrite8Ehh
__ZN11IOPCIDevice12getBusNumberEv
__ZN11IOPCIDevice12getResourcesEv
__ZN11IOPCIDevice12initReservedEv
__ZN11IOPCIDevice12requestProbeEj
__ZN11IOPCIDevice12setASPMStateEP9IOServicej
__ZN11IOPCIDevice13_MemoryAccessEyyyPyP9IOServicejPFiP15OSMetaClassBase5IORPCE
__ZN11IOPCIDevice13configWrite16E17IOPCIAddressSpaceht
__ZN11IOPCIDevice13configWrite16Eht
__ZN11IOPCIDevice13configWrite32E17IOPCIAddressSpacehj
__ZN11IOPCIDevice13configWrite32Ehj
__ZN11IOPCIDevice13matchLocationEP9IOService
__ZN11IOPCIDevice13newUserClientEP4taskPvjP12OSDictionaryPP12IOUserClient
__ZN11IOPCIDevice13protectDeviceEjj
__ZN11IOPCIDevice13setConfigBitsEhjj
__ZN11IOPCIDevice13setPowerStateEmP9IOService
__ZN11IOPCIDevice13setPropertiesEP8OSObject
__ZN11IOPCIDevice14_ManageSessionEP9IOServicebjPFiP15OSMetaClassBase5IORPCE
__ZN11IOPCIDevice14ioDeviceMemoryEv
__ZN11IOPCIDevice15getDeviceNumberEv
__ZN11IOPCIDevice15saveDeviceStateEj
__ZN11IOPCIDevice15setMemoryEnableEb
__ZN11IOPCIDevice16setConfigHandlerEPFiPvjPS_jES0_PS3_PS0_
__ZN11IOPCIDevice16setPCIPowerStateEhj
__ZN11IOPCIDevice16updateWakeReasonEt
__ZN11IOPCIDevice17FindPCICapabilityEjyPyPFiP15OSMetaClassBase5IORPCE
__ZN11IOPCIDevice17createEventSourceEP8OSObjectPFvS1_P16IOPCIEventSourcePK10IOPCIEventEj
__ZN11IOPCIDevice17findPCICapabilityEhPh
__ZN11IOPCIDevice17getFunctionNumberEv
__ZN11IOPCIDevice17setTunnelL1EnableEP9IOServiceb
__ZN11IOPCIDevice18_MemoryAccess_ImplEyyyPyP9IOServicej
__ZN11IOPCIDevice18kernelRequestProbeEj
__ZN11IOPCIDevice18matchPropertyTableEP12OSDictionary
__ZN11IOPCIDevice18matchPropertyTableEP12OSDictionaryPi
__ZN11IOPCIDevice18restoreDeviceStateEj
__ZN11IOPCIDevice18setBusMasterEnableEb
__ZN11IOPCIDevice16setBusLeadEnableEb
__ZN11IOPCIDevice19_ManageSession_ImplEP9IOServicebj
__ZN11IOPCIDevice19configureInterruptsEjjjj
__ZN11IOPCIDevice19extendedConfigRead8Ey
__ZN11IOPCIDevice19setLatencyToleranceEjy
__ZN11IOPCIDevice20GetBusDeviceFunctionEPhS0_S0_PFiP15OSMetaClassBase5IORPCE
__ZN11IOPCIDevice20_MemoryAccess_InvokeE5IORPCP15OSMetaClassBasePFiS2_yyyPyP9IOServicejE
__ZN11IOPCIDevice20callPlatformFunctionEPK8OSSymbolbPvS3_S3_S3_
__ZN11IOPCIDevice20callPlatformFunctionEPKcbPvS2_S2_S2_
__ZN11IOPCIDevice20extendedConfigRead16Ey
__ZN11IOPCIDevice20extendedConfigRead32Ey
__ZN11IOPCIDevice20extendedConfigWrite8Eyh
__ZN11IOPCIDevice21HasPCIPowerManagementEyPFiP15OSMetaClassBase5IORPCE
__ZN11IOPCIDevice21_ManageSession_InvokeE5IORPCP15OSMetaClassBasePFiS2_P9IOServicebjE
__ZN11IOPCIDevice21_RESERVEDIOPCIDevice4Ev
__ZN11IOPCIDevice21_RESERVEDIOPCIDevice5Ev
__ZN11IOPCIDevice21_RESERVEDIOPCIDevice6Ev
__ZN11IOPCIDevice21_RESERVEDIOPCIDevice7Ev
__ZN11IOPCIDevice21_RESERVEDIOPCIDevice8Ev
__ZN11IOPCIDevice21_RESERVEDIOPCIDevice9Ev
__ZN11IOPCIDevice21extendedConfigWrite16Eyt
__ZN11IOPCIDevice21extendedConfigWrite32Eyj
__ZN11IOPCIDevice21hasPCIPowerManagementEj
__ZN11IOPCIDevice22FindPCICapability_ImplEjyPy
__ZN11IOPCIDevice22_RESERVEDIOPCIDevice10Ev
__ZN11IOPCIDevice22_RESERVEDIOPCIDevice11Ev
__ZN11IOPCIDevice22_RESERVEDIOPCIDevice12Ev
__ZN11IOPCIDevice22_RESERVEDIOPCIDevice13Ev
__ZN11IOPCIDevice22_RESERVEDIOPCIDevice14Ev
__ZN11IOPCIDevice22_RESERVEDIOPCIDevice15Ev
__ZN11IOPCIDevice22powerStateWillChangeToEmmP9IOService
__ZN11IOPCIDevice24EnablePCIPowerManagementEyPFiP15OSMetaClassBase5IORPCE
__ZN11IOPCIDevice24FindPCICapability_InvokeE5IORPCP15OSMetaClassBasePFiS2_jyPyE
__ZN11IOPCIDevice24enablePCIPowerManagementEj
__ZN11IOPCIDevice24getDeviceMemoryWithIndexEj
__ZN11IOPCIDevice24powerStateForDomainStateEm
__ZN11IOPCIDevice25GetBusDeviceFunction_ImplEPhS0_S0_
__ZN11IOPCIDevice25extendedFindPCICapabilityEjPy
__ZN11IOPCIDevice26HasPCIPowerManagement_ImplEy
__ZN11IOPCIDevice26_CopyDeviceMemoryWithIndexEyPP18IOMemoryDescriptorP9IOServicePFiP15OSMetaClassBase5IORPCE
__ZN11IOPCIDevice27GetBusDeviceFunction_InvokeE5IORPCP15OSMetaClassBasePFiS2_PhS3_S3_E
__ZN11IOPCIDevice27getDeviceMemoryWithRegisterEh
__ZN11IOPCIDevice27mapDeviceMemoryWithRegisterEhj
__ZN11IOPCIDevice27maxCapabilityForDomainStateEm
__ZN11IOPCIDevice28HasPCIPowerManagement_InvokeE5IORPCP15OSMetaClassBasePFiS2_yE
__ZN11IOPCIDevice29EnablePCIPowerManagement_ImplEy
__ZN11IOPCIDevice29copyAERErrorDescriptionForBitEbjPcm
__ZN11IOPCIDevice31EnablePCIPowerManagement_InvokeE5IORPCP15OSMetaClassBasePFiS2_yE
__ZN11IOPCIDevice31_CopyDeviceMemoryWithIndex_ImplEyPP18IOMemoryDescriptorP9IOService
__ZN11IOPCIDevice31initialPowerStateForDomainStateEm
__ZN11IOPCIDevice33_CopyDeviceMemoryWithIndex_InvokeE5IORPCP15OSMetaClassBasePFiS2_yPP18IOMemoryDescriptorP9IOServiceE
__ZN11IOPCIDevice4freeEv
__ZN11IOPCIDevice4initEP12OSDictionary
__ZN11IOPCIDevice4initEP15IORegistryEntryPK15IORegistryPlane
__ZN11IOPCIDevice6attachEP9IOService
__ZN11IOPCIDevice6detachEP9IOService
__ZN11IOPCIDevice7ioRead8EtP11IOMemoryMap
__ZN11IOPCIDevice8DispatchE5IORPC
__ZN11IOPCIDevice8ioRead16EtP11IOMemoryMap
__ZN11IOPCIDevice8ioRead32EtP11IOMemoryMap
__ZN11IOPCIDevice8ioWrite8EthP11IOMemoryMap
__ZN11IOPCIDevice8relocateEj
__ZN11IOPCIDevice9MetaClass8DispatchE5IORPC
__ZN11IOPCIDevice9MetaClassC1Ev
__ZN11IOPCIDevice9MetaClassC2Ev
__ZN11IOPCIDevice9_DispatchEPS_5IORPC
__ZN11IOPCIDevice9checkLinkEj
__ZN11IOPCIDevice9enableACSEPS_b
__ZN11IOPCIDevice9enableLTREPS_b
__ZN11IOPCIDevice9ioWrite16EttP11IOMemoryMap
__ZN11IOPCIDevice9ioWrite32EtjP11IOMemoryMap
__ZN11IOPCIDevice9metaClassE
__ZN11IOPCIDeviceC1EPK11OSMetaClass
__ZN11IOPCIDeviceC1Ev
__ZN11IOPCIDeviceC2EPK11OSMetaClass
__ZN11IOPCIDeviceC2Ev
__ZN11IOPCIDeviceD0Ev
__ZN11IOPCIDeviceD1Ev
__ZN11IOPCIDeviceD2Ev
__ZN11IOPCIDevicedlEPvm
__ZN11IOPCIDevicenwEm
__ZN15IOPCI2PCIBridge10gMetaClassE
__ZN15IOPCI2PCIBridge10lastBusNumEv
__ZN15IOPCI2PCIBridge10publishNubEP11IOPCIDevicej
__ZN15IOPCI2PCIBridge10superClassE
__ZN15IOPCI2PCIBridge10timerProbeEP18IOTimerEventSource
__ZN15IOPCI2PCIBridge11configRead8E17IOPCIAddressSpaceh
__ZN15IOPCI2PCIBridge11firstBusNumEv
__ZN15IOPCI2PCIBridge12configRead16E17IOPCIAddressSpaceh
__ZN15IOPCI2PCIBridge12configRead32E17IOPCIAddressSpaceh
__ZN15IOPCI2PCIBridge12configWrite8E17IOPCIAddressSpacehh
__ZN15IOPCI2PCIBridge12requestProbeEj
__ZN15IOPCI2PCIBridge13configWrite16E17IOPCIAddressSpaceht
__ZN15IOPCI2PCIBridge13configWrite32E17IOPCIAddressSpacehj
__ZN15IOPCI2PCIBridge13setPowerStateEmP9IOService
__ZN15IOPCI2PCIBridge14getBridgeSpaceEv
__ZN15IOPCI2PCIBridge14ioDeviceMemoryEv
__ZN15IOPCI2PCIBridge14startBootDeferEP9IOService
__ZN15IOPCI2PCIBridge15filterInterruptEP28IOFilterInterruptEventSource
__ZN15IOPCI2PCIBridge15handleInterruptEP22IOInterruptEventSourcei
__ZN15IOPCI2PCIBridge15saveBridgeStateEv
__ZN15IOPCI2PCIBridge15saveDeviceStateEP11IOPCIDevicej
__ZN15IOPCI2PCIBridge16adjustPowerStateEm
__ZN15IOPCI2PCIBridge17createEventSourceEP11IOPCIDeviceP8OSObjectPFvS3_P16IOPCIEventSourcePK10IOPCIEventEj
__ZN15IOPCI2PCIBridge17setTunnelL1EnableEP11IOPCIDeviceP9IOServiceb
__ZN15IOPCI2PCIBridge18restoreBridgeStateEv
__ZN15IOPCI2PCIBridge18setDeviceASPMStateEP11IOPCIDeviceP9IOServicej
__ZN15IOPCI2PCIBridge18systemWillShutdownEj
__ZN15IOPCI2PCIBridge21startBridgeInterruptsEP9IOService
__ZN15IOPCI2PCIBridge22enableBridgeInterruptsEv
__ZN15IOPCI2PCIBridge23disableBridgeInterruptsEv
__ZN15IOPCI2PCIBridge24allocateBridgeInterruptsEP9IOService
__ZN15IOPCI2PCIBridge25_RESERVEDIOPCI2PCIBridge0Ev
__ZN15IOPCI2PCIBridge25_RESERVEDIOPCI2PCIBridge1Ev
__ZN15IOPCI2PCIBridge25_RESERVEDIOPCI2PCIBridge2Ev
__ZN15IOPCI2PCIBridge25_RESERVEDIOPCI2PCIBridge3Ev
__ZN15IOPCI2PCIBridge25_RESERVEDIOPCI2PCIBridge4Ev
__ZN15IOPCI2PCIBridge25_RESERVEDIOPCI2PCIBridge5Ev
__ZN15IOPCI2PCIBridge25_RESERVEDIOPCI2PCIBridge6Ev
__ZN15IOPCI2PCIBridge25_RESERVEDIOPCI2PCIBridge7Ev
__ZN15IOPCI2PCIBridge25_RESERVEDIOPCI2PCIBridge8Ev
__ZN15IOPCI2PCIBridge4freeEv
__ZN15IOPCI2PCIBridge4stopEP9IOService
__ZN15IOPCI2PCIBridge5probeEP9IOServicePi
__ZN15IOPCI2PCIBridge5startEP9IOService
__ZN15IOPCI2PCIBridge8probeBusEP9IOServiceh
__ZN15IOPCI2PCIBridge9MetaClassC1Ev
__ZN15IOPCI2PCIBridge9MetaClassC2Ev
__ZN15IOPCI2PCIBridge9checkLinkEj
__ZN15IOPCI2PCIBridge9configureEP9IOService
__ZN15IOPCI2PCIBridge9enableLTREP11IOPCIDeviceb
__ZN15IOPCI2PCIBridge9metaClassE
__ZN15IOPCI2PCIBridgeC1EPK11OSMetaClass
__ZN15IOPCI2PCIBridgeC1Ev
__ZN15IOPCI2PCIBridgeC2EPK11OSMetaClass
__ZN15IOPCI2PCIBridgeC2Ev
__ZN15IOPCI2PCIBridgeD0Ev
__ZN15IOPCI2PCIBridgeD1Ev
__ZN15IOPCI2PCIBridgeD2Ev
__ZN15IOPCI2PCIBridgedlEPvm
__ZN15IOPCI2PCIBridgenwEm
__ZN16IOPCIEventSource10gMetaClassE
__ZN16IOPCIEventSource10superClassE
__ZN16IOPCIEventSource12checkForWorkEv
__ZN16IOPCIEventSource4freeEv
__ZN16IOPCIEventSource6enableEv
__ZN16IOPCIEventSource7disableEv
__ZN16IOPCIEventSource9MetaClassC1Ev
__ZN16IOPCIEventSource9MetaClassC2Ev
__ZN16IOPCIEventSource9metaClassE
__ZN16IOPCIEventSourceC1EPK11OSMetaClass
__ZN16IOPCIEventSourceC1Ev
__ZN16IOPCIEventSourceC2EPK11OSMetaClass
__ZN16IOPCIEventSourceC2Ev
__ZN16IOPCIEventSourceD0Ev
__ZN16IOPCIEventSourceD1Ev
__ZN16IOPCIEventSourceD2Ev
__ZN16IOPCIEventSourcedlEPvm
__ZN16IOPCIEventSourcenwEm
__ZNK11IOAGPDevice12getMetaClassEv
__ZNK11IOAGPDevice9MetaClass5allocEv
__ZNK11IOPCIBridge12getMetaClassEv
__ZNK11IOPCIBridge14compareNubNameEPK9IOServiceP8OSStringPS4_
__ZNK11IOPCIBridge23getConfiguratorWorkLoopEv
__ZNK11IOPCIBridge9MetaClass5allocEv
__ZNK11IOPCIDevice11compareNameEP8OSStringPS1_
__ZNK11IOPCIDevice11getPropertyEPK8OSSymbol
__ZNK11IOPCIDevice12getMetaClassEv
__ZNK11IOPCIDevice9MetaClass5allocEv
__ZNK15IOPCI2PCIBridge12getMetaClassEv
__ZNK15IOPCI2PCIBridge19serializePropertiesEP11OSSerialize
__ZNK15IOPCI2PCIBridge9MetaClass5allocEv
__ZNK16IOPCIEventSource12getMetaClassEv
__ZNK16IOPCIEventSource9MetaClass5allocEv
__ZTV11IOAGPDevice
__ZTV11IOPCIBridge
__ZTV11IOPCIDevice
__ZTV15IOPCI2PCIBridge
__ZTV16IOPCIEventSource
__ZTVN11IOAGPDevice9MetaClassE
__ZTVN11IOPCIBridge9MetaClassE
__ZTVN11IOPCIDevice9MetaClassE
__ZTVN15IOPCI2PCIBridge9MetaClassE
__ZTVN16IOPCIEventSource9MetaClassE
